
./bin/bos:     file format elf32-littlearm


Disassembly of section .text:

82000000 <lsdir>:
82000000:	e92d4800 	push	{fp, lr}
82000004:	e28db004 	add	fp, sp, #4
82000008:	e24dd0b8 	sub	sp, sp, #184	; 0xb8
8200000c:	e24b30ac 	sub	r3, fp, #172	; 0xac
82000010:	e3a020a0 	mov	r2, #160	; 0xa0
82000014:	e3a01000 	mov	r1, #0
82000018:	e1a00003 	mov	r0, r3
8200001c:	eb000ae6 	bl	82002bbc <_memset>
82000020:	e24b30ac 	sub	r3, fp, #172	; 0xac
82000024:	e3a010a0 	mov	r1, #160	; 0xa0
82000028:	e1a00003 	mov	r0, r3
8200002c:	eb0022aa 	bl	82008adc <__getsubdir>
82000030:	e1a03000 	mov	r3, r0
82000034:	e3530000 	cmp	r3, #0
82000038:	aa000002 	bge	82000048 <lsdir+0x48>
8200003c:	e3080ea8 	movw	r0, #36520	; 0x8ea8
82000040:	e3480200 	movt	r0, #33280	; 0x8200
82000044:	eb0012fe 	bl	82004c44 <printk>
82000048:	e3083ec0 	movw	r3, #36544	; 0x8ec0
8200004c:	e3483200 	movt	r3, #33280	; 0x8200
82000050:	e50b300c 	str	r3, [fp, #-12]
82000054:	e24b30ac 	sub	r3, fp, #172	; 0xac
82000058:	e50b3008 	str	r3, [fp, #-8]
8200005c:	ea000015 	b	820000b8 <lsdir+0xb8>
82000060:	e24b30bc 	sub	r3, fp, #188	; 0xbc
82000064:	e3a02010 	mov	r2, #16
82000068:	e3a01000 	mov	r1, #0
8200006c:	e1a00003 	mov	r0, r3
82000070:	eb000ad1 	bl	82002bbc <_memset>
82000074:	e51b000c 	ldr	r0, [fp, #-12]
82000078:	eb00188d 	bl	820062b4 <_strlen>
8200007c:	e1a02000 	mov	r2, r0
82000080:	e24b30bc 	sub	r3, fp, #188	; 0xbc
82000084:	e51b100c 	ldr	r1, [fp, #-12]
82000088:	e51b0008 	ldr	r0, [fp, #-8]
8200008c:	eb001938 	bl	82006574 <strtok_fst>
82000090:	e50b0008 	str	r0, [fp, #-8]
82000094:	e55b30bc 	ldrb	r3, [fp, #-188]	; 0xffffff44
82000098:	e3530000 	cmp	r3, #0
8200009c:	0a000002 	beq	820000ac <lsdir+0xac>
820000a0:	e3080ec4 	movw	r0, #36548	; 0x8ec4
820000a4:	e3480200 	movt	r0, #33280	; 0x8200
820000a8:	eb0017af 	bl	82005f6c <put_str>
820000ac:	e24b30bc 	sub	r3, fp, #188	; 0xbc
820000b0:	e1a00003 	mov	r0, r3
820000b4:	eb0017ac 	bl	82005f6c <put_str>
820000b8:	e51b3008 	ldr	r3, [fp, #-8]
820000bc:	e3530000 	cmp	r3, #0
820000c0:	1affffe6 	bne	82000060 <lsdir+0x60>
820000c4:	e24b30ac 	sub	r3, fp, #172	; 0xac
820000c8:	e3a020a0 	mov	r2, #160	; 0xa0
820000cc:	e3a01000 	mov	r1, #0
820000d0:	e1a00003 	mov	r0, r3
820000d4:	eb000ab8 	bl	82002bbc <_memset>
820000d8:	e24b30ac 	sub	r3, fp, #172	; 0xac
820000dc:	e3a010a0 	mov	r1, #160	; 0xa0
820000e0:	e1a00003 	mov	r0, r3
820000e4:	eb002296 	bl	82008b44 <__getfdir>
820000e8:	e1a03000 	mov	r3, r0
820000ec:	e3530000 	cmp	r3, #0
820000f0:	aa000002 	bge	82000100 <lsdir+0x100>
820000f4:	e3080ea8 	movw	r0, #36520	; 0x8ea8
820000f8:	e3480200 	movt	r0, #33280	; 0x8200
820000fc:	eb0012d0 	bl	82004c44 <printk>
82000100:	e24b30ac 	sub	r3, fp, #172	; 0xac
82000104:	e50b3008 	str	r3, [fp, #-8]
82000108:	ea000015 	b	82000164 <lsdir+0x164>
8200010c:	e24b30bc 	sub	r3, fp, #188	; 0xbc
82000110:	e3a02010 	mov	r2, #16
82000114:	e3a01000 	mov	r1, #0
82000118:	e1a00003 	mov	r0, r3
8200011c:	eb000aa6 	bl	82002bbc <_memset>
82000120:	e51b000c 	ldr	r0, [fp, #-12]
82000124:	eb001862 	bl	820062b4 <_strlen>
82000128:	e1a02000 	mov	r2, r0
8200012c:	e24b30bc 	sub	r3, fp, #188	; 0xbc
82000130:	e51b100c 	ldr	r1, [fp, #-12]
82000134:	e51b0008 	ldr	r0, [fp, #-8]
82000138:	eb00190d 	bl	82006574 <strtok_fst>
8200013c:	e50b0008 	str	r0, [fp, #-8]
82000140:	e55b30bc 	ldrb	r3, [fp, #-188]	; 0xffffff44
82000144:	e3530000 	cmp	r3, #0
82000148:	0a000002 	beq	82000158 <lsdir+0x158>
8200014c:	e3080ec4 	movw	r0, #36548	; 0x8ec4
82000150:	e3480200 	movt	r0, #33280	; 0x8200
82000154:	eb001784 	bl	82005f6c <put_str>
82000158:	e24b30bc 	sub	r3, fp, #188	; 0xbc
8200015c:	e1a00003 	mov	r0, r3
82000160:	eb001781 	bl	82005f6c <put_str>
82000164:	e51b3008 	ldr	r3, [fp, #-8]
82000168:	e3530000 	cmp	r3, #0
8200016c:	1affffe6 	bne	8200010c <lsdir+0x10c>
82000170:	e320f000 	nop	{0}
82000174:	e320f000 	nop	{0}
82000178:	e24bd004 	sub	sp, fp, #4
8200017c:	e8bd8800 	pop	{fp, pc}

82000180 <cd>:
82000180:	e92d4800 	push	{fp, lr}
82000184:	e28db004 	add	fp, sp, #4
82000188:	e24dd008 	sub	sp, sp, #8
8200018c:	e50b0008 	str	r0, [fp, #-8]
82000190:	e51b0008 	ldr	r0, [fp, #-8]
82000194:	eb002284 	bl	82008bac <__chdir>
82000198:	e1a03000 	mov	r3, r0
8200019c:	e1a00003 	mov	r0, r3
820001a0:	e24bd004 	sub	sp, fp, #4
820001a4:	e8bd8800 	pop	{fp, pc}

820001a8 <pwd>:
820001a8:	e92d4800 	push	{fp, lr}
820001ac:	e28db004 	add	fp, sp, #4
820001b0:	e24dd008 	sub	sp, sp, #8
820001b4:	e50b0008 	str	r0, [fp, #-8]
820001b8:	e50b100c 	str	r1, [fp, #-12]
820001bc:	e51b100c 	ldr	r1, [fp, #-12]
820001c0:	e51b0008 	ldr	r0, [fp, #-8]
820001c4:	eb002282 	bl	82008bd4 <__getfullpath>
820001c8:	e3a03000 	mov	r3, #0
820001cc:	e1a00003 	mov	r0, r3
820001d0:	e24bd004 	sub	sp, fp, #4
820001d4:	e8bd8800 	pop	{fp, pc}

820001d8 <draw_horizental_line>:
820001d8:	e52db004 	push	{fp}		; (str fp, [sp, #-4]!)
820001dc:	e28db000 	add	fp, sp, #0
820001e0:	e24dd01c 	sub	sp, sp, #28
820001e4:	e50b0010 	str	r0, [fp, #-16]
820001e8:	e50b1014 	str	r1, [fp, #-20]	; 0xffffffec
820001ec:	e50b2018 	str	r2, [fp, #-24]	; 0xffffffe8
820001f0:	e50b301c 	str	r3, [fp, #-28]	; 0xffffffe4
820001f4:	e51b3010 	ldr	r3, [fp, #-16]
820001f8:	e50b3008 	str	r3, [fp, #-8]
820001fc:	e51b3014 	ldr	r3, [fp, #-20]	; 0xffffffec
82000200:	e51b201c 	ldr	r2, [fp, #-28]	; 0xffffffe4
82000204:	e0020392 	mul	r2, r2, r3
82000208:	e51b3018 	ldr	r3, [fp, #-24]	; 0xffffffe8
8200020c:	e0823003 	add	r3, r2, r3
82000210:	e1a02003 	mov	r2, r3
82000214:	e51b3008 	ldr	r3, [fp, #-8]
82000218:	e0833002 	add	r3, r3, r2
8200021c:	e50b3008 	str	r3, [fp, #-8]
82000220:	ea000008 	b	82000248 <draw_horizental_line+0x70>
82000224:	e59b3008 	ldr	r3, [fp, #8]
82000228:	e2433001 	sub	r3, r3, #1
8200022c:	e51b2008 	ldr	r2, [fp, #-8]
82000230:	e0823003 	add	r3, r2, r3
82000234:	e5db2004 	ldrb	r2, [fp, #4]
82000238:	e5c32000 	strb	r2, [r3]
8200023c:	e59b3008 	ldr	r3, [fp, #8]
82000240:	e2433001 	sub	r3, r3, #1
82000244:	e58b3008 	str	r3, [fp, #8]
82000248:	e59b3008 	ldr	r3, [fp, #8]
8200024c:	e3530000 	cmp	r3, #0
82000250:	1afffff3 	bne	82000224 <draw_horizental_line+0x4c>
82000254:	e320f000 	nop	{0}
82000258:	e320f000 	nop	{0}
8200025c:	e28bd000 	add	sp, fp, #0
82000260:	e49db004 	pop	{fp}		; (ldr fp, [sp], #4)
82000264:	e12fff1e 	bx	lr

82000268 <draw_vertical_line>:
82000268:	e52db004 	push	{fp}		; (str fp, [sp, #-4]!)
8200026c:	e28db000 	add	fp, sp, #0
82000270:	e24dd01c 	sub	sp, sp, #28
82000274:	e50b0010 	str	r0, [fp, #-16]
82000278:	e50b1014 	str	r1, [fp, #-20]	; 0xffffffec
8200027c:	e50b2018 	str	r2, [fp, #-24]	; 0xffffffe8
82000280:	e50b301c 	str	r3, [fp, #-28]	; 0xffffffe4
82000284:	e51b3010 	ldr	r3, [fp, #-16]
82000288:	e50b3008 	str	r3, [fp, #-8]
8200028c:	e51b3014 	ldr	r3, [fp, #-20]	; 0xffffffec
82000290:	e51b201c 	ldr	r2, [fp, #-28]	; 0xffffffe4
82000294:	e0030392 	mul	r3, r2, r3
82000298:	e1a02003 	mov	r2, r3
8200029c:	e51b3018 	ldr	r3, [fp, #-24]	; 0xffffffe8
820002a0:	e0823003 	add	r3, r2, r3
820002a4:	e51b2008 	ldr	r2, [fp, #-8]
820002a8:	e0823003 	add	r3, r2, r3
820002ac:	e50b3008 	str	r3, [fp, #-8]
820002b0:	ea00000b 	b	820002e4 <draw_vertical_line+0x7c>
820002b4:	e59b3008 	ldr	r3, [fp, #8]
820002b8:	e2433001 	sub	r3, r3, #1
820002bc:	e51b2014 	ldr	r2, [fp, #-20]	; 0xffffffec
820002c0:	e0030392 	mul	r3, r2, r3
820002c4:	e1a02003 	mov	r2, r3
820002c8:	e51b3008 	ldr	r3, [fp, #-8]
820002cc:	e0833002 	add	r3, r3, r2
820002d0:	e5db2004 	ldrb	r2, [fp, #4]
820002d4:	e5c32000 	strb	r2, [r3]
820002d8:	e59b3008 	ldr	r3, [fp, #8]
820002dc:	e2433001 	sub	r3, r3, #1
820002e0:	e58b3008 	str	r3, [fp, #8]
820002e4:	e59b3008 	ldr	r3, [fp, #8]
820002e8:	e3530000 	cmp	r3, #0
820002ec:	1afffff0 	bne	820002b4 <draw_vertical_line+0x4c>
820002f0:	e320f000 	nop	{0}
820002f4:	e320f000 	nop	{0}
820002f8:	e28bd000 	add	sp, fp, #0
820002fc:	e49db004 	pop	{fp}		; (ldr fp, [sp], #4)
82000300:	e12fff1e 	bx	lr

82000304 <draw_whole>:
82000304:	e52db004 	push	{fp}		; (str fp, [sp, #-4]!)
82000308:	e28db000 	add	fp, sp, #0
8200030c:	e24dd024 	sub	sp, sp, #36	; 0x24
82000310:	e50b0018 	str	r0, [fp, #-24]	; 0xffffffe8
82000314:	e50b101c 	str	r1, [fp, #-28]	; 0xffffffe4
82000318:	e50b2020 	str	r2, [fp, #-32]	; 0xffffffe0
8200031c:	e54b3021 	strb	r3, [fp, #-33]	; 0xffffffdf
82000320:	e51b3018 	ldr	r3, [fp, #-24]	; 0xffffffe8
82000324:	e50b300c 	str	r3, [fp, #-12]
82000328:	e51b301c 	ldr	r3, [fp, #-28]	; 0xffffffe4
8200032c:	e51b2020 	ldr	r2, [fp, #-32]	; 0xffffffe0
82000330:	e0030392 	mul	r3, r2, r3
82000334:	e50b3010 	str	r3, [fp, #-16]
82000338:	e3a03000 	mov	r3, #0
8200033c:	e50b3008 	str	r3, [fp, #-8]
82000340:	ea000007 	b	82000364 <draw_whole+0x60>
82000344:	e51b3008 	ldr	r3, [fp, #-8]
82000348:	e51b200c 	ldr	r2, [fp, #-12]
8200034c:	e0823003 	add	r3, r2, r3
82000350:	e55b2021 	ldrb	r2, [fp, #-33]	; 0xffffffdf
82000354:	e5c32000 	strb	r2, [r3]
82000358:	e51b3008 	ldr	r3, [fp, #-8]
8200035c:	e2833001 	add	r3, r3, #1
82000360:	e50b3008 	str	r3, [fp, #-8]
82000364:	e51b2008 	ldr	r2, [fp, #-8]
82000368:	e51b3010 	ldr	r3, [fp, #-16]
8200036c:	e1520003 	cmp	r2, r3
82000370:	bafffff3 	blt	82000344 <draw_whole+0x40>
82000374:	e320f000 	nop	{0}
82000378:	e320f000 	nop	{0}
8200037c:	e28bd000 	add	sp, fp, #0
82000380:	e49db004 	pop	{fp}		; (ldr fp, [sp], #4)
82000384:	e12fff1e 	bx	lr

82000388 <draw_last_pix_every_line>:
82000388:	e92d4800 	push	{fp, lr}
8200038c:	e28db004 	add	fp, sp, #4
82000390:	e24dd018 	sub	sp, sp, #24
82000394:	e50b0008 	str	r0, [fp, #-8]
82000398:	e50b100c 	str	r1, [fp, #-12]
8200039c:	e50b2010 	str	r2, [fp, #-16]
820003a0:	e54b3011 	strb	r3, [fp, #-17]	; 0xffffffef
820003a4:	e51b3010 	ldr	r3, [fp, #-16]
820003a8:	e2432001 	sub	r2, r3, #1
820003ac:	e51b300c 	ldr	r3, [fp, #-12]
820003b0:	e58d3004 	str	r3, [sp, #4]
820003b4:	e3a0300a 	mov	r3, #10
820003b8:	e58d3000 	str	r3, [sp]
820003bc:	e3a03000 	mov	r3, #0
820003c0:	e51b1010 	ldr	r1, [fp, #-16]
820003c4:	e51b0008 	ldr	r0, [fp, #-8]
820003c8:	ebffffa6 	bl	82000268 <draw_vertical_line>
820003cc:	e51b3010 	ldr	r3, [fp, #-16]
820003d0:	e2432001 	sub	r2, r3, #1
820003d4:	e51b300c 	ldr	r3, [fp, #-12]
820003d8:	e2433001 	sub	r3, r3, #1
820003dc:	e3a01001 	mov	r1, #1
820003e0:	e58d1004 	str	r1, [sp, #4]
820003e4:	e3a01000 	mov	r1, #0
820003e8:	e58d1000 	str	r1, [sp]
820003ec:	e51b1010 	ldr	r1, [fp, #-16]
820003f0:	e51b0008 	ldr	r0, [fp, #-8]
820003f4:	ebffff9b 	bl	82000268 <draw_vertical_line>
820003f8:	e320f000 	nop	{0}
820003fc:	e24bd004 	sub	sp, fp, #4
82000400:	e8bd8800 	pop	{fp, pc}

82000404 <draw_console>:
82000404:	e92d4800 	push	{fp, lr}
82000408:	e28db004 	add	fp, sp, #4
8200040c:	e24ddd1e 	sub	sp, sp, #1920	; 0x780
82000410:	e24dd008 	sub	sp, sp, #8
82000414:	e24b0d1e 	sub	r0, fp, #1920	; 0x780
82000418:	e2400004 	sub	r0, r0, #4
8200041c:	e3a03020 	mov	r3, #32
82000420:	e3a02050 	mov	r2, #80	; 0x50
82000424:	e3a01018 	mov	r1, #24
82000428:	ebffffb5 	bl	82000304 <draw_whole>
8200042c:	e24b0d1e 	sub	r0, fp, #1920	; 0x780
82000430:	e2400004 	sub	r0, r0, #4
82000434:	e3a03013 	mov	r3, #19
82000438:	e58d3004 	str	r3, [sp, #4]
8200043c:	e3a0303d 	mov	r3, #61	; 0x3d
82000440:	e58d3000 	str	r3, [sp]
82000444:	e3a0300a 	mov	r3, #10
82000448:	e3a0200d 	mov	r2, #13
8200044c:	e3a01050 	mov	r1, #80	; 0x50
82000450:	ebffff60 	bl	820001d8 <draw_horizental_line>
82000454:	e24b0d1e 	sub	r0, fp, #1920	; 0x780
82000458:	e2400004 	sub	r0, r0, #4
8200045c:	e3a03013 	mov	r3, #19
82000460:	e58d3004 	str	r3, [sp, #4]
82000464:	e3a0303d 	mov	r3, #61	; 0x3d
82000468:	e58d3000 	str	r3, [sp]
8200046c:	e3a03014 	mov	r3, #20
82000470:	e3a0200d 	mov	r2, #13
82000474:	e3a01050 	mov	r1, #80	; 0x50
82000478:	ebffff56 	bl	820001d8 <draw_horizental_line>
8200047c:	e24b0d1e 	sub	r0, fp, #1920	; 0x780
82000480:	e2400004 	sub	r0, r0, #4
82000484:	e3a03009 	mov	r3, #9
82000488:	e58d3004 	str	r3, [sp, #4]
8200048c:	e3a0307c 	mov	r3, #124	; 0x7c
82000490:	e58d3000 	str	r3, [sp]
82000494:	e3a0300b 	mov	r3, #11
82000498:	e3a0200c 	mov	r2, #12
8200049c:	e3a01050 	mov	r1, #80	; 0x50
820004a0:	ebffff70 	bl	82000268 <draw_vertical_line>
820004a4:	e24b0d1e 	sub	r0, fp, #1920	; 0x780
820004a8:	e2400004 	sub	r0, r0, #4
820004ac:	e3a03009 	mov	r3, #9
820004b0:	e58d3004 	str	r3, [sp, #4]
820004b4:	e3a0307c 	mov	r3, #124	; 0x7c
820004b8:	e58d3000 	str	r3, [sp]
820004bc:	e3a0300b 	mov	r3, #11
820004c0:	e3a02020 	mov	r2, #32
820004c4:	e3a01050 	mov	r1, #80	; 0x50
820004c8:	ebffff66 	bl	82000268 <draw_vertical_line>
820004cc:	e24b0d1e 	sub	r0, fp, #1920	; 0x780
820004d0:	e2400004 	sub	r0, r0, #4
820004d4:	e3a03014 	mov	r3, #20
820004d8:	e58d3004 	str	r3, [sp, #4]
820004dc:	e3a0303d 	mov	r3, #61	; 0x3d
820004e0:	e58d3000 	str	r3, [sp]
820004e4:	e3a0300a 	mov	r3, #10
820004e8:	e3a0202a 	mov	r2, #42	; 0x2a
820004ec:	e3a01050 	mov	r1, #80	; 0x50
820004f0:	ebffff38 	bl	820001d8 <draw_horizental_line>
820004f4:	e24b0d1e 	sub	r0, fp, #1920	; 0x780
820004f8:	e2400004 	sub	r0, r0, #4
820004fc:	e3a03014 	mov	r3, #20
82000500:	e58d3004 	str	r3, [sp, #4]
82000504:	e3a0303d 	mov	r3, #61	; 0x3d
82000508:	e58d3000 	str	r3, [sp]
8200050c:	e3a0300f 	mov	r3, #15
82000510:	e3a0202a 	mov	r2, #42	; 0x2a
82000514:	e3a01050 	mov	r1, #80	; 0x50
82000518:	ebffff2e 	bl	820001d8 <draw_horizental_line>
8200051c:	e24b0d1e 	sub	r0, fp, #1920	; 0x780
82000520:	e2400004 	sub	r0, r0, #4
82000524:	e3a03014 	mov	r3, #20
82000528:	e58d3004 	str	r3, [sp, #4]
8200052c:	e3a0303d 	mov	r3, #61	; 0x3d
82000530:	e58d3000 	str	r3, [sp]
82000534:	e3a03014 	mov	r3, #20
82000538:	e3a0202a 	mov	r2, #42	; 0x2a
8200053c:	e3a01050 	mov	r1, #80	; 0x50
82000540:	ebffff24 	bl	820001d8 <draw_horizental_line>
82000544:	e24b0d1e 	sub	r0, fp, #1920	; 0x780
82000548:	e2400004 	sub	r0, r0, #4
8200054c:	e3a03004 	mov	r3, #4
82000550:	e58d3004 	str	r3, [sp, #4]
82000554:	e3a0307c 	mov	r3, #124	; 0x7c
82000558:	e58d3000 	str	r3, [sp]
8200055c:	e3a0300b 	mov	r3, #11
82000560:	e3a02029 	mov	r2, #41	; 0x29
82000564:	e3a01050 	mov	r1, #80	; 0x50
82000568:	ebffff3e 	bl	82000268 <draw_vertical_line>
8200056c:	e24b0d1e 	sub	r0, fp, #1920	; 0x780
82000570:	e2400004 	sub	r0, r0, #4
82000574:	e3a03004 	mov	r3, #4
82000578:	e58d3004 	str	r3, [sp, #4]
8200057c:	e3a0307c 	mov	r3, #124	; 0x7c
82000580:	e58d3000 	str	r3, [sp]
82000584:	e3a03010 	mov	r3, #16
82000588:	e3a0203d 	mov	r2, #61	; 0x3d
8200058c:	e3a01050 	mov	r1, #80	; 0x50
82000590:	ebffff34 	bl	82000268 <draw_vertical_line>
82000594:	e24b0d1e 	sub	r0, fp, #1920	; 0x780
82000598:	e2400004 	sub	r0, r0, #4
8200059c:	e3a0300a 	mov	r3, #10
820005a0:	e3a02050 	mov	r2, #80	; 0x50
820005a4:	e3a01018 	mov	r1, #24
820005a8:	ebffff76 	bl	82000388 <draw_last_pix_every_line>
820005ac:	e24b0d1e 	sub	r0, fp, #1920	; 0x780
820005b0:	e2400004 	sub	r0, r0, #4
820005b4:	e3a03018 	mov	r3, #24
820005b8:	e58d3004 	str	r3, [sp, #4]
820005bc:	e3a0300d 	mov	r3, #13
820005c0:	e58d3000 	str	r3, [sp]
820005c4:	e3a03000 	mov	r3, #0
820005c8:	e3a0204e 	mov	r2, #78	; 0x4e
820005cc:	e3a01050 	mov	r1, #80	; 0x50
820005d0:	ebffff24 	bl	82000268 <draw_vertical_line>
820005d4:	e24b3d1e 	sub	r3, fp, #1920	; 0x780
820005d8:	e2433004 	sub	r3, r3, #4
820005dc:	e3a02d1e 	mov	r2, #1920	; 0x780
820005e0:	e1a01003 	mov	r1, r3
820005e4:	e3a00001 	mov	r0, #1
820005e8:	eb0020f7 	bl	820089cc <__write>
820005ec:	e320f000 	nop	{0}
820005f0:	e24bd004 	sub	sp, fp, #4
820005f4:	e8bd8800 	pop	{fp, pc}

820005f8 <print_LR>:
820005f8:	e92d4800 	push	{fp, lr}
820005fc:	e28db004 	add	fp, sp, #4
82000600:	e24dd008 	sub	sp, sp, #8
82000604:	e50b0008 	str	r0, [fp, #-8]
82000608:	e51b1008 	ldr	r1, [fp, #-8]
8200060c:	e3080ec8 	movw	r0, #36552	; 0x8ec8
82000610:	e3480200 	movt	r0, #33280	; 0x8200
82000614:	eb00118a 	bl	82004c44 <printk>
82000618:	eafffffe 	b	82000618 <print_LR+0x20>

8200061c <print_SP>:
8200061c:	e92d4800 	push	{fp, lr}
82000620:	e28db004 	add	fp, sp, #4
82000624:	e24dd008 	sub	sp, sp, #8
82000628:	e50b0008 	str	r0, [fp, #-8]
8200062c:	e51b1008 	ldr	r1, [fp, #-8]
82000630:	e3080ed4 	movw	r0, #36564	; 0x8ed4
82000634:	e3480200 	movt	r0, #33280	; 0x8200
82000638:	eb001181 	bl	82004c44 <printk>
8200063c:	e320f000 	nop	{0}
82000640:	e24bd004 	sub	sp, fp, #4
82000644:	e8bd8800 	pop	{fp, pc}

82000648 <print_here>:
82000648:	e92d4800 	push	{fp, lr}
8200064c:	e28db004 	add	fp, sp, #4
82000650:	e3080ee0 	movw	r0, #36576	; 0x8ee0
82000654:	e3480200 	movt	r0, #33280	; 0x8200
82000658:	eb001179 	bl	82004c44 <printk>
8200065c:	e320f000 	nop	{0}
82000660:	e8bd8800 	pop	{fp, pc}

82000664 <print_cpsr>:
82000664:	e92d4800 	push	{fp, lr}
82000668:	e28db004 	add	fp, sp, #4
8200066c:	eb0015ef 	bl	82005e30 <READ_CPSR>
82000670:	e1a03000 	mov	r3, r0
82000674:	e1a01003 	mov	r1, r3
82000678:	e3080ee8 	movw	r0, #36584	; 0x8ee8
8200067c:	e3480200 	movt	r0, #33280	; 0x8200
82000680:	eb00116f 	bl	82004c44 <printk>
82000684:	e320f000 	nop	{0}
82000688:	e8bd8800 	pop	{fp, pc}

8200068c <stackDisplay>:
8200068c:	e92d4800 	push	{fp, lr}
82000690:	e28db004 	add	fp, sp, #4
82000694:	e24dd010 	sub	sp, sp, #16
82000698:	e50b0010 	str	r0, [fp, #-16]
8200069c:	e50b1014 	str	r1, [fp, #-20]	; 0xffffffec
820006a0:	e51b3010 	ldr	r3, [fp, #-16]
820006a4:	e50b300c 	str	r3, [fp, #-12]
820006a8:	e3a03000 	mov	r3, #0
820006ac:	e50b3008 	str	r3, [fp, #-8]
820006b0:	ea000011 	b	820006fc <stackDisplay+0x70>
820006b4:	e51b3008 	ldr	r3, [fp, #-8]
820006b8:	e1a03103 	lsl	r3, r3, #2
820006bc:	e2633000 	rsb	r3, r3, #0
820006c0:	e51b200c 	ldr	r2, [fp, #-12]
820006c4:	e0821003 	add	r1, r2, r3
820006c8:	e51b3008 	ldr	r3, [fp, #-8]
820006cc:	e1a03103 	lsl	r3, r3, #2
820006d0:	e2633000 	rsb	r3, r3, #0
820006d4:	e51b200c 	ldr	r2, [fp, #-12]
820006d8:	e0823003 	add	r3, r2, r3
820006dc:	e5933000 	ldr	r3, [r3]
820006e0:	e1a02003 	mov	r2, r3
820006e4:	e3080ef8 	movw	r0, #36600	; 0x8ef8
820006e8:	e3480200 	movt	r0, #33280	; 0x8200
820006ec:	eb001154 	bl	82004c44 <printk>
820006f0:	e51b3008 	ldr	r3, [fp, #-8]
820006f4:	e2833001 	add	r3, r3, #1
820006f8:	e50b3008 	str	r3, [fp, #-8]
820006fc:	e51b2008 	ldr	r2, [fp, #-8]
82000700:	e51b3014 	ldr	r3, [fp, #-20]	; 0xffffffec
82000704:	e1520003 	cmp	r2, r3
82000708:	baffffe9 	blt	820006b4 <stackDisplay+0x28>
8200070c:	e320f000 	nop	{0}
82000710:	e320f000 	nop	{0}
82000714:	e24bd004 	sub	sp, fp, #4
82000718:	e8bd8800 	pop	{fp, pc}

8200071c <readCpsrMode>:
8200071c:	e92d4800 	push	{fp, lr}
82000720:	e28db004 	add	fp, sp, #4
82000724:	e24dd008 	sub	sp, sp, #8
82000728:	eb0015c0 	bl	82005e30 <READ_CPSR>
8200072c:	e1a03000 	mov	r3, r0
82000730:	e50b3008 	str	r3, [fp, #-8]
82000734:	e51b3008 	ldr	r3, [fp, #-8]
82000738:	e203301f 	and	r3, r3, #31
8200073c:	e50b300c 	str	r3, [fp, #-12]
82000740:	e51b300c 	ldr	r3, [fp, #-12]
82000744:	e2433010 	sub	r3, r3, #16
82000748:	e353000f 	cmp	r3, #15
8200074c:	979ff103 	ldrls	pc, [pc, r3, lsl #2]
82000750:	ea000023 	b	820007e4 <readCpsrMode+0xc8>
82000754:	82000794 	andhi	r0, r0, #148, 14	; 0x2500000
82000758:	820007e4 	andhi	r0, r0, #228, 14	; 0x3900000
8200075c:	820007bc 	andhi	r0, r0, #188, 14	; 0x2f00000
82000760:	820007d0 	andhi	r0, r0, #208, 14	; 0x3400000
82000764:	820007e4 	andhi	r0, r0, #228, 14	; 0x3900000
82000768:	820007e4 	andhi	r0, r0, #228, 14	; 0x3900000
8200076c:	820007e4 	andhi	r0, r0, #228, 14	; 0x3900000
82000770:	820007e4 	andhi	r0, r0, #228, 14	; 0x3900000
82000774:	820007e4 	andhi	r0, r0, #228, 14	; 0x3900000
82000778:	820007e4 	andhi	r0, r0, #228, 14	; 0x3900000
8200077c:	820007e4 	andhi	r0, r0, #228, 14	; 0x3900000
82000780:	820007e4 	andhi	r0, r0, #228, 14	; 0x3900000
82000784:	820007e4 	andhi	r0, r0, #228, 14	; 0x3900000
82000788:	820007e4 	andhi	r0, r0, #228, 14	; 0x3900000
8200078c:	820007e4 	andhi	r0, r0, #228, 14	; 0x3900000
82000790:	820007a8 	andhi	r0, r0, #168, 14	; 0x2a00000
82000794:	e51b100c 	ldr	r1, [fp, #-12]
82000798:	e3080f1c 	movw	r0, #36636	; 0x8f1c
8200079c:	e3480200 	movt	r0, #33280	; 0x8200
820007a0:	eb001127 	bl	82004c44 <printk>
820007a4:	ea00000f 	b	820007e8 <readCpsrMode+0xcc>
820007a8:	e51b100c 	ldr	r1, [fp, #-12]
820007ac:	e3080f40 	movw	r0, #36672	; 0x8f40
820007b0:	e3480200 	movt	r0, #33280	; 0x8200
820007b4:	eb001122 	bl	82004c44 <printk>
820007b8:	ea00000a 	b	820007e8 <readCpsrMode+0xcc>
820007bc:	e51b100c 	ldr	r1, [fp, #-12]
820007c0:	e3080f68 	movw	r0, #36712	; 0x8f68
820007c4:	e3480200 	movt	r0, #33280	; 0x8200
820007c8:	eb00111d 	bl	82004c44 <printk>
820007cc:	ea000005 	b	820007e8 <readCpsrMode+0xcc>
820007d0:	e51b100c 	ldr	r1, [fp, #-12]
820007d4:	e3080f8c 	movw	r0, #36748	; 0x8f8c
820007d8:	e3480200 	movt	r0, #33280	; 0x8200
820007dc:	eb001118 	bl	82004c44 <printk>
820007e0:	ea000000 	b	820007e8 <readCpsrMode+0xcc>
820007e4:	e320f000 	nop	{0}
820007e8:	e51b300c 	ldr	r3, [fp, #-12]
820007ec:	e1a00003 	mov	r0, r3
820007f0:	e24bd004 	sub	sp, fp, #4
820007f4:	e8bd8800 	pop	{fp, pc}

820007f8 <print_R0_R1_R2_R3>:
820007f8:	e92d4800 	push	{fp, lr}
820007fc:	e28db004 	add	fp, sp, #4
82000800:	e24dd018 	sub	sp, sp, #24
82000804:	e50b0008 	str	r0, [fp, #-8]
82000808:	e50b100c 	str	r1, [fp, #-12]
8200080c:	e50b2010 	str	r2, [fp, #-16]
82000810:	e50b3014 	str	r3, [fp, #-20]	; 0xffffffec
82000814:	e51b3014 	ldr	r3, [fp, #-20]	; 0xffffffec
82000818:	e58d3000 	str	r3, [sp]
8200081c:	e51b3010 	ldr	r3, [fp, #-16]
82000820:	e51b200c 	ldr	r2, [fp, #-12]
82000824:	e51b1008 	ldr	r1, [fp, #-8]
82000828:	e3080fb4 	movw	r0, #36788	; 0x8fb4
8200082c:	e3480200 	movt	r0, #33280	; 0x8200
82000830:	eb001103 	bl	82004c44 <printk>
82000834:	e320f000 	nop	{0}
82000838:	e24bd004 	sub	sp, fp, #4
8200083c:	e8bd8800 	pop	{fp, pc}

82000840 <print_free_area_list_from_head>:
82000840:	e92d4800 	push	{fp, lr}
82000844:	e28db004 	add	fp, sp, #4
82000848:	e24dd008 	sub	sp, sp, #8
8200084c:	e30a30e0 	movw	r3, #41184	; 0xa0e0
82000850:	e3483200 	movt	r3, #33280	; 0x8200
82000854:	e5933000 	ldr	r3, [r3]
82000858:	e50b3008 	str	r3, [fp, #-8]
8200085c:	e3080fdc 	movw	r0, #36828	; 0x8fdc
82000860:	e3480200 	movt	r0, #33280	; 0x8200
82000864:	eb0010f6 	bl	82004c44 <printk>
82000868:	e3a03000 	mov	r3, #0
8200086c:	e50b300c 	str	r3, [fp, #-12]
82000870:	ea000017 	b	820008d4 <print_free_area_list_from_head+0x94>
82000874:	e51b3008 	ldr	r3, [fp, #-8]
82000878:	e5933010 	ldr	r3, [r3, #16]
8200087c:	e1a01003 	mov	r1, r3
82000880:	e3080ff8 	movw	r0, #36856	; 0x8ff8
82000884:	e3480200 	movt	r0, #33280	; 0x8200
82000888:	eb0010ed 	bl	82004c44 <printk>
8200088c:	e51b3008 	ldr	r3, [fp, #-8]
82000890:	e593300c 	ldr	r3, [r3, #12]
82000894:	e1a01003 	mov	r1, r3
82000898:	e3090000 	movw	r0, #36864	; 0x9000
8200089c:	e3480200 	movt	r0, #33280	; 0x8200
820008a0:	eb0010e7 	bl	82004c44 <printk>
820008a4:	e51b3008 	ldr	r3, [fp, #-8]
820008a8:	e5933008 	ldr	r3, [r3, #8]
820008ac:	e1a01003 	mov	r1, r3
820008b0:	e3090014 	movw	r0, #36884	; 0x9014
820008b4:	e3480200 	movt	r0, #33280	; 0x8200
820008b8:	eb0010e1 	bl	82004c44 <printk>
820008bc:	e51b3008 	ldr	r3, [fp, #-8]
820008c0:	e5933000 	ldr	r3, [r3]
820008c4:	e50b3008 	str	r3, [fp, #-8]
820008c8:	e51b300c 	ldr	r3, [fp, #-12]
820008cc:	e2833001 	add	r3, r3, #1
820008d0:	e50b300c 	str	r3, [fp, #-12]
820008d4:	e51b300c 	ldr	r3, [fp, #-12]
820008d8:	e3530009 	cmp	r3, #9
820008dc:	daffffe4 	ble	82000874 <print_free_area_list_from_head+0x34>
820008e0:	e320f000 	nop	{0}
820008e4:	e320f000 	nop	{0}
820008e8:	e24bd004 	sub	sp, fp, #4
820008ec:	e8bd8800 	pop	{fp, pc}

820008f0 <print_free_area_list_from_end>:
820008f0:	e92d4800 	push	{fp, lr}
820008f4:	e28db004 	add	fp, sp, #4
820008f8:	e24dd010 	sub	sp, sp, #16
820008fc:	e30a30e0 	movw	r3, #41184	; 0xa0e0
82000900:	e3483200 	movt	r3, #33280	; 0x8200
82000904:	e5933000 	ldr	r3, [r3]
82000908:	e50b3008 	str	r3, [fp, #-8]
8200090c:	ea000002 	b	8200091c <print_free_area_list_from_end+0x2c>
82000910:	e51b3008 	ldr	r3, [fp, #-8]
82000914:	e5933000 	ldr	r3, [r3]
82000918:	e50b3008 	str	r3, [fp, #-8]
8200091c:	e51b3008 	ldr	r3, [fp, #-8]
82000920:	e5933000 	ldr	r3, [r3]
82000924:	e3530000 	cmp	r3, #0
82000928:	1afffff8 	bne	82000910 <print_free_area_list_from_end+0x20>
8200092c:	e51b3008 	ldr	r3, [fp, #-8]
82000930:	e50b300c 	str	r3, [fp, #-12]
82000934:	e309002c 	movw	r0, #36908	; 0x902c
82000938:	e3480200 	movt	r0, #33280	; 0x8200
8200093c:	eb0010c0 	bl	82004c44 <printk>
82000940:	e3a03000 	mov	r3, #0
82000944:	e50b3010 	str	r3, [fp, #-16]
82000948:	ea000017 	b	820009ac <print_free_area_list_from_end+0xbc>
8200094c:	e51b300c 	ldr	r3, [fp, #-12]
82000950:	e5933010 	ldr	r3, [r3, #16]
82000954:	e1a01003 	mov	r1, r3
82000958:	e3080ff8 	movw	r0, #36856	; 0x8ff8
8200095c:	e3480200 	movt	r0, #33280	; 0x8200
82000960:	eb0010b7 	bl	82004c44 <printk>
82000964:	e51b300c 	ldr	r3, [fp, #-12]
82000968:	e593300c 	ldr	r3, [r3, #12]
8200096c:	e1a01003 	mov	r1, r3
82000970:	e3090000 	movw	r0, #36864	; 0x9000
82000974:	e3480200 	movt	r0, #33280	; 0x8200
82000978:	eb0010b1 	bl	82004c44 <printk>
8200097c:	e51b300c 	ldr	r3, [fp, #-12]
82000980:	e5933008 	ldr	r3, [r3, #8]
82000984:	e1a01003 	mov	r1, r3
82000988:	e3090014 	movw	r0, #36884	; 0x9014
8200098c:	e3480200 	movt	r0, #33280	; 0x8200
82000990:	eb0010ab 	bl	82004c44 <printk>
82000994:	e51b300c 	ldr	r3, [fp, #-12]
82000998:	e5933004 	ldr	r3, [r3, #4]
8200099c:	e50b300c 	str	r3, [fp, #-12]
820009a0:	e51b3010 	ldr	r3, [fp, #-16]
820009a4:	e2833001 	add	r3, r3, #1
820009a8:	e50b3010 	str	r3, [fp, #-16]
820009ac:	e51b3010 	ldr	r3, [fp, #-16]
820009b0:	e3530009 	cmp	r3, #9
820009b4:	daffffe4 	ble	8200094c <print_free_area_list_from_end+0x5c>
820009b8:	e320f000 	nop	{0}
820009bc:	e320f000 	nop	{0}
820009c0:	e24bd004 	sub	sp, fp, #4
820009c4:	e8bd8800 	pop	{fp, pc}

820009c8 <print_inuse_area_list_from_head>:
820009c8:	e92d4800 	push	{fp, lr}
820009cc:	e28db004 	add	fp, sp, #4
820009d0:	e24dd008 	sub	sp, sp, #8
820009d4:	e30a30e4 	movw	r3, #41188	; 0xa0e4
820009d8:	e3483200 	movt	r3, #33280	; 0x8200
820009dc:	e5933000 	ldr	r3, [r3]
820009e0:	e50b3008 	str	r3, [fp, #-8]
820009e4:	e3090048 	movw	r0, #36936	; 0x9048
820009e8:	e3480200 	movt	r0, #33280	; 0x8200
820009ec:	eb001094 	bl	82004c44 <printk>
820009f0:	e3a03000 	mov	r3, #0
820009f4:	e50b300c 	str	r3, [fp, #-12]
820009f8:	ea00001b 	b	82000a6c <print_inuse_area_list_from_head+0xa4>
820009fc:	e51b3008 	ldr	r3, [fp, #-8]
82000a00:	e5933010 	ldr	r3, [r3, #16]
82000a04:	e1a01003 	mov	r1, r3
82000a08:	e3080ff8 	movw	r0, #36856	; 0x8ff8
82000a0c:	e3480200 	movt	r0, #33280	; 0x8200
82000a10:	eb00108b 	bl	82004c44 <printk>
82000a14:	e51b3008 	ldr	r3, [fp, #-8]
82000a18:	e593300c 	ldr	r3, [r3, #12]
82000a1c:	e1a01003 	mov	r1, r3
82000a20:	e3090000 	movw	r0, #36864	; 0x9000
82000a24:	e3480200 	movt	r0, #33280	; 0x8200
82000a28:	eb001085 	bl	82004c44 <printk>
82000a2c:	e51b3008 	ldr	r3, [fp, #-8]
82000a30:	e5933008 	ldr	r3, [r3, #8]
82000a34:	e1a01003 	mov	r1, r3
82000a38:	e3090014 	movw	r0, #36884	; 0x9014
82000a3c:	e3480200 	movt	r0, #33280	; 0x8200
82000a40:	eb00107f 	bl	82004c44 <printk>
82000a44:	e51b3008 	ldr	r3, [fp, #-8]
82000a48:	e5933000 	ldr	r3, [r3]
82000a4c:	e3530000 	cmp	r3, #0
82000a50:	0a000009 	beq	82000a7c <print_inuse_area_list_from_head+0xb4>
82000a54:	e51b3008 	ldr	r3, [fp, #-8]
82000a58:	e5933000 	ldr	r3, [r3]
82000a5c:	e50b3008 	str	r3, [fp, #-8]
82000a60:	e51b300c 	ldr	r3, [fp, #-12]
82000a64:	e2833001 	add	r3, r3, #1
82000a68:	e50b300c 	str	r3, [fp, #-12]
82000a6c:	e51b300c 	ldr	r3, [fp, #-12]
82000a70:	e3530009 	cmp	r3, #9
82000a74:	daffffe0 	ble	820009fc <print_inuse_area_list_from_head+0x34>
82000a78:	ea000000 	b	82000a80 <print_inuse_area_list_from_head+0xb8>
82000a7c:	e320f000 	nop	{0}
82000a80:	e320f000 	nop	{0}
82000a84:	e24bd004 	sub	sp, fp, #4
82000a88:	e8bd8800 	pop	{fp, pc}

82000a8c <print_from_blk_head>:
82000a8c:	e92d4800 	push	{fp, lr}
82000a90:	e28db004 	add	fp, sp, #4
82000a94:	e24dd010 	sub	sp, sp, #16
82000a98:	e50b0010 	str	r0, [fp, #-16]
82000a9c:	e51b3010 	ldr	r3, [fp, #-16]
82000aa0:	e5933020 	ldr	r3, [r3, #32]
82000aa4:	e50b3008 	str	r3, [fp, #-8]
82000aa8:	ea000009 	b	82000ad4 <print_from_blk_head+0x48>
82000aac:	e51b3008 	ldr	r3, [fp, #-8]
82000ab0:	e593300c 	ldr	r3, [r3, #12]
82000ab4:	e1a02003 	mov	r2, r3
82000ab8:	e51b1008 	ldr	r1, [fp, #-8]
82000abc:	e309005c 	movw	r0, #36956	; 0x905c
82000ac0:	e3480200 	movt	r0, #33280	; 0x8200
82000ac4:	eb00105e 	bl	82004c44 <printk>
82000ac8:	e51b3008 	ldr	r3, [fp, #-8]
82000acc:	e5933004 	ldr	r3, [r3, #4]
82000ad0:	e50b3008 	str	r3, [fp, #-8]
82000ad4:	e51b3008 	ldr	r3, [fp, #-8]
82000ad8:	e5933004 	ldr	r3, [r3, #4]
82000adc:	e3530000 	cmp	r3, #0
82000ae0:	1afffff1 	bne	82000aac <print_from_blk_head+0x20>
82000ae4:	e51b3008 	ldr	r3, [fp, #-8]
82000ae8:	e593300c 	ldr	r3, [r3, #12]
82000aec:	e1a02003 	mov	r2, r3
82000af0:	e51b1008 	ldr	r1, [fp, #-8]
82000af4:	e309005c 	movw	r0, #36956	; 0x905c
82000af8:	e3480200 	movt	r0, #33280	; 0x8200
82000afc:	eb001050 	bl	82004c44 <printk>
82000b00:	e320f000 	nop	{0}
82000b04:	e24bd004 	sub	sp, fp, #4
82000b08:	e8bd8800 	pop	{fp, pc}

82000b0c <test_sys_getsubdir_and_getfdir>:
82000b0c:	e92d4800 	push	{fp, lr}
82000b10:	e28db004 	add	fp, sp, #4
82000b14:	e24dd068 	sub	sp, sp, #104	; 0x68
82000b18:	e24b305c 	sub	r3, fp, #92	; 0x5c
82000b1c:	e3a02050 	mov	r2, #80	; 0x50
82000b20:	e3a01000 	mov	r1, #0
82000b24:	e1a00003 	mov	r0, r3
82000b28:	eb000823 	bl	82002bbc <_memset>
82000b2c:	e24b305c 	sub	r3, fp, #92	; 0x5c
82000b30:	e3a01050 	mov	r1, #80	; 0x50
82000b34:	e1a00003 	mov	r0, r3
82000b38:	eb001fe7 	bl	82008adc <__getsubdir>
82000b3c:	e1a03000 	mov	r3, r0
82000b40:	e3530000 	cmp	r3, #0
82000b44:	aa000002 	bge	82000b54 <test_sys_getsubdir_and_getfdir+0x48>
82000b48:	e3090074 	movw	r0, #36980	; 0x9074
82000b4c:	e3480200 	movt	r0, #33280	; 0x8200
82000b50:	eb00103b 	bl	82004c44 <printk>
82000b54:	e24b305c 	sub	r3, fp, #92	; 0x5c
82000b58:	e1a00003 	mov	r0, r3
82000b5c:	eb001502 	bl	82005f6c <put_str>
82000b60:	e309008c 	movw	r0, #37004	; 0x908c
82000b64:	e3480200 	movt	r0, #33280	; 0x8200
82000b68:	eb0014ff 	bl	82005f6c <put_str>
82000b6c:	e3090090 	movw	r0, #37008	; 0x9090
82000b70:	e3480200 	movt	r0, #33280	; 0x8200
82000b74:	eb001032 	bl	82004c44 <printk>
82000b78:	e30930ac 	movw	r3, #37036	; 0x90ac
82000b7c:	e3483200 	movt	r3, #33280	; 0x8200
82000b80:	e50b300c 	str	r3, [fp, #-12]
82000b84:	e24b305c 	sub	r3, fp, #92	; 0x5c
82000b88:	e50b3008 	str	r3, [fp, #-8]
82000b8c:	ea000012 	b	82000bdc <test_sys_getsubdir_and_getfdir+0xd0>
82000b90:	e24b306c 	sub	r3, fp, #108	; 0x6c
82000b94:	e3a02010 	mov	r2, #16
82000b98:	e3a01000 	mov	r1, #0
82000b9c:	e1a00003 	mov	r0, r3
82000ba0:	eb000805 	bl	82002bbc <_memset>
82000ba4:	e51b000c 	ldr	r0, [fp, #-12]
82000ba8:	eb0015c1 	bl	820062b4 <_strlen>
82000bac:	e1a02000 	mov	r2, r0
82000bb0:	e24b306c 	sub	r3, fp, #108	; 0x6c
82000bb4:	e51b100c 	ldr	r1, [fp, #-12]
82000bb8:	e51b0008 	ldr	r0, [fp, #-8]
82000bbc:	eb00166c 	bl	82006574 <strtok_fst>
82000bc0:	e50b0008 	str	r0, [fp, #-8]
82000bc4:	e30900b0 	movw	r0, #37040	; 0x90b0
82000bc8:	e3480200 	movt	r0, #33280	; 0x8200
82000bcc:	eb0014e6 	bl	82005f6c <put_str>
82000bd0:	e24b306c 	sub	r3, fp, #108	; 0x6c
82000bd4:	e1a00003 	mov	r0, r3
82000bd8:	eb0014e3 	bl	82005f6c <put_str>
82000bdc:	e51b3008 	ldr	r3, [fp, #-8]
82000be0:	e3530000 	cmp	r3, #0
82000be4:	1affffe9 	bne	82000b90 <test_sys_getsubdir_and_getfdir+0x84>
82000be8:	e30900b4 	movw	r0, #37044	; 0x90b4
82000bec:	e3480200 	movt	r0, #33280	; 0x8200
82000bf0:	eb001013 	bl	82004c44 <printk>
82000bf4:	e24b305c 	sub	r3, fp, #92	; 0x5c
82000bf8:	e3a02050 	mov	r2, #80	; 0x50
82000bfc:	e3a01000 	mov	r1, #0
82000c00:	e1a00003 	mov	r0, r3
82000c04:	eb0007ec 	bl	82002bbc <_memset>
82000c08:	e24b305c 	sub	r3, fp, #92	; 0x5c
82000c0c:	e3a01050 	mov	r1, #80	; 0x50
82000c10:	e1a00003 	mov	r0, r3
82000c14:	eb001fca 	bl	82008b44 <__getfdir>
82000c18:	e1a03000 	mov	r3, r0
82000c1c:	e3530000 	cmp	r3, #0
82000c20:	aa000002 	bge	82000c30 <test_sys_getsubdir_and_getfdir+0x124>
82000c24:	e3090074 	movw	r0, #36980	; 0x9074
82000c28:	e3480200 	movt	r0, #33280	; 0x8200
82000c2c:	eb001004 	bl	82004c44 <printk>
82000c30:	e24b305c 	sub	r3, fp, #92	; 0x5c
82000c34:	e1a00003 	mov	r0, r3
82000c38:	eb0014cb 	bl	82005f6c <put_str>
82000c3c:	e309008c 	movw	r0, #37004	; 0x908c
82000c40:	e3480200 	movt	r0, #33280	; 0x8200
82000c44:	eb0014c8 	bl	82005f6c <put_str>
82000c48:	e30900d0 	movw	r0, #37072	; 0x90d0
82000c4c:	e3480200 	movt	r0, #33280	; 0x8200
82000c50:	eb000ffb 	bl	82004c44 <printk>
82000c54:	e24b305c 	sub	r3, fp, #92	; 0x5c
82000c58:	e50b3008 	str	r3, [fp, #-8]
82000c5c:	ea000012 	b	82000cac <test_sys_getsubdir_and_getfdir+0x1a0>
82000c60:	e24b306c 	sub	r3, fp, #108	; 0x6c
82000c64:	e3a02010 	mov	r2, #16
82000c68:	e3a01000 	mov	r1, #0
82000c6c:	e1a00003 	mov	r0, r3
82000c70:	eb0007d1 	bl	82002bbc <_memset>
82000c74:	e51b000c 	ldr	r0, [fp, #-12]
82000c78:	eb00158d 	bl	820062b4 <_strlen>
82000c7c:	e1a02000 	mov	r2, r0
82000c80:	e24b306c 	sub	r3, fp, #108	; 0x6c
82000c84:	e51b100c 	ldr	r1, [fp, #-12]
82000c88:	e51b0008 	ldr	r0, [fp, #-8]
82000c8c:	eb001638 	bl	82006574 <strtok_fst>
82000c90:	e50b0008 	str	r0, [fp, #-8]
82000c94:	e30900b0 	movw	r0, #37040	; 0x90b0
82000c98:	e3480200 	movt	r0, #33280	; 0x8200
82000c9c:	eb0014b2 	bl	82005f6c <put_str>
82000ca0:	e24b306c 	sub	r3, fp, #108	; 0x6c
82000ca4:	e1a00003 	mov	r0, r3
82000ca8:	eb0014af 	bl	82005f6c <put_str>
82000cac:	e51b3008 	ldr	r3, [fp, #-8]
82000cb0:	e3530000 	cmp	r3, #0
82000cb4:	1affffe9 	bne	82000c60 <test_sys_getsubdir_and_getfdir+0x154>
82000cb8:	e30900e8 	movw	r0, #37096	; 0x90e8
82000cbc:	e3480200 	movt	r0, #33280	; 0x8200
82000cc0:	eb000fdf 	bl	82004c44 <printk>
82000cc4:	e320f000 	nop	{0}
82000cc8:	e24bd004 	sub	sp, fp, #4
82000ccc:	e8bd8800 	pop	{fp, pc}

82000cd0 <test_sys_chdir>:
82000cd0:	e92d4800 	push	{fp, lr}
82000cd4:	e28db004 	add	fp, sp, #4
82000cd8:	e3090100 	movw	r0, #37120	; 0x9100
82000cdc:	e3480200 	movt	r0, #33280	; 0x8200
82000ce0:	eb0014a1 	bl	82005f6c <put_str>
82000ce4:	ebfffcc5 	bl	82000000 <lsdir>
82000ce8:	e309011c 	movw	r0, #37148	; 0x911c
82000cec:	e3480200 	movt	r0, #33280	; 0x8200
82000cf0:	eb00149d 	bl	82005f6c <put_str>
82000cf4:	e3090134 	movw	r0, #37172	; 0x9134
82000cf8:	e3480200 	movt	r0, #33280	; 0x8200
82000cfc:	eb001faa 	bl	82008bac <__chdir>
82000d00:	e1a03000 	mov	r3, r0
82000d04:	e3530000 	cmp	r3, #0
82000d08:	aa000002 	bge	82000d18 <test_sys_chdir+0x48>
82000d0c:	e309013c 	movw	r0, #37180	; 0x913c
82000d10:	e3480200 	movt	r0, #33280	; 0x8200
82000d14:	eb001494 	bl	82005f6c <put_str>
82000d18:	ebfffcb8 	bl	82000000 <lsdir>
82000d1c:	e309011c 	movw	r0, #37148	; 0x911c
82000d20:	e3480200 	movt	r0, #33280	; 0x8200
82000d24:	eb001490 	bl	82005f6c <put_str>
82000d28:	e3090150 	movw	r0, #37200	; 0x9150
82000d2c:	e3480200 	movt	r0, #33280	; 0x8200
82000d30:	eb001f9d 	bl	82008bac <__chdir>
82000d34:	e1a03000 	mov	r3, r0
82000d38:	e3530000 	cmp	r3, #0
82000d3c:	aa000002 	bge	82000d4c <test_sys_chdir+0x7c>
82000d40:	e309013c 	movw	r0, #37180	; 0x913c
82000d44:	e3480200 	movt	r0, #33280	; 0x8200
82000d48:	eb001487 	bl	82005f6c <put_str>
82000d4c:	ebfffcab 	bl	82000000 <lsdir>
82000d50:	e309011c 	movw	r0, #37148	; 0x911c
82000d54:	e3480200 	movt	r0, #33280	; 0x8200
82000d58:	eb001483 	bl	82005f6c <put_str>
82000d5c:	e3090150 	movw	r0, #37200	; 0x9150
82000d60:	e3480200 	movt	r0, #33280	; 0x8200
82000d64:	eb001f90 	bl	82008bac <__chdir>
82000d68:	e1a03000 	mov	r3, r0
82000d6c:	e3530000 	cmp	r3, #0
82000d70:	aa000002 	bge	82000d80 <test_sys_chdir+0xb0>
82000d74:	e309013c 	movw	r0, #37180	; 0x913c
82000d78:	e3480200 	movt	r0, #33280	; 0x8200
82000d7c:	eb00147a 	bl	82005f6c <put_str>
82000d80:	e3090154 	movw	r0, #37204	; 0x9154
82000d84:	e3480200 	movt	r0, #33280	; 0x8200
82000d88:	eb001477 	bl	82005f6c <put_str>
82000d8c:	ebfffc9b 	bl	82000000 <lsdir>
82000d90:	e320f000 	nop	{0}
82000d94:	e8bd8800 	pop	{fp, pc}

82000d98 <irq_entry>:
82000d98:	e92d5fff 	push	{r0, r1, r2, r3, r4, r5, r6, r7, r8, r9, sl, fp, ip, lr}
82000d9c:	eb0003e6 	bl	82001d3c <getActivateIrqNum>
82000da0:	e3500042 	cmp	r0, #66	; 0x42
82000da4:	1a000011 	bne	82000df0 <non_ostick_irq>
82000da8:	e8bd5fff 	pop	{r0, r1, r2, r3, r4, r5, r6, r7, r8, r9, sl, fp, ip, lr}
82000dac:	e24ee004 	sub	lr, lr, #4
82000db0:	e1a0900e 	mov	r9, lr
82000db4:	e14fc000 	mrs	ip, SPSR
82000db8:	e59fd0b4 	ldr	sp, [pc, #180]	; 82000e74 <data_abort+0x8>
82000dbc:	e10fa000 	mrs	sl, CPSR
82000dc0:	e3caa01f 	bic	sl, sl, #31
82000dc4:	e38aa01f 	orr	sl, sl, #31
82000dc8:	e38aa0c0 	orr	sl, sl, #192	; 0xc0
82000dcc:	e129f00a 	msr	CPSR_fc, sl
82000dd0:	e92d5fff 	push	{r0, r1, r2, r3, r4, r5, r6, r7, r8, r9, sl, fp, ip, lr}
82000dd4:	e1a0000d 	mov	r0, sp
82000dd8:	e10fa000 	mrs	sl, CPSR
82000ddc:	e3caa01f 	bic	sl, sl, #31
82000de0:	e38aa013 	orr	sl, sl, #19
82000de4:	e38aa0c0 	orr	sl, sl, #192	; 0xc0
82000de8:	e129f00a 	msr	CPSR_fc, sl
82000dec:	eb00052d 	bl	820022a8 <timer0_ISR>

82000df0 <non_ostick_irq>:
82000df0:	e8bd5fff 	pop	{r0, r1, r2, r3, r4, r5, r6, r7, r8, r9, sl, fp, ip, lr}
82000df4:	ea000510 	b	8200223c <irqs_handler>

82000df8 <svc_entry>:
82000df8:	e1a0900e 	mov	r9, lr
82000dfc:	e14fc000 	mrs	ip, SPSR
82000e00:	e10fa000 	mrs	sl, CPSR
82000e04:	e3caa01f 	bic	sl, sl, #31
82000e08:	e38aa01f 	orr	sl, sl, #31
82000e0c:	e38aa0c0 	orr	sl, sl, #192	; 0xc0
82000e10:	e129f00a 	msr	CPSR_fc, sl
82000e14:	e1a0e009 	mov	lr, r9
82000e18:	e92d5fff 	push	{r0, r1, r2, r3, r4, r5, r6, r7, r8, r9, sl, fp, ip, lr}
82000e1c:	e1a0100d 	mov	r1, sp
82000e20:	e10fa000 	mrs	sl, CPSR
82000e24:	e3caa01f 	bic	sl, sl, #31
82000e28:	e38aa013 	orr	sl, sl, #19
82000e2c:	e38aa0c0 	orr	sl, sl, #192	; 0xc0
82000e30:	e129f00a 	msr	CPSR_fc, sl
82000e34:	e92d000f 	push	{r0, r1, r2, r3}
82000e38:	eb00162c 	bl	820066f0 <syscall_handler>
82000e3c:	e8bd000f 	pop	{r0, r1, r2, r3}
82000e40:	e10fa000 	mrs	sl, CPSR
82000e44:	e3caa01f 	bic	sl, sl, #31
82000e48:	e38aa01f 	orr	sl, sl, #31
82000e4c:	e38aa0c0 	orr	sl, sl, #192	; 0xc0
82000e50:	e129f00a 	msr	CPSR_fc, sl
82000e54:	e8bd5fff 	pop	{r0, r1, r2, r3, r4, r5, r6, r7, r8, r9, sl, fp, ip, lr}
82000e58:	e14fa000 	mrs	sl, SPSR
82000e5c:	e129f00a 	msr	CPSR_fc, sl
82000e60:	e12fff3e 	blx	lr

82000e64 <prefetch_abort_entry>:
82000e64:	e1a0000e 	mov	r0, lr
82000e68:	ea00055f 	b	820023ec <prefetch_abort_handler>

82000e6c <data_abort>:
82000e6c:	e1a0000e 	mov	r0, lr
82000e70:	ea0005b9 	b	8200255c <data_abort_handler>
82000e74:	9df41000 	ldclls	0, cr1, [r4]

82000e78 <file_in_ram_init>:
82000e78:	e92d4800 	push	{fp, lr}
82000e7c:	e28db004 	add	fp, sp, #4
82000e80:	e24dd008 	sub	sp, sp, #8
82000e84:	eb00003c 	bl	82000f7c <path_tree_init>
82000e88:	e1a03000 	mov	r3, r0
82000e8c:	e3530000 	cmp	r3, #0
82000e90:	aa000001 	bge	82000e9c <file_in_ram_init+0x24>
82000e94:	e3e03000 	mvn	r3, #0
82000e98:	ea000034 	b	82000f70 <file_in_ram_init+0xf8>
82000e9c:	eb00005b 	bl	82001010 <create_root_path>
82000ea0:	e1a03000 	mov	r3, r0
82000ea4:	e3530000 	cmp	r3, #0
82000ea8:	aa000001 	bge	82000eb4 <file_in_ram_init+0x3c>
82000eac:	e3e03000 	mvn	r3, #0
82000eb0:	ea00002e 	b	82000f70 <file_in_ram_init+0xf8>
82000eb4:	e3093ed4 	movw	r3, #40660	; 0x9ed4
82000eb8:	e3483200 	movt	r3, #33280	; 0x8200
82000ebc:	e5933000 	ldr	r3, [r3]
82000ec0:	e3091170 	movw	r1, #37232	; 0x9170
82000ec4:	e3481200 	movt	r1, #33280	; 0x8200
82000ec8:	e1a00003 	mov	r0, r3
82000ecc:	eb00008c 	bl	82001104 <create_path_node>
82000ed0:	e50b0008 	str	r0, [fp, #-8]
82000ed4:	e51b3008 	ldr	r3, [fp, #-8]
82000ed8:	e3530000 	cmp	r3, #0
82000edc:	1a000001 	bne	82000ee8 <file_in_ram_init+0x70>
82000ee0:	e3e03000 	mvn	r3, #0
82000ee4:	ea000021 	b	82000f70 <file_in_ram_init+0xf8>
82000ee8:	e3093ed4 	movw	r3, #40660	; 0x9ed4
82000eec:	e3483200 	movt	r3, #33280	; 0x8200
82000ef0:	e5933000 	ldr	r3, [r3]
82000ef4:	e3091178 	movw	r1, #37240	; 0x9178
82000ef8:	e3481200 	movt	r1, #33280	; 0x8200
82000efc:	e1a00003 	mov	r0, r3
82000f00:	eb00007f 	bl	82001104 <create_path_node>
82000f04:	e50b000c 	str	r0, [fp, #-12]
82000f08:	e51b300c 	ldr	r3, [fp, #-12]
82000f0c:	e3530000 	cmp	r3, #0
82000f10:	1a000001 	bne	82000f1c <file_in_ram_init+0xa4>
82000f14:	e3e03000 	mvn	r3, #0
82000f18:	ea000014 	b	82000f70 <file_in_ram_init+0xf8>
82000f1c:	e3a02000 	mov	r2, #0
82000f20:	e3091180 	movw	r1, #37248	; 0x9180
82000f24:	e3481200 	movt	r1, #33280	; 0x8200
82000f28:	e51b0008 	ldr	r0, [fp, #-8]
82000f2c:	eb00013a 	bl	8200141c <create_file_under_node>
82000f30:	e3a02001 	mov	r2, #1
82000f34:	e3091190 	movw	r1, #37264	; 0x9190
82000f38:	e3481200 	movt	r1, #33280	; 0x8200
82000f3c:	e51b0008 	ldr	r0, [fp, #-8]
82000f40:	eb000135 	bl	8200141c <create_file_under_node>
82000f44:	e3a02002 	mov	r2, #2
82000f48:	e30911a0 	movw	r1, #37280	; 0x91a0
82000f4c:	e3481200 	movt	r1, #33280	; 0x8200
82000f50:	e51b0008 	ldr	r0, [fp, #-8]
82000f54:	eb000130 	bl	8200141c <create_file_under_node>
82000f58:	e3a02003 	mov	r2, #3
82000f5c:	e30911a8 	movw	r1, #37288	; 0x91a8
82000f60:	e3481200 	movt	r1, #33280	; 0x8200
82000f64:	e51b000c 	ldr	r0, [fp, #-12]
82000f68:	eb00012b 	bl	8200141c <create_file_under_node>
82000f6c:	eb0005d6 	bl	820026cc <ipc_buf_alloc>
82000f70:	e1a00003 	mov	r0, r3
82000f74:	e24bd004 	sub	sp, fp, #4
82000f78:	e8bd8800 	pop	{fp, pc}

82000f7c <path_tree_init>:
82000f7c:	e92d4800 	push	{fp, lr}
82000f80:	e28db004 	add	fp, sp, #4
82000f84:	eb000825 	bl	82003020 <page_alloc>
82000f88:	e1a02000 	mov	r2, r0
82000f8c:	e30a30ec 	movw	r3, #41196	; 0xa0ec
82000f90:	e3483200 	movt	r3, #33280	; 0x8200
82000f94:	e5832000 	str	r2, [r3]
82000f98:	e30a30ec 	movw	r3, #41196	; 0xa0ec
82000f9c:	e3483200 	movt	r3, #33280	; 0x8200
82000fa0:	e5933000 	ldr	r3, [r3]
82000fa4:	e3530000 	cmp	r3, #0
82000fa8:	1a000001 	bne	82000fb4 <path_tree_init+0x38>
82000fac:	e3e03000 	mvn	r3, #0
82000fb0:	ea000014 	b	82001008 <path_tree_init+0x8c>
82000fb4:	e30a30ec 	movw	r3, #41196	; 0xa0ec
82000fb8:	e3483200 	movt	r3, #33280	; 0x8200
82000fbc:	e5933000 	ldr	r3, [r3]
82000fc0:	e5932010 	ldr	r2, [r3, #16]
82000fc4:	e30a30ec 	movw	r3, #41196	; 0xa0ec
82000fc8:	e3483200 	movt	r3, #33280	; 0x8200
82000fcc:	e5832004 	str	r2, [r3, #4]
82000fd0:	e30a30ec 	movw	r3, #41196	; 0xa0ec
82000fd4:	e3483200 	movt	r3, #33280	; 0x8200
82000fd8:	e5933000 	ldr	r3, [r3]
82000fdc:	e3a02002 	mov	r2, #2
82000fe0:	e5832008 	str	r2, [r3, #8]
82000fe4:	e30a30ec 	movw	r3, #41196	; 0xa0ec
82000fe8:	e3483200 	movt	r3, #33280	; 0x8200
82000fec:	e3a02000 	mov	r2, #0
82000ff0:	e5832008 	str	r2, [r3, #8]
82000ff4:	e30a30ec 	movw	r3, #41196	; 0xa0ec
82000ff8:	e3483200 	movt	r3, #33280	; 0x8200
82000ffc:	e3a02000 	mov	r2, #0
82001000:	e583200c 	str	r2, [r3, #12]
82001004:	e3a03000 	mov	r3, #0
82001008:	e1a00003 	mov	r0, r3
8200100c:	e8bd8800 	pop	{fp, pc}

82001010 <create_root_path>:
82001010:	e52db004 	push	{fp}		; (str fp, [sp, #-4]!)
82001014:	e28db000 	add	fp, sp, #0
82001018:	e3093ed4 	movw	r3, #40660	; 0x9ed4
8200101c:	e3483200 	movt	r3, #33280	; 0x8200
82001020:	e5933000 	ldr	r3, [r3]
82001024:	e3530000 	cmp	r3, #0
82001028:	0a000001 	beq	82001034 <create_root_path+0x24>
8200102c:	e3e03000 	mvn	r3, #0
82001030:	ea00002f 	b	820010f4 <create_root_path+0xe4>
82001034:	e30a30ec 	movw	r3, #41196	; 0xa0ec
82001038:	e3483200 	movt	r3, #33280	; 0x8200
8200103c:	e5932004 	ldr	r2, [r3, #4]
82001040:	e3093ed4 	movw	r3, #40660	; 0x9ed4
82001044:	e3483200 	movt	r3, #33280	; 0x8200
82001048:	e5832000 	str	r2, [r3]
8200104c:	e30a30ec 	movw	r3, #41196	; 0xa0ec
82001050:	e3483200 	movt	r3, #33280	; 0x8200
82001054:	e5933004 	ldr	r3, [r3, #4]
82001058:	e2832024 	add	r2, r3, #36	; 0x24
8200105c:	e30a30ec 	movw	r3, #41196	; 0xa0ec
82001060:	e3483200 	movt	r3, #33280	; 0x8200
82001064:	e5832004 	str	r2, [r3, #4]
82001068:	e3093ed4 	movw	r3, #40660	; 0x9ed4
8200106c:	e3483200 	movt	r3, #33280	; 0x8200
82001070:	e5933000 	ldr	r3, [r3]
82001074:	e3a02000 	mov	r2, #0
82001078:	e5832000 	str	r2, [r3]
8200107c:	e3093ed4 	movw	r3, #40660	; 0x9ed4
82001080:	e3483200 	movt	r3, #33280	; 0x8200
82001084:	e5933000 	ldr	r3, [r3]
82001088:	e3a02000 	mov	r2, #0
8200108c:	e5832004 	str	r2, [r3, #4]
82001090:	e3093ed4 	movw	r3, #40660	; 0x9ed4
82001094:	e3483200 	movt	r3, #33280	; 0x8200
82001098:	e5933000 	ldr	r3, [r3]
8200109c:	e3a02000 	mov	r2, #0
820010a0:	e5832008 	str	r2, [r3, #8]
820010a4:	e3093ed4 	movw	r3, #40660	; 0x9ed4
820010a8:	e3483200 	movt	r3, #33280	; 0x8200
820010ac:	e5933000 	ldr	r3, [r3]
820010b0:	e3a02000 	mov	r2, #0
820010b4:	e583200c 	str	r2, [r3, #12]
820010b8:	e3093ed4 	movw	r3, #40660	; 0x9ed4
820010bc:	e3483200 	movt	r3, #33280	; 0x8200
820010c0:	e5932000 	ldr	r2, [r3]
820010c4:	e3093ed4 	movw	r3, #40660	; 0x9ed4
820010c8:	e3483200 	movt	r3, #33280	; 0x8200
820010cc:	e5933000 	ldr	r3, [r3]
820010d0:	e2822010 	add	r2, r2, #16
820010d4:	e5832020 	str	r2, [r3, #32]
820010d8:	e3093ed4 	movw	r3, #40660	; 0x9ed4
820010dc:	e3483200 	movt	r3, #33280	; 0x8200
820010e0:	e5932000 	ldr	r2, [r3]
820010e4:	e30931b0 	movw	r3, #37296	; 0x91b0
820010e8:	e3483200 	movt	r3, #33280	; 0x8200
820010ec:	e5823020 	str	r3, [r2, #32]
820010f0:	e3a03000 	mov	r3, #0
820010f4:	e1a00003 	mov	r0, r3
820010f8:	e28bd000 	add	sp, fp, #0
820010fc:	e49db004 	pop	{fp}		; (ldr fp, [sp], #4)
82001100:	e12fff1e 	bx	lr

82001104 <create_path_node>:
82001104:	e92d4800 	push	{fp, lr}
82001108:	e28db004 	add	fp, sp, #4
8200110c:	e24dd018 	sub	sp, sp, #24
82001110:	e50b0018 	str	r0, [fp, #-24]	; 0xffffffe8
82001114:	e50b101c 	str	r1, [fp, #-28]	; 0xffffffe4
82001118:	e3093ed4 	movw	r3, #40660	; 0x9ed4
8200111c:	e3483200 	movt	r3, #33280	; 0x8200
82001120:	e5933000 	ldr	r3, [r3]
82001124:	e3530000 	cmp	r3, #0
82001128:	0a000002 	beq	82001138 <create_path_node+0x34>
8200112c:	e51b3018 	ldr	r3, [fp, #-24]	; 0xffffffe8
82001130:	e3530000 	cmp	r3, #0
82001134:	1a000001 	bne	82001140 <create_path_node+0x3c>
82001138:	e3a03000 	mov	r3, #0
8200113c:	ea000046 	b	8200125c <create_path_node+0x158>
82001140:	e30a30ec 	movw	r3, #41196	; 0xa0ec
82001144:	e3483200 	movt	r3, #33280	; 0x8200
82001148:	e5933004 	ldr	r3, [r3, #4]
8200114c:	e50b300c 	str	r3, [fp, #-12]
82001150:	e30a30ec 	movw	r3, #41196	; 0xa0ec
82001154:	e3483200 	movt	r3, #33280	; 0x8200
82001158:	e5933004 	ldr	r3, [r3, #4]
8200115c:	e2832024 	add	r2, r3, #36	; 0x24
82001160:	e30a30ec 	movw	r3, #41196	; 0xa0ec
82001164:	e3483200 	movt	r3, #33280	; 0x8200
82001168:	e5832004 	str	r2, [r3, #4]
8200116c:	e51b300c 	ldr	r3, [fp, #-12]
82001170:	e3a02000 	mov	r2, #0
82001174:	e5832000 	str	r2, [r3]
82001178:	e51b300c 	ldr	r3, [fp, #-12]
8200117c:	e51b2018 	ldr	r2, [fp, #-24]	; 0xffffffe8
82001180:	e5832004 	str	r2, [r3, #4]
82001184:	e51b300c 	ldr	r3, [fp, #-12]
82001188:	e3a02000 	mov	r2, #0
8200118c:	e5832008 	str	r2, [r3, #8]
82001190:	e51b300c 	ldr	r3, [fp, #-12]
82001194:	e3a02000 	mov	r2, #0
82001198:	e583200c 	str	r2, [r3, #12]
8200119c:	e51b300c 	ldr	r3, [fp, #-12]
820011a0:	e2833010 	add	r3, r3, #16
820011a4:	e3a02010 	mov	r2, #16
820011a8:	e3a01000 	mov	r1, #0
820011ac:	e1a00003 	mov	r0, r3
820011b0:	eb000681 	bl	82002bbc <_memset>
820011b4:	e51b300c 	ldr	r3, [fp, #-12]
820011b8:	e2832010 	add	r2, r3, #16
820011bc:	e51b300c 	ldr	r3, [fp, #-12]
820011c0:	e5832020 	str	r2, [r3, #32]
820011c4:	e51b300c 	ldr	r3, [fp, #-12]
820011c8:	e5933020 	ldr	r3, [r3, #32]
820011cc:	e50b3008 	str	r3, [fp, #-8]
820011d0:	ea000009 	b	820011fc <create_path_node+0xf8>
820011d4:	e51b301c 	ldr	r3, [fp, #-28]	; 0xffffffe4
820011d8:	e5d32000 	ldrb	r2, [r3]
820011dc:	e51b3008 	ldr	r3, [fp, #-8]
820011e0:	e5c32000 	strb	r2, [r3]
820011e4:	e51b3008 	ldr	r3, [fp, #-8]
820011e8:	e2833001 	add	r3, r3, #1
820011ec:	e50b3008 	str	r3, [fp, #-8]
820011f0:	e51b301c 	ldr	r3, [fp, #-28]	; 0xffffffe4
820011f4:	e2833001 	add	r3, r3, #1
820011f8:	e50b301c 	str	r3, [fp, #-28]	; 0xffffffe4
820011fc:	e51b301c 	ldr	r3, [fp, #-28]	; 0xffffffe4
82001200:	e5d33000 	ldrb	r3, [r3]
82001204:	e3530000 	cmp	r3, #0
82001208:	1afffff1 	bne	820011d4 <create_path_node+0xd0>
8200120c:	e51b300c 	ldr	r3, [fp, #-12]
82001210:	e5933004 	ldr	r3, [r3, #4]
82001214:	e5933000 	ldr	r3, [r3]
82001218:	e3530000 	cmp	r3, #0
8200121c:	0a000009 	beq	82001248 <create_path_node+0x144>
82001220:	e51b300c 	ldr	r3, [fp, #-12]
82001224:	e5933004 	ldr	r3, [r3, #4]
82001228:	e5933000 	ldr	r3, [r3]
8200122c:	e1a00003 	mov	r0, r3
82001230:	eb00000c 	bl	82001268 <find_end_sibling>
82001234:	e50b0010 	str	r0, [fp, #-16]
82001238:	e51b3010 	ldr	r3, [fp, #-16]
8200123c:	e51b200c 	ldr	r2, [fp, #-12]
82001240:	e5832008 	str	r2, [r3, #8]
82001244:	ea000003 	b	82001258 <create_path_node+0x154>
82001248:	e51b300c 	ldr	r3, [fp, #-12]
8200124c:	e5933004 	ldr	r3, [r3, #4]
82001250:	e51b200c 	ldr	r2, [fp, #-12]
82001254:	e5832000 	str	r2, [r3]
82001258:	e51b300c 	ldr	r3, [fp, #-12]
8200125c:	e1a00003 	mov	r0, r3
82001260:	e24bd004 	sub	sp, fp, #4
82001264:	e8bd8800 	pop	{fp, pc}

82001268 <find_end_sibling>:
82001268:	e52db004 	push	{fp}		; (str fp, [sp, #-4]!)
8200126c:	e28db000 	add	fp, sp, #0
82001270:	e24dd014 	sub	sp, sp, #20
82001274:	e50b0010 	str	r0, [fp, #-16]
82001278:	e51b3010 	ldr	r3, [fp, #-16]
8200127c:	e50b3008 	str	r3, [fp, #-8]
82001280:	ea000002 	b	82001290 <find_end_sibling+0x28>
82001284:	e51b3008 	ldr	r3, [fp, #-8]
82001288:	e5933008 	ldr	r3, [r3, #8]
8200128c:	e50b3008 	str	r3, [fp, #-8]
82001290:	e51b3008 	ldr	r3, [fp, #-8]
82001294:	e5933008 	ldr	r3, [r3, #8]
82001298:	e3530000 	cmp	r3, #0
8200129c:	1afffff8 	bne	82001284 <find_end_sibling+0x1c>
820012a0:	e51b3008 	ldr	r3, [fp, #-8]
820012a4:	e1a00003 	mov	r0, r3
820012a8:	e28bd000 	add	sp, fp, #0
820012ac:	e49db004 	pop	{fp}		; (ldr fp, [sp], #4)
820012b0:	e12fff1e 	bx	lr

820012b4 <print_under_node>:
820012b4:	e92d4810 	push	{r4, fp, lr}
820012b8:	e28db008 	add	fp, sp, #8
820012bc:	e24dd014 	sub	sp, sp, #20
820012c0:	e50b0018 	str	r0, [fp, #-24]	; 0xffffffe8
820012c4:	e51b3018 	ldr	r3, [fp, #-24]	; 0xffffffe8
820012c8:	e3530000 	cmp	r3, #0
820012cc:	0a00003c 	beq	820013c4 <print_under_node+0x110>
820012d0:	e51b3018 	ldr	r3, [fp, #-24]	; 0xffffffe8
820012d4:	e5933000 	ldr	r3, [r3]
820012d8:	e50b3010 	str	r3, [fp, #-16]
820012dc:	e51b3018 	ldr	r3, [fp, #-24]	; 0xffffffe8
820012e0:	e593300c 	ldr	r3, [r3, #12]
820012e4:	e50b3014 	str	r3, [fp, #-20]	; 0xffffffec
820012e8:	ea000016 	b	82001348 <print_under_node+0x94>
820012ec:	e51b3010 	ldr	r3, [fp, #-16]
820012f0:	e5934020 	ldr	r4, [r3, #32]
820012f4:	e51b3010 	ldr	r3, [fp, #-16]
820012f8:	e5933020 	ldr	r3, [r3, #32]
820012fc:	e1a00003 	mov	r0, r3
82001300:	eb0013eb 	bl	820062b4 <_strlen>
82001304:	e1a03000 	mov	r3, r0
82001308:	e1a02003 	mov	r2, r3
8200130c:	e1a01004 	mov	r1, r4
82001310:	e3a00a09 	mov	r0, #36864	; 0x9000
82001314:	e34404e0 	movt	r0, #17632	; 0x44e0
82001318:	eb001c9c 	bl	82008590 <uart_tx_str>
8200131c:	e3a0100d 	mov	r1, #13
82001320:	e3a00a09 	mov	r0, #36864	; 0x9000
82001324:	e34404e0 	movt	r0, #17632	; 0x44e0
82001328:	eb001c73 	bl	820084fc <uart_putC>
8200132c:	e3a0100a 	mov	r1, #10
82001330:	e3a00a09 	mov	r0, #36864	; 0x9000
82001334:	e34404e0 	movt	r0, #17632	; 0x44e0
82001338:	eb001c6f 	bl	820084fc <uart_putC>
8200133c:	e51b3010 	ldr	r3, [fp, #-16]
82001340:	e5933008 	ldr	r3, [r3, #8]
82001344:	e50b3010 	str	r3, [fp, #-16]
82001348:	e51b3010 	ldr	r3, [fp, #-16]
8200134c:	e3530000 	cmp	r3, #0
82001350:	1affffe5 	bne	820012ec <print_under_node+0x38>
82001354:	ea000016 	b	820013b4 <print_under_node+0x100>
82001358:	e51b3014 	ldr	r3, [fp, #-20]	; 0xffffffec
8200135c:	e5934024 	ldr	r4, [r3, #36]	; 0x24
82001360:	e51b3014 	ldr	r3, [fp, #-20]	; 0xffffffec
82001364:	e5933024 	ldr	r3, [r3, #36]	; 0x24
82001368:	e1a00003 	mov	r0, r3
8200136c:	eb0013d0 	bl	820062b4 <_strlen>
82001370:	e1a03000 	mov	r3, r0
82001374:	e1a02003 	mov	r2, r3
82001378:	e1a01004 	mov	r1, r4
8200137c:	e3a00a09 	mov	r0, #36864	; 0x9000
82001380:	e34404e0 	movt	r0, #17632	; 0x44e0
82001384:	eb001c81 	bl	82008590 <uart_tx_str>
82001388:	e3a0100d 	mov	r1, #13
8200138c:	e3a00a09 	mov	r0, #36864	; 0x9000
82001390:	e34404e0 	movt	r0, #17632	; 0x44e0
82001394:	eb001c58 	bl	820084fc <uart_putC>
82001398:	e3a0100a 	mov	r1, #10
8200139c:	e3a00a09 	mov	r0, #36864	; 0x9000
820013a0:	e34404e0 	movt	r0, #17632	; 0x44e0
820013a4:	eb001c54 	bl	820084fc <uart_putC>
820013a8:	e51b3014 	ldr	r3, [fp, #-20]	; 0xffffffec
820013ac:	e5933004 	ldr	r3, [r3, #4]
820013b0:	e50b3014 	str	r3, [fp, #-20]	; 0xffffffec
820013b4:	e51b3014 	ldr	r3, [fp, #-20]	; 0xffffffec
820013b8:	e3530000 	cmp	r3, #0
820013bc:	1affffe5 	bne	82001358 <print_under_node+0xa4>
820013c0:	ea000000 	b	820013c8 <print_under_node+0x114>
820013c4:	e320f000 	nop	{0}
820013c8:	e24bd008 	sub	sp, fp, #8
820013cc:	e8bd8810 	pop	{r4, fp, pc}

820013d0 <find_end_filesibling>:
820013d0:	e52db004 	push	{fp}		; (str fp, [sp, #-4]!)
820013d4:	e28db000 	add	fp, sp, #0
820013d8:	e24dd014 	sub	sp, sp, #20
820013dc:	e50b0010 	str	r0, [fp, #-16]
820013e0:	e51b3010 	ldr	r3, [fp, #-16]
820013e4:	e50b3008 	str	r3, [fp, #-8]
820013e8:	ea000002 	b	820013f8 <find_end_filesibling+0x28>
820013ec:	e51b3008 	ldr	r3, [fp, #-8]
820013f0:	e5933004 	ldr	r3, [r3, #4]
820013f4:	e50b3008 	str	r3, [fp, #-8]
820013f8:	e51b3008 	ldr	r3, [fp, #-8]
820013fc:	e5933004 	ldr	r3, [r3, #4]
82001400:	e3530000 	cmp	r3, #0
82001404:	1afffff8 	bne	820013ec <find_end_filesibling+0x1c>
82001408:	e51b3008 	ldr	r3, [fp, #-8]
8200140c:	e1a00003 	mov	r0, r3
82001410:	e28bd000 	add	sp, fp, #0
82001414:	e49db004 	pop	{fp}		; (ldr fp, [sp], #4)
82001418:	e12fff1e 	bx	lr

8200141c <create_file_under_node>:
8200141c:	e92d4800 	push	{fp, lr}
82001420:	e28db004 	add	fp, sp, #4
82001424:	e24dd020 	sub	sp, sp, #32
82001428:	e50b0018 	str	r0, [fp, #-24]	; 0xffffffe8
8200142c:	e50b101c 	str	r1, [fp, #-28]	; 0xffffffe4
82001430:	e50b2020 	str	r2, [fp, #-32]	; 0xffffffe0
82001434:	e3093ed4 	movw	r3, #40660	; 0x9ed4
82001438:	e3483200 	movt	r3, #33280	; 0x8200
8200143c:	e5933000 	ldr	r3, [r3]
82001440:	e3530000 	cmp	r3, #0
82001444:	0a000002 	beq	82001454 <create_file_under_node+0x38>
82001448:	e51b3018 	ldr	r3, [fp, #-24]	; 0xffffffe8
8200144c:	e3530000 	cmp	r3, #0
82001450:	1a000001 	bne	8200145c <create_file_under_node+0x40>
82001454:	e3a03000 	mov	r3, #0
82001458:	ea000074 	b	82001630 <create_file_under_node+0x214>
8200145c:	e30a30ec 	movw	r3, #41196	; 0xa0ec
82001460:	e3483200 	movt	r3, #33280	; 0x8200
82001464:	e5933004 	ldr	r3, [r3, #4]
82001468:	e50b300c 	str	r3, [fp, #-12]
8200146c:	e30a30ec 	movw	r3, #41196	; 0xa0ec
82001470:	e3483200 	movt	r3, #33280	; 0x8200
82001474:	e5933004 	ldr	r3, [r3, #4]
82001478:	e2832030 	add	r2, r3, #48	; 0x30
8200147c:	e30a30ec 	movw	r3, #41196	; 0xa0ec
82001480:	e3483200 	movt	r3, #33280	; 0x8200
82001484:	e5832004 	str	r2, [r3, #4]
82001488:	e51b300c 	ldr	r3, [fp, #-12]
8200148c:	e51b2018 	ldr	r2, [fp, #-24]	; 0xffffffe8
82001490:	e5832000 	str	r2, [r3]
82001494:	e51b300c 	ldr	r3, [fp, #-12]
82001498:	e2833014 	add	r3, r3, #20
8200149c:	e3a02010 	mov	r2, #16
820014a0:	e3a01000 	mov	r1, #0
820014a4:	e1a00003 	mov	r0, r3
820014a8:	eb0005c3 	bl	82002bbc <_memset>
820014ac:	e51b300c 	ldr	r3, [fp, #-12]
820014b0:	e2832014 	add	r2, r3, #20
820014b4:	e51b300c 	ldr	r3, [fp, #-12]
820014b8:	e5832024 	str	r2, [r3, #36]	; 0x24
820014bc:	e51b300c 	ldr	r3, [fp, #-12]
820014c0:	e5933024 	ldr	r3, [r3, #36]	; 0x24
820014c4:	e50b3008 	str	r3, [fp, #-8]
820014c8:	ea000009 	b	820014f4 <create_file_under_node+0xd8>
820014cc:	e51b301c 	ldr	r3, [fp, #-28]	; 0xffffffe4
820014d0:	e5d32000 	ldrb	r2, [r3]
820014d4:	e51b3008 	ldr	r3, [fp, #-8]
820014d8:	e5c32000 	strb	r2, [r3]
820014dc:	e51b3008 	ldr	r3, [fp, #-8]
820014e0:	e2833001 	add	r3, r3, #1
820014e4:	e50b3008 	str	r3, [fp, #-8]
820014e8:	e51b301c 	ldr	r3, [fp, #-28]	; 0xffffffe4
820014ec:	e2833001 	add	r3, r3, #1
820014f0:	e50b301c 	str	r3, [fp, #-28]	; 0xffffffe4
820014f4:	e51b301c 	ldr	r3, [fp, #-28]	; 0xffffffe4
820014f8:	e5d33000 	ldrb	r3, [r3]
820014fc:	e3530000 	cmp	r3, #0
82001500:	1afffff1 	bne	820014cc <create_file_under_node+0xb0>
82001504:	e51b2020 	ldr	r2, [fp, #-32]	; 0xffffffe0
82001508:	e51b300c 	ldr	r3, [fp, #-12]
8200150c:	e5832010 	str	r2, [r3, #16]
82001510:	e51b300c 	ldr	r3, [fp, #-12]
82001514:	e5933010 	ldr	r3, [r3, #16]
82001518:	e3530003 	cmp	r3, #3
8200151c:	979ff103 	ldrls	pc, [pc, r3, lsl #2]
82001520:	ea000025 	b	820015bc <create_file_under_node+0x1a0>
82001524:	82001534 	andhi	r1, r0, #52, 10	; 0xd000000
82001528:	82001554 	andhi	r1, r0, #84, 10	; 0x15000000
8200152c:	82001574 	andhi	r1, r0, #116, 10	; 0x1d000000
82001530:	82001598 	andhi	r1, r0, #152, 10	; 0x26000000
82001534:	e51b200c 	ldr	r2, [fp, #-12]
82001538:	e3013a0c 	movw	r3, #6668	; 0x1a0c
8200153c:	e3483200 	movt	r3, #33280	; 0x8200
82001540:	e5823028 	str	r3, [r2, #40]	; 0x28
82001544:	e51b300c 	ldr	r3, [fp, #-12]
82001548:	e3a02000 	mov	r2, #0
8200154c:	e583202c 	str	r2, [r3, #44]	; 0x2c
82001550:	ea000020 	b	820015d8 <create_file_under_node+0x1bc>
82001554:	e51b300c 	ldr	r3, [fp, #-12]
82001558:	e3a02000 	mov	r2, #0
8200155c:	e5832028 	str	r2, [r3, #40]	; 0x28
82001560:	e51b200c 	ldr	r2, [fp, #-12]
82001564:	e3013a90 	movw	r3, #6800	; 0x1a90
82001568:	e3483200 	movt	r3, #33280	; 0x8200
8200156c:	e582302c 	str	r3, [r2, #44]	; 0x2c
82001570:	ea000018 	b	820015d8 <create_file_under_node+0x1bc>
82001574:	e51b200c 	ldr	r2, [fp, #-12]
82001578:	e3013a0c 	movw	r3, #6668	; 0x1a0c
8200157c:	e3483200 	movt	r3, #33280	; 0x8200
82001580:	e5823028 	str	r3, [r2, #40]	; 0x28
82001584:	e51b200c 	ldr	r2, [fp, #-12]
82001588:	e3013a90 	movw	r3, #6800	; 0x1a90
8200158c:	e3483200 	movt	r3, #33280	; 0x8200
82001590:	e582302c 	str	r3, [r2, #44]	; 0x2c
82001594:	ea00000f 	b	820015d8 <create_file_under_node+0x1bc>
82001598:	e51b200c 	ldr	r2, [fp, #-12]
8200159c:	e3023704 	movw	r3, #9988	; 0x2704
820015a0:	e3483200 	movt	r3, #33280	; 0x8200
820015a4:	e5823028 	str	r3, [r2, #40]	; 0x28
820015a8:	e51b200c 	ldr	r2, [fp, #-12]
820015ac:	e3023788 	movw	r3, #10120	; 0x2788
820015b0:	e3483200 	movt	r3, #33280	; 0x8200
820015b4:	e582302c 	str	r3, [r2, #44]	; 0x2c
820015b8:	ea000006 	b	820015d8 <create_file_under_node+0x1bc>
820015bc:	e51b300c 	ldr	r3, [fp, #-12]
820015c0:	e3a02000 	mov	r2, #0
820015c4:	e5832028 	str	r2, [r3, #40]	; 0x28
820015c8:	e51b300c 	ldr	r3, [fp, #-12]
820015cc:	e3a02000 	mov	r2, #0
820015d0:	e583202c 	str	r2, [r3, #44]	; 0x2c
820015d4:	e320f000 	nop	{0}
820015d8:	e51b300c 	ldr	r3, [fp, #-12]
820015dc:	e3a02000 	mov	r2, #0
820015e0:	e5832004 	str	r2, [r3, #4]
820015e4:	e51b3018 	ldr	r3, [fp, #-24]	; 0xffffffe8
820015e8:	e593300c 	ldr	r3, [r3, #12]
820015ec:	e3530000 	cmp	r3, #0
820015f0:	1a000003 	bne	82001604 <create_file_under_node+0x1e8>
820015f4:	e51b3018 	ldr	r3, [fp, #-24]	; 0xffffffe8
820015f8:	e51b200c 	ldr	r2, [fp, #-12]
820015fc:	e583200c 	str	r2, [r3, #12]
82001600:	ea000007 	b	82001624 <create_file_under_node+0x208>
82001604:	e51b3018 	ldr	r3, [fp, #-24]	; 0xffffffe8
82001608:	e593300c 	ldr	r3, [r3, #12]
8200160c:	e1a00003 	mov	r0, r3
82001610:	ebffff6e 	bl	820013d0 <find_end_filesibling>
82001614:	e50b0010 	str	r0, [fp, #-16]
82001618:	e51b3010 	ldr	r3, [fp, #-16]
8200161c:	e51b200c 	ldr	r2, [fp, #-12]
82001620:	e5832004 	str	r2, [r3, #4]
82001624:	e51b000c 	ldr	r0, [fp, #-12]
82001628:	eb000003 	bl	8200163c <file_list_push>
8200162c:	e51b300c 	ldr	r3, [fp, #-12]
82001630:	e1a00003 	mov	r0, r3
82001634:	e24bd004 	sub	sp, fp, #4
82001638:	e8bd8800 	pop	{fp, pc}

8200163c <file_list_push>:
8200163c:	e52db004 	push	{fp}		; (str fp, [sp, #-4]!)
82001640:	e28db000 	add	fp, sp, #0
82001644:	e24dd014 	sub	sp, sp, #20
82001648:	e50b0010 	str	r0, [fp, #-16]
8200164c:	e3093ed8 	movw	r3, #40664	; 0x9ed8
82001650:	e3483200 	movt	r3, #33280	; 0x8200
82001654:	e5933000 	ldr	r3, [r3]
82001658:	e3530000 	cmp	r3, #0
8200165c:	1a00000a 	bne	8200168c <file_list_push+0x50>
82001660:	e3093ed8 	movw	r3, #40664	; 0x9ed8
82001664:	e3483200 	movt	r3, #33280	; 0x8200
82001668:	e51b2010 	ldr	r2, [fp, #-16]
8200166c:	e5832000 	str	r2, [r3]
82001670:	e51b3010 	ldr	r3, [fp, #-16]
82001674:	e3a02000 	mov	r2, #0
82001678:	e5832008 	str	r2, [r3, #8]
8200167c:	e51b3010 	ldr	r3, [fp, #-16]
82001680:	e3a02000 	mov	r2, #0
82001684:	e583200c 	str	r2, [r3, #12]
82001688:	ea000016 	b	820016e8 <file_list_push+0xac>
8200168c:	e3093ed8 	movw	r3, #40664	; 0x9ed8
82001690:	e3483200 	movt	r3, #33280	; 0x8200
82001694:	e5933000 	ldr	r3, [r3]
82001698:	e50b3008 	str	r3, [fp, #-8]
8200169c:	ea000002 	b	820016ac <file_list_push+0x70>
820016a0:	e51b3008 	ldr	r3, [fp, #-8]
820016a4:	e5933008 	ldr	r3, [r3, #8]
820016a8:	e50b3008 	str	r3, [fp, #-8]
820016ac:	e51b3008 	ldr	r3, [fp, #-8]
820016b0:	e5933008 	ldr	r3, [r3, #8]
820016b4:	e3530000 	cmp	r3, #0
820016b8:	1afffff8 	bne	820016a0 <file_list_push+0x64>
820016bc:	e51b3008 	ldr	r3, [fp, #-8]
820016c0:	e50b300c 	str	r3, [fp, #-12]
820016c4:	e51b300c 	ldr	r3, [fp, #-12]
820016c8:	e51b2010 	ldr	r2, [fp, #-16]
820016cc:	e5832008 	str	r2, [r3, #8]
820016d0:	e51b3010 	ldr	r3, [fp, #-16]
820016d4:	e51b200c 	ldr	r2, [fp, #-12]
820016d8:	e583200c 	str	r2, [r3, #12]
820016dc:	e51b3010 	ldr	r3, [fp, #-16]
820016e0:	e3a02000 	mov	r2, #0
820016e4:	e5832008 	str	r2, [r3, #8]
820016e8:	e28bd000 	add	sp, fp, #0
820016ec:	e49db004 	pop	{fp}		; (ldr fp, [sp], #4)
820016f0:	e12fff1e 	bx	lr

820016f4 <print_file_list>:
820016f4:	e92d4810 	push	{r4, fp, lr}
820016f8:	e28db008 	add	fp, sp, #8
820016fc:	e24dd00c 	sub	sp, sp, #12
82001700:	e3093ed8 	movw	r3, #40664	; 0x9ed8
82001704:	e3483200 	movt	r3, #33280	; 0x8200
82001708:	e5933000 	ldr	r3, [r3]
8200170c:	e50b3010 	str	r3, [fp, #-16]
82001710:	ea000016 	b	82001770 <print_file_list+0x7c>
82001714:	e51b3010 	ldr	r3, [fp, #-16]
82001718:	e5934024 	ldr	r4, [r3, #36]	; 0x24
8200171c:	e51b3010 	ldr	r3, [fp, #-16]
82001720:	e5933024 	ldr	r3, [r3, #36]	; 0x24
82001724:	e1a00003 	mov	r0, r3
82001728:	eb0012e1 	bl	820062b4 <_strlen>
8200172c:	e1a03000 	mov	r3, r0
82001730:	e1a02003 	mov	r2, r3
82001734:	e1a01004 	mov	r1, r4
82001738:	e3a00a09 	mov	r0, #36864	; 0x9000
8200173c:	e34404e0 	movt	r0, #17632	; 0x44e0
82001740:	eb001b92 	bl	82008590 <uart_tx_str>
82001744:	e3a0100d 	mov	r1, #13
82001748:	e3a00a09 	mov	r0, #36864	; 0x9000
8200174c:	e34404e0 	movt	r0, #17632	; 0x44e0
82001750:	eb001b69 	bl	820084fc <uart_putC>
82001754:	e3a0100a 	mov	r1, #10
82001758:	e3a00a09 	mov	r0, #36864	; 0x9000
8200175c:	e34404e0 	movt	r0, #17632	; 0x44e0
82001760:	eb001b65 	bl	820084fc <uart_putC>
82001764:	e51b3010 	ldr	r3, [fp, #-16]
82001768:	e5933008 	ldr	r3, [r3, #8]
8200176c:	e50b3010 	str	r3, [fp, #-16]
82001770:	e51b3010 	ldr	r3, [fp, #-16]
82001774:	e3530000 	cmp	r3, #0
82001778:	1affffe5 	bne	82001714 <print_file_list+0x20>
8200177c:	e320f000 	nop	{0}
82001780:	e320f000 	nop	{0}
82001784:	e24bd008 	sub	sp, fp, #8
82001788:	e8bd8810 	pop	{r4, fp, pc}

8200178c <find_file>:
8200178c:	e92d4800 	push	{fp, lr}
82001790:	e28db004 	add	fp, sp, #4
82001794:	e24dd010 	sub	sp, sp, #16
82001798:	e50b0010 	str	r0, [fp, #-16]
8200179c:	e3093ed8 	movw	r3, #40664	; 0x9ed8
820017a0:	e3483200 	movt	r3, #33280	; 0x8200
820017a4:	e5933000 	ldr	r3, [r3]
820017a8:	e50b3008 	str	r3, [fp, #-8]
820017ac:	ea00000c 	b	820017e4 <find_file+0x58>
820017b0:	e51b3008 	ldr	r3, [fp, #-8]
820017b4:	e5933024 	ldr	r3, [r3, #36]	; 0x24
820017b8:	e1a01003 	mov	r1, r3
820017bc:	e51b0010 	ldr	r0, [fp, #-16]
820017c0:	eb0012d1 	bl	8200630c <_strcmp>
820017c4:	e1a03000 	mov	r3, r0
820017c8:	e3530000 	cmp	r3, #0
820017cc:	1a000001 	bne	820017d8 <find_file+0x4c>
820017d0:	e51b3008 	ldr	r3, [fp, #-8]
820017d4:	ea000011 	b	82001820 <find_file+0x94>
820017d8:	e51b3008 	ldr	r3, [fp, #-8]
820017dc:	e5933008 	ldr	r3, [r3, #8]
820017e0:	e50b3008 	str	r3, [fp, #-8]
820017e4:	e51b3008 	ldr	r3, [fp, #-8]
820017e8:	e5933008 	ldr	r3, [r3, #8]
820017ec:	e3530000 	cmp	r3, #0
820017f0:	1affffee 	bne	820017b0 <find_file+0x24>
820017f4:	e51b3008 	ldr	r3, [fp, #-8]
820017f8:	e5933024 	ldr	r3, [r3, #36]	; 0x24
820017fc:	e1a01003 	mov	r1, r3
82001800:	e51b0010 	ldr	r0, [fp, #-16]
82001804:	eb0012c0 	bl	8200630c <_strcmp>
82001808:	e1a03000 	mov	r3, r0
8200180c:	e3530000 	cmp	r3, #0
82001810:	1a000001 	bne	8200181c <find_file+0x90>
82001814:	e51b3008 	ldr	r3, [fp, #-8]
82001818:	ea000000 	b	82001820 <find_file+0x94>
8200181c:	e3a03000 	mov	r3, #0
82001820:	e1a00003 	mov	r0, r3
82001824:	e24bd004 	sub	sp, fp, #4
82001828:	e8bd8800 	pop	{fp, pc}

8200182c <find_target_subdir>:
8200182c:	e92d4800 	push	{fp, lr}
82001830:	e28db004 	add	fp, sp, #4
82001834:	e24dd010 	sub	sp, sp, #16
82001838:	e50b0010 	str	r0, [fp, #-16]
8200183c:	e50b1014 	str	r1, [fp, #-20]	; 0xffffffec
82001840:	e51b3010 	ldr	r3, [fp, #-16]
82001844:	e5933000 	ldr	r3, [r3]
82001848:	e50b3008 	str	r3, [fp, #-8]
8200184c:	e30911b8 	movw	r1, #37304	; 0x91b8
82001850:	e3481200 	movt	r1, #33280	; 0x8200
82001854:	e51b0014 	ldr	r0, [fp, #-20]	; 0xffffffec
82001858:	eb0012ab 	bl	8200630c <_strcmp>
8200185c:	e50b000c 	str	r0, [fp, #-12]
82001860:	e51b300c 	ldr	r3, [fp, #-12]
82001864:	e3530000 	cmp	r3, #0
82001868:	0a000012 	beq	820018b8 <find_target_subdir+0x8c>
8200186c:	ea00000c 	b	820018a4 <find_target_subdir+0x78>
82001870:	e51b3008 	ldr	r3, [fp, #-8]
82001874:	e5933020 	ldr	r3, [r3, #32]
82001878:	e51b1014 	ldr	r1, [fp, #-20]	; 0xffffffec
8200187c:	e1a00003 	mov	r0, r3
82001880:	eb0012a1 	bl	8200630c <_strcmp>
82001884:	e1a03000 	mov	r3, r0
82001888:	e3530000 	cmp	r3, #0
8200188c:	1a000001 	bne	82001898 <find_target_subdir+0x6c>
82001890:	e51b3008 	ldr	r3, [fp, #-8]
82001894:	ea000014 	b	820018ec <find_target_subdir+0xc0>
82001898:	e51b3008 	ldr	r3, [fp, #-8]
8200189c:	e5933008 	ldr	r3, [r3, #8]
820018a0:	e50b3008 	str	r3, [fp, #-8]
820018a4:	e51b3008 	ldr	r3, [fp, #-8]
820018a8:	e3530000 	cmp	r3, #0
820018ac:	1affffef 	bne	82001870 <find_target_subdir+0x44>
820018b0:	e3a03000 	mov	r3, #0
820018b4:	ea00000c 	b	820018ec <find_target_subdir+0xc0>
820018b8:	e51b300c 	ldr	r3, [fp, #-12]
820018bc:	e3530000 	cmp	r3, #0
820018c0:	1a000008 	bne	820018e8 <find_target_subdir+0xbc>
820018c4:	e51b3010 	ldr	r3, [fp, #-16]
820018c8:	e5933004 	ldr	r3, [r3, #4]
820018cc:	e3530000 	cmp	r3, #0
820018d0:	1a000001 	bne	820018dc <find_target_subdir+0xb0>
820018d4:	e3a03000 	mov	r3, #0
820018d8:	ea000003 	b	820018ec <find_target_subdir+0xc0>
820018dc:	e51b3010 	ldr	r3, [fp, #-16]
820018e0:	e5933004 	ldr	r3, [r3, #4]
820018e4:	ea000000 	b	820018ec <find_target_subdir+0xc0>
820018e8:	e3a03000 	mov	r3, #0
820018ec:	e1a00003 	mov	r0, r3
820018f0:	e24bd004 	sub	sp, fp, #4
820018f4:	e8bd8800 	pop	{fp, pc}

820018f8 <file_open>:
820018f8:	e92d4800 	push	{fp, lr}
820018fc:	e28db004 	add	fp, sp, #4
82001900:	e24dd018 	sub	sp, sp, #24
82001904:	e50b0018 	str	r0, [fp, #-24]	; 0xffffffe8
82001908:	e50b101c 	str	r1, [fp, #-28]	; 0xffffffe4
8200190c:	e51b301c 	ldr	r3, [fp, #-28]	; 0xffffffe4
82001910:	e50b3010 	str	r3, [fp, #-16]
82001914:	e3e03000 	mvn	r3, #0
82001918:	e50b3008 	str	r3, [fp, #-8]
8200191c:	e51b0018 	ldr	r0, [fp, #-24]	; 0xffffffe8
82001920:	ebffff99 	bl	8200178c <find_file>
82001924:	e50b0014 	str	r0, [fp, #-20]	; 0xffffffec
82001928:	e51b3014 	ldr	r3, [fp, #-20]	; 0xffffffec
8200192c:	e3530000 	cmp	r3, #0
82001930:	1a000001 	bne	8200193c <file_open+0x44>
82001934:	e3e03000 	mvn	r3, #0
82001938:	ea00001e 	b	820019b8 <file_open+0xc0>
8200193c:	e3a03000 	mov	r3, #0
82001940:	e50b300c 	str	r3, [fp, #-12]
82001944:	ea000017 	b	820019a8 <file_open+0xb0>
82001948:	e51b2010 	ldr	r2, [fp, #-16]
8200194c:	e51b300c 	ldr	r3, [fp, #-12]
82001950:	e2833008 	add	r3, r3, #8
82001954:	e1a03103 	lsl	r3, r3, #2
82001958:	e0823003 	add	r3, r2, r3
8200195c:	e5933004 	ldr	r3, [r3, #4]
82001960:	e3530000 	cmp	r3, #0
82001964:	1a00000c 	bne	8200199c <file_open+0xa4>
82001968:	e51b300c 	ldr	r3, [fp, #-12]
8200196c:	e3530002 	cmp	r3, #2
82001970:	0a000009 	beq	8200199c <file_open+0xa4>
82001974:	e51b2010 	ldr	r2, [fp, #-16]
82001978:	e51b300c 	ldr	r3, [fp, #-12]
8200197c:	e2833008 	add	r3, r3, #8
82001980:	e1a03103 	lsl	r3, r3, #2
82001984:	e0823003 	add	r3, r2, r3
82001988:	e51b2014 	ldr	r2, [fp, #-20]	; 0xffffffec
8200198c:	e5832004 	str	r2, [r3, #4]
82001990:	e51b300c 	ldr	r3, [fp, #-12]
82001994:	e50b3008 	str	r3, [fp, #-8]
82001998:	ea000005 	b	820019b4 <file_open+0xbc>
8200199c:	e51b300c 	ldr	r3, [fp, #-12]
820019a0:	e2833001 	add	r3, r3, #1
820019a4:	e50b300c 	str	r3, [fp, #-12]
820019a8:	e51b300c 	ldr	r3, [fp, #-12]
820019ac:	e3530007 	cmp	r3, #7
820019b0:	daffffe4 	ble	82001948 <file_open+0x50>
820019b4:	e51b3008 	ldr	r3, [fp, #-8]
820019b8:	e1a00003 	mov	r0, r3
820019bc:	e24bd004 	sub	sp, fp, #4
820019c0:	e8bd8800 	pop	{fp, pc}

820019c4 <file_close>:
820019c4:	e52db004 	push	{fp}		; (str fp, [sp, #-4]!)
820019c8:	e28db000 	add	fp, sp, #0
820019cc:	e24dd014 	sub	sp, sp, #20
820019d0:	e50b0010 	str	r0, [fp, #-16]
820019d4:	e50b1014 	str	r1, [fp, #-20]	; 0xffffffec
820019d8:	e51b3014 	ldr	r3, [fp, #-20]	; 0xffffffec
820019dc:	e50b3008 	str	r3, [fp, #-8]
820019e0:	e51b2008 	ldr	r2, [fp, #-8]
820019e4:	e51b3010 	ldr	r3, [fp, #-16]
820019e8:	e2833008 	add	r3, r3, #8
820019ec:	e1a03103 	lsl	r3, r3, #2
820019f0:	e0823003 	add	r3, r2, r3
820019f4:	e3a02000 	mov	r2, #0
820019f8:	e5832004 	str	r2, [r3, #4]
820019fc:	e320f000 	nop	{0}
82001a00:	e28bd000 	add	sp, fp, #0
82001a04:	e49db004 	pop	{fp}		; (ldr fp, [sp], #4)
82001a08:	e12fff1e 	bx	lr

82001a0c <console_read_func>:
82001a0c:	e92d4800 	push	{fp, lr}
82001a10:	e28db004 	add	fp, sp, #4
82001a14:	e24dd010 	sub	sp, sp, #16
82001a18:	e50b0010 	str	r0, [fp, #-16]
82001a1c:	e50b1014 	str	r1, [fp, #-20]	; 0xffffffec
82001a20:	e51b3010 	ldr	r3, [fp, #-16]
82001a24:	e50b3008 	str	r3, [fp, #-8]
82001a28:	e3a03000 	mov	r3, #0
82001a2c:	e50b300c 	str	r3, [fp, #-12]
82001a30:	ea00000f 	b	82001a74 <console_read_func+0x68>
82001a34:	e3a00a09 	mov	r0, #36864	; 0x9000
82001a38:	e34404e0 	movt	r0, #17632	; 0x44e0
82001a3c:	eb001ac1 	bl	82008548 <uart_getC>
82001a40:	e1a03000 	mov	r3, r0
82001a44:	e1a02003 	mov	r2, r3
82001a48:	e51b3008 	ldr	r3, [fp, #-8]
82001a4c:	e5c32000 	strb	r2, [r3]
82001a50:	e51b3008 	ldr	r3, [fp, #-8]
82001a54:	e2833001 	add	r3, r3, #1
82001a58:	e50b3008 	str	r3, [fp, #-8]
82001a5c:	e51b300c 	ldr	r3, [fp, #-12]
82001a60:	e2833001 	add	r3, r3, #1
82001a64:	e50b300c 	str	r3, [fp, #-12]
82001a68:	e51b3014 	ldr	r3, [fp, #-20]	; 0xffffffec
82001a6c:	e2433001 	sub	r3, r3, #1
82001a70:	e50b3014 	str	r3, [fp, #-20]	; 0xffffffec
82001a74:	e51b3014 	ldr	r3, [fp, #-20]	; 0xffffffec
82001a78:	e3530000 	cmp	r3, #0
82001a7c:	1affffec 	bne	82001a34 <console_read_func+0x28>
82001a80:	e51b300c 	ldr	r3, [fp, #-12]
82001a84:	e1a00003 	mov	r0, r3
82001a88:	e24bd004 	sub	sp, fp, #4
82001a8c:	e8bd8800 	pop	{fp, pc}

82001a90 <console_write_func>:
82001a90:	e92d4800 	push	{fp, lr}
82001a94:	e28db004 	add	fp, sp, #4
82001a98:	e24dd010 	sub	sp, sp, #16
82001a9c:	e50b0010 	str	r0, [fp, #-16]
82001aa0:	e50b1014 	str	r1, [fp, #-20]	; 0xffffffec
82001aa4:	e51b3010 	ldr	r3, [fp, #-16]
82001aa8:	e50b3008 	str	r3, [fp, #-8]
82001aac:	e3a03000 	mov	r3, #0
82001ab0:	e50b300c 	str	r3, [fp, #-12]
82001ab4:	ea00000e 	b	82001af4 <console_write_func+0x64>
82001ab8:	e51b3008 	ldr	r3, [fp, #-8]
82001abc:	e5d33000 	ldrb	r3, [r3]
82001ac0:	e1a01003 	mov	r1, r3
82001ac4:	e3a00a09 	mov	r0, #36864	; 0x9000
82001ac8:	e34404e0 	movt	r0, #17632	; 0x44e0
82001acc:	eb001a8a 	bl	820084fc <uart_putC>
82001ad0:	e51b3008 	ldr	r3, [fp, #-8]
82001ad4:	e2833001 	add	r3, r3, #1
82001ad8:	e50b3008 	str	r3, [fp, #-8]
82001adc:	e51b300c 	ldr	r3, [fp, #-12]
82001ae0:	e2833001 	add	r3, r3, #1
82001ae4:	e50b300c 	str	r3, [fp, #-12]
82001ae8:	e51b3014 	ldr	r3, [fp, #-20]	; 0xffffffec
82001aec:	e2433001 	sub	r3, r3, #1
82001af0:	e50b3014 	str	r3, [fp, #-20]	; 0xffffffec
82001af4:	e51b3014 	ldr	r3, [fp, #-20]	; 0xffffffec
82001af8:	e3530000 	cmp	r3, #0
82001afc:	1affffed 	bne	82001ab8 <console_write_func+0x28>
82001b00:	e51b300c 	ldr	r3, [fp, #-12]
82001b04:	e1a00003 	mov	r0, r3
82001b08:	e24bd004 	sub	sp, fp, #4
82001b0c:	e8bd8800 	pop	{fp, pc}

82001b10 <fork_test>:
82001b10:	e92d4800 	push	{fp, lr}
82001b14:	e28db004 	add	fp, sp, #4
82001b18:	e3a01000 	mov	r1, #0
82001b1c:	e3010b34 	movw	r0, #6964	; 0x1b34
82001b20:	e3480200 	movt	r0, #33280	; 0x8200
82001b24:	eb001b7e 	bl	82008924 <__do_taskCreate>
82001b28:	e3a03000 	mov	r3, #0
82001b2c:	e1a00003 	mov	r0, r3
82001b30:	e8bd8800 	pop	{fp, pc}

82001b34 <fork_test_main>:
82001b34:	e92d4800 	push	{fp, lr}
82001b38:	e28db004 	add	fp, sp, #4
82001b3c:	e24dd020 	sub	sp, sp, #32
82001b40:	e30901bc 	movw	r0, #37308	; 0x91bc
82001b44:	e3480200 	movt	r0, #33280	; 0x8200
82001b48:	eb00111b 	bl	82005fbc <uprintf>
82001b4c:	e30901ec 	movw	r0, #37356	; 0x91ec
82001b50:	e3480200 	movt	r0, #33280	; 0x8200
82001b54:	eb001118 	bl	82005fbc <uprintf>
82001b58:	eb001b81 	bl	82008964 <__malloc_blk>
82001b5c:	e50b000c 	str	r0, [fp, #-12]
82001b60:	e51b100c 	ldr	r1, [fp, #-12]
82001b64:	e3090220 	movw	r0, #37408	; 0x9220
82001b68:	e3480200 	movt	r0, #33280	; 0x8200
82001b6c:	eb001112 	bl	82005fbc <uprintf>
82001b70:	eb001b7b 	bl	82008964 <__malloc_blk>
82001b74:	e50b0010 	str	r0, [fp, #-16]
82001b78:	e51b1010 	ldr	r1, [fp, #-16]
82001b7c:	e309023c 	movw	r0, #37436	; 0x923c
82001b80:	e3480200 	movt	r0, #33280	; 0x8200
82001b84:	eb00110c 	bl	82005fbc <uprintf>
82001b88:	eb001b75 	bl	82008964 <__malloc_blk>
82001b8c:	e50b0014 	str	r0, [fp, #-20]	; 0xffffffec
82001b90:	e51b1014 	ldr	r1, [fp, #-20]	; 0xffffffec
82001b94:	e3090258 	movw	r0, #37464	; 0x9258
82001b98:	e3480200 	movt	r0, #33280	; 0x8200
82001b9c:	eb001106 	bl	82005fbc <uprintf>
82001ba0:	e51b0010 	ldr	r0, [fp, #-16]
82001ba4:	eb001b74 	bl	8200897c <__mfree_blk>
82001ba8:	e51b000c 	ldr	r0, [fp, #-12]
82001bac:	eb001b72 	bl	8200897c <__mfree_blk>
82001bb0:	e51b0014 	ldr	r0, [fp, #-20]	; 0xffffffec
82001bb4:	eb001b70 	bl	8200897c <__mfree_blk>
82001bb8:	e30901bc 	movw	r0, #37308	; 0x91bc
82001bbc:	e3480200 	movt	r0, #33280	; 0x8200
82001bc0:	eb0010fd 	bl	82005fbc <uprintf>
82001bc4:	e3090274 	movw	r0, #37492	; 0x9274
82001bc8:	e3480200 	movt	r0, #33280	; 0x8200
82001bcc:	eb0010fa 	bl	82005fbc <uprintf>
82001bd0:	eb001b4d 	bl	8200890c <__fork>
82001bd4:	e50b0018 	str	r0, [fp, #-24]	; 0xffffffe8
82001bd8:	e51b1018 	ldr	r1, [fp, #-24]	; 0xffffffe8
82001bdc:	e3090298 	movw	r0, #37528	; 0x9298
82001be0:	e3480200 	movt	r0, #33280	; 0x8200
82001be4:	eb0010f4 	bl	82005fbc <uprintf>
82001be8:	e51b3018 	ldr	r3, [fp, #-24]	; 0xffffffe8
82001bec:	e3530000 	cmp	r3, #0
82001bf0:	0a000012 	beq	82001c40 <fork_test_main+0x10c>
82001bf4:	e3a03000 	mov	r3, #0
82001bf8:	e50b3008 	str	r3, [fp, #-8]
82001bfc:	ea000002 	b	82001c0c <fork_test_main+0xd8>
82001c00:	e51b3008 	ldr	r3, [fp, #-8]
82001c04:	e2833001 	add	r3, r3, #1
82001c08:	e50b3008 	str	r3, [fp, #-8]
82001c0c:	e51b2008 	ldr	r2, [fp, #-8]
82001c10:	e308369f 	movw	r3, #34463	; 0x869f
82001c14:	e3403001 	movt	r3, #1
82001c18:	e1520003 	cmp	r2, r3
82001c1c:	dafffff7 	ble	82001c00 <fork_test_main+0xcc>
82001c20:	eb001b2f 	bl	820088e4 <__gettid>
82001c24:	e50b0020 	str	r0, [fp, #-32]	; 0xffffffe0
82001c28:	e51b1020 	ldr	r1, [fp, #-32]	; 0xffffffe0
82001c2c:	e30902ac 	movw	r0, #37548	; 0x92ac
82001c30:	e3480200 	movt	r0, #33280	; 0x8200
82001c34:	eb0010e0 	bl	82005fbc <uprintf>
82001c38:	eb001b2f 	bl	820088fc <__exit>
82001c3c:	ea000006 	b	82001c5c <fork_test_main+0x128>
82001c40:	eb001b27 	bl	820088e4 <__gettid>
82001c44:	e50b001c 	str	r0, [fp, #-28]	; 0xffffffe4
82001c48:	e51b101c 	ldr	r1, [fp, #-28]	; 0xffffffe4
82001c4c:	e30902c8 	movw	r0, #37576	; 0x92c8
82001c50:	e3480200 	movt	r0, #33280	; 0x8200
82001c54:	eb0010d8 	bl	82005fbc <uprintf>
82001c58:	eb001b27 	bl	820088fc <__exit>
82001c5c:	e320f000 	nop	{0}
82001c60:	e24bd004 	sub	sp, fp, #4
82001c64:	e8bd8800 	pop	{fp, pc}

82001c68 <dataSyncBarrier>:
82001c68:	e52db004 	push	{fp}		; (str fp, [sp, #-4]!)
82001c6c:	e28db000 	add	fp, sp, #0
82001c70:	f57ff04f 	dsb	sy
82001c74:	e320f000 	nop	{0}
82001c78:	e28bd000 	add	sp, fp, #0
82001c7c:	e49db004 	pop	{fp}		; (ldr fp, [sp], #4)
82001c80:	e12fff1e 	bx	lr

82001c84 <SYSTEM_INT_Enable>:
82001c84:	e52db004 	push	{fp}		; (str fp, [sp, #-4]!)
82001c88:	e28db000 	add	fp, sp, #0
82001c8c:	e24dd014 	sub	sp, sp, #20
82001c90:	e50b0010 	str	r0, [fp, #-16]
82001c94:	e51b3010 	ldr	r3, [fp, #-16]
82001c98:	e1a032c3 	asr	r3, r3, #5
82001c9c:	e50b3008 	str	r3, [fp, #-8]
82001ca0:	e51b3010 	ldr	r3, [fp, #-16]
82001ca4:	e203301f 	and	r3, r3, #31
82001ca8:	e3a02001 	mov	r2, #1
82001cac:	e1a02312 	lsl	r2, r2, r3
82001cb0:	e51b3008 	ldr	r3, [fp, #-8]
82001cb4:	e1a03283 	lsl	r3, r3, #5
82001cb8:	e1a01003 	mov	r1, r3
82001cbc:	e3a03088 	mov	r3, #136	; 0x88
82001cc0:	e3443820 	movt	r3, #18464	; 0x4820
82001cc4:	e0813003 	add	r3, r1, r3
82001cc8:	e6ef2072 	uxtb	r2, r2
82001ccc:	e5c32000 	strb	r2, [r3]
82001cd0:	e320f000 	nop	{0}
82001cd4:	e28bd000 	add	sp, fp, #0
82001cd8:	e49db004 	pop	{fp}		; (ldr fp, [sp], #4)
82001cdc:	e12fff1e 	bx	lr

82001ce0 <SYSTEM_INT_disable>:
82001ce0:	e52db004 	push	{fp}		; (str fp, [sp, #-4]!)
82001ce4:	e28db000 	add	fp, sp, #0
82001ce8:	e24dd014 	sub	sp, sp, #20
82001cec:	e50b0010 	str	r0, [fp, #-16]
82001cf0:	e51b3010 	ldr	r3, [fp, #-16]
82001cf4:	e1a032c3 	asr	r3, r3, #5
82001cf8:	e50b3008 	str	r3, [fp, #-8]
82001cfc:	e51b3010 	ldr	r3, [fp, #-16]
82001d00:	e203301f 	and	r3, r3, #31
82001d04:	e3a02001 	mov	r2, #1
82001d08:	e1a02312 	lsl	r2, r2, r3
82001d0c:	e51b3008 	ldr	r3, [fp, #-8]
82001d10:	e1a03283 	lsl	r3, r3, #5
82001d14:	e1a01003 	mov	r1, r3
82001d18:	e3a0308c 	mov	r3, #140	; 0x8c
82001d1c:	e3443820 	movt	r3, #18464	; 0x4820
82001d20:	e0813003 	add	r3, r1, r3
82001d24:	e6ef2072 	uxtb	r2, r2
82001d28:	e5c32000 	strb	r2, [r3]
82001d2c:	e320f000 	nop	{0}
82001d30:	e28bd000 	add	sp, fp, #0
82001d34:	e49db004 	pop	{fp}		; (ldr fp, [sp], #4)
82001d38:	e12fff1e 	bx	lr

82001d3c <getActivateIrqNum>:
82001d3c:	e52db004 	push	{fp}		; (str fp, [sp, #-4]!)
82001d40:	e28db000 	add	fp, sp, #0
82001d44:	e3a03040 	mov	r3, #64	; 0x40
82001d48:	e3443820 	movt	r3, #18464	; 0x4820
82001d4c:	e5d33000 	ldrb	r3, [r3]
82001d50:	e6ef3073 	uxtb	r3, r3
82001d54:	e203307f 	and	r3, r3, #127	; 0x7f
82001d58:	e1a00003 	mov	r0, r3
82001d5c:	e28bd000 	add	sp, fp, #0
82001d60:	e49db004 	pop	{fp}		; (ldr fp, [sp], #4)
82001d64:	e12fff1e 	bx	lr

82001d68 <setIntRouteAndPriority>:
82001d68:	e52db004 	push	{fp}		; (str fp, [sp, #-4]!)
82001d6c:	e28db000 	add	fp, sp, #0
82001d70:	e24dd014 	sub	sp, sp, #20
82001d74:	e50b0008 	str	r0, [fp, #-8]
82001d78:	e50b100c 	str	r1, [fp, #-12]
82001d7c:	e50b2010 	str	r2, [fp, #-16]
82001d80:	e51b300c 	ldr	r3, [fp, #-12]
82001d84:	e6ef3073 	uxtb	r3, r3
82001d88:	e1a03103 	lsl	r3, r3, #2
82001d8c:	e6ef1073 	uxtb	r1, r3
82001d90:	e51b3010 	ldr	r3, [fp, #-16]
82001d94:	e6ef2073 	uxtb	r2, r3
82001d98:	e51b3008 	ldr	r3, [fp, #-8]
82001d9c:	e1a00103 	lsl	r0, r3, #2
82001da0:	e3a03c01 	mov	r3, #256	; 0x100
82001da4:	e3443820 	movt	r3, #18464	; 0x4820
82001da8:	e0803003 	add	r3, r0, r3
82001dac:	e1812002 	orr	r2, r1, r2
82001db0:	e6ef2072 	uxtb	r2, r2
82001db4:	e5c32000 	strb	r2, [r3]
82001db8:	e320f000 	nop	{0}
82001dbc:	e28bd000 	add	sp, fp, #0
82001dc0:	e49db004 	pop	{fp}		; (ldr fp, [sp], #4)
82001dc4:	e12fff1e 	bx	lr

82001dc8 <setIntRoute>:
82001dc8:	e52db004 	push	{fp}		; (str fp, [sp, #-4]!)
82001dcc:	e28db000 	add	fp, sp, #0
82001dd0:	e24dd00c 	sub	sp, sp, #12
82001dd4:	e50b0008 	str	r0, [fp, #-8]
82001dd8:	e50b100c 	str	r1, [fp, #-12]
82001ddc:	e51b3008 	ldr	r3, [fp, #-8]
82001de0:	e1a02103 	lsl	r2, r3, #2
82001de4:	e3a03c01 	mov	r3, #256	; 0x100
82001de8:	e3443820 	movt	r3, #18464	; 0x4820
82001dec:	e0823003 	add	r3, r2, r3
82001df0:	e5d33000 	ldrb	r3, [r3]
82001df4:	e6ef1073 	uxtb	r1, r3
82001df8:	e51b300c 	ldr	r3, [fp, #-12]
82001dfc:	e6ef2073 	uxtb	r2, r3
82001e00:	e51b3008 	ldr	r3, [fp, #-8]
82001e04:	e1a00103 	lsl	r0, r3, #2
82001e08:	e3a03c01 	mov	r3, #256	; 0x100
82001e0c:	e3443820 	movt	r3, #18464	; 0x4820
82001e10:	e0803003 	add	r3, r0, r3
82001e14:	e1812002 	orr	r2, r1, r2
82001e18:	e6ef2072 	uxtb	r2, r2
82001e1c:	e5c32000 	strb	r2, [r3]
82001e20:	e320f000 	nop	{0}
82001e24:	e28bd000 	add	sp, fp, #0
82001e28:	e49db004 	pop	{fp}		; (ldr fp, [sp], #4)
82001e2c:	e12fff1e 	bx	lr

82001e30 <cpsrEnableIRQ>:
82001e30:	e52db004 	push	{fp}		; (str fp, [sp, #-4]!)
82001e34:	e28db000 	add	fp, sp, #0
82001e38:	e10f0000 	mrs	r0, CPSR
82001e3c:	e3c00080 	bic	r0, r0, #128	; 0x80
82001e40:	e121f000 	msr	CPSR_c, r0
82001e44:	e320f000 	nop	{0}
82001e48:	e28bd000 	add	sp, fp, #0
82001e4c:	e49db004 	pop	{fp}		; (ldr fp, [sp], #4)
82001e50:	e12fff1e 	bx	lr

82001e54 <cpsrDisableIRQ>:
82001e54:	e52db004 	push	{fp}		; (str fp, [sp, #-4]!)
82001e58:	e28db000 	add	fp, sp, #0
82001e5c:	e10f0000 	mrs	r0, CPSR
82001e60:	e3800080 	orr	r0, r0, #128	; 0x80
82001e64:	e121f000 	msr	CPSR_c, r0
82001e68:	e320f000 	nop	{0}
82001e6c:	e28bd000 	add	sp, fp, #0
82001e70:	e49db004 	pop	{fp}		; (ldr fp, [sp], #4)
82001e74:	e12fff1e 	bx	lr

82001e78 <cpsrDisableFIQ>:
82001e78:	e52db004 	push	{fp}		; (str fp, [sp, #-4]!)
82001e7c:	e28db000 	add	fp, sp, #0
82001e80:	e10f0000 	mrs	r0, CPSR
82001e84:	e3800040 	orr	r0, r0, #64	; 0x40
82001e88:	e121f000 	msr	CPSR_c, r0
82001e8c:	e320f000 	nop	{0}
82001e90:	e28bd000 	add	sp, fp, #0
82001e94:	e49db004 	pop	{fp}		; (ldr fp, [sp], #4)
82001e98:	e12fff1e 	bx	lr

82001e9c <cpsrEnableFIQ>:
82001e9c:	e52db004 	push	{fp}		; (str fp, [sp, #-4]!)
82001ea0:	e28db000 	add	fp, sp, #0
82001ea4:	e10f0000 	mrs	r0, CPSR
82001ea8:	e3c00040 	bic	r0, r0, #64	; 0x40
82001eac:	e121f000 	msr	CPSR_c, r0
82001eb0:	e320f000 	nop	{0}
82001eb4:	e28bd000 	add	sp, fp, #0
82001eb8:	e49db004 	pop	{fp}		; (ldr fp, [sp], #4)
82001ebc:	e12fff1e 	bx	lr

82001ec0 <setNewIrqAgr>:
82001ec0:	e52db004 	push	{fp}		; (str fp, [sp, #-4]!)
82001ec4:	e28db000 	add	fp, sp, #0
82001ec8:	e3a03048 	mov	r3, #72	; 0x48
82001ecc:	e3443820 	movt	r3, #18464	; 0x4820
82001ed0:	e5d33000 	ldrb	r3, [r3]
82001ed4:	e6ef2073 	uxtb	r2, r3
82001ed8:	e3a03048 	mov	r3, #72	; 0x48
82001edc:	e3443820 	movt	r3, #18464	; 0x4820
82001ee0:	e3822001 	orr	r2, r2, #1
82001ee4:	e6ef2072 	uxtb	r2, r2
82001ee8:	e5c32000 	strb	r2, [r3]
82001eec:	e320f000 	nop	{0}
82001ef0:	e28bd000 	add	sp, fp, #0
82001ef4:	e49db004 	pop	{fp}		; (ldr fp, [sp], #4)
82001ef8:	e12fff1e 	bx	lr

82001efc <getIntVectorAddr>:
82001efc:	e52db004 	push	{fp}		; (str fp, [sp, #-4]!)
82001f00:	e28db000 	add	fp, sp, #0
82001f04:	e24dd00c 	sub	sp, sp, #12
82001f08:	ee113f10 	mrc	15, 0, r3, cr1, cr0, {0}
82001f0c:	e50b3008 	str	r3, [fp, #-8]
82001f10:	e51b3008 	ldr	r3, [fp, #-8]
82001f14:	e2033a02 	and	r3, r3, #8192	; 0x2000
82001f18:	e3530000 	cmp	r3, #0
82001f1c:	0a000002 	beq	82001f2c <getIntVectorAddr+0x30>
82001f20:	e3a03000 	mov	r3, #0
82001f24:	e34f3fff 	movt	r3, #65535	; 0xffff
82001f28:	ea000002 	b	82001f38 <getIntVectorAddr+0x3c>
82001f2c:	ee1c3f10 	mrc	15, 0, r3, cr12, cr0, {0}
82001f30:	e50b3008 	str	r3, [fp, #-8]
82001f34:	e51b3008 	ldr	r3, [fp, #-8]
82001f38:	e1a00003 	mov	r0, r3
82001f3c:	e28bd000 	add	sp, fp, #0
82001f40:	e49db004 	pop	{fp}		; (ldr fp, [sp], #4)
82001f44:	e12fff1e 	bx	lr

82001f48 <irq_handler_array_init>:
82001f48:	e52db004 	push	{fp}		; (str fp, [sp, #-4]!)
82001f4c:	e28db000 	add	fp, sp, #0
82001f50:	e24dd00c 	sub	sp, sp, #12
82001f54:	e3a03000 	mov	r3, #0
82001f58:	e50b3008 	str	r3, [fp, #-8]
82001f5c:	ea000007 	b	82001f80 <irq_handler_array_init+0x38>
82001f60:	e3093edc 	movw	r3, #40668	; 0x9edc
82001f64:	e3483200 	movt	r3, #33280	; 0x8200
82001f68:	e51b2008 	ldr	r2, [fp, #-8]
82001f6c:	e3a01000 	mov	r1, #0
82001f70:	e7831102 	str	r1, [r3, r2, lsl #2]
82001f74:	e51b3008 	ldr	r3, [fp, #-8]
82001f78:	e2833001 	add	r3, r3, #1
82001f7c:	e50b3008 	str	r3, [fp, #-8]
82001f80:	e51b3008 	ldr	r3, [fp, #-8]
82001f84:	e353007f 	cmp	r3, #127	; 0x7f
82001f88:	dafffff4 	ble	82001f60 <irq_handler_array_init+0x18>
82001f8c:	e320f000 	nop	{0}
82001f90:	e320f000 	nop	{0}
82001f94:	e28bd000 	add	sp, fp, #0
82001f98:	e49db004 	pop	{fp}		; (ldr fp, [sp], #4)
82001f9c:	e12fff1e 	bx	lr

82001fa0 <interrupt_init>:
82001fa0:	e92d4800 	push	{fp, lr}
82001fa4:	e28db004 	add	fp, sp, #4
82001fa8:	ebffffe6 	bl	82001f48 <irq_handler_array_init>
82001fac:	ebffff2d 	bl	82001c68 <dataSyncBarrier>
82001fb0:	e320f000 	nop	{0}
82001fb4:	e8bd8800 	pop	{fp, pc}

82001fb8 <disableIrqThroughCpsr>:
82001fb8:	e92d4800 	push	{fp, lr}
82001fbc:	e28db004 	add	fp, sp, #4
82001fc0:	ebffff28 	bl	82001c68 <dataSyncBarrier>
82001fc4:	ebffffa2 	bl	82001e54 <cpsrDisableIRQ>
82001fc8:	e320f000 	nop	{0}
82001fcc:	e8bd8800 	pop	{fp, pc}

82001fd0 <eableINT_NUM>:
82001fd0:	e52db004 	push	{fp}		; (str fp, [sp, #-4]!)
82001fd4:	e28db000 	add	fp, sp, #0
82001fd8:	e24dd00c 	sub	sp, sp, #12
82001fdc:	e1a03000 	mov	r3, r0
82001fe0:	e54b3005 	strb	r3, [fp, #-5]
82001fe4:	e55b3005 	ldrb	r3, [fp, #-5]
82001fe8:	e1a032a3 	lsr	r3, r3, #5
82001fec:	e6ef3073 	uxtb	r3, r3
82001ff0:	e3530003 	cmp	r3, #3
82001ff4:	979ff103 	ldrls	pc, [pc, r3, lsl #2]
82001ff8:	ea000027 	b	8200209c <eableINT_NUM+0xcc>
82001ffc:	8200200c 	andhi	r2, r0, #12
82002000:	82002030 	andhi	r2, r0, #48	; 0x30
82002004:	82002054 	andhi	r2, r0, #84	; 0x54
82002008:	82002078 	andhi	r2, r0, #120	; 0x78
8200200c:	e55b3005 	ldrb	r3, [fp, #-5]
82002010:	e203301f 	and	r3, r3, #31
82002014:	e3a02001 	mov	r2, #1
82002018:	e1a02312 	lsl	r2, r2, r3
8200201c:	e3a03088 	mov	r3, #136	; 0x88
82002020:	e3443820 	movt	r3, #18464	; 0x4820
82002024:	e6ef2072 	uxtb	r2, r2
82002028:	e5c32000 	strb	r2, [r3]
8200202c:	ea00001a 	b	8200209c <eableINT_NUM+0xcc>
82002030:	e55b3005 	ldrb	r3, [fp, #-5]
82002034:	e203301f 	and	r3, r3, #31
82002038:	e3a02001 	mov	r2, #1
8200203c:	e1a02312 	lsl	r2, r2, r3
82002040:	e3a030a8 	mov	r3, #168	; 0xa8
82002044:	e3443820 	movt	r3, #18464	; 0x4820
82002048:	e6ef2072 	uxtb	r2, r2
8200204c:	e5c32000 	strb	r2, [r3]
82002050:	ea000011 	b	8200209c <eableINT_NUM+0xcc>
82002054:	e55b3005 	ldrb	r3, [fp, #-5]
82002058:	e203301f 	and	r3, r3, #31
8200205c:	e3a02001 	mov	r2, #1
82002060:	e1a02312 	lsl	r2, r2, r3
82002064:	e3a030c8 	mov	r3, #200	; 0xc8
82002068:	e3443820 	movt	r3, #18464	; 0x4820
8200206c:	e6ef2072 	uxtb	r2, r2
82002070:	e5c32000 	strb	r2, [r3]
82002074:	ea000008 	b	8200209c <eableINT_NUM+0xcc>
82002078:	e55b3005 	ldrb	r3, [fp, #-5]
8200207c:	e203301f 	and	r3, r3, #31
82002080:	e3a02001 	mov	r2, #1
82002084:	e1a02312 	lsl	r2, r2, r3
82002088:	e3a030e8 	mov	r3, #232	; 0xe8
8200208c:	e3443820 	movt	r3, #18464	; 0x4820
82002090:	e6ef2072 	uxtb	r2, r2
82002094:	e5c32000 	strb	r2, [r3]
82002098:	e320f000 	nop	{0}
8200209c:	e320f000 	nop	{0}
820020a0:	e28bd000 	add	sp, fp, #0
820020a4:	e49db004 	pop	{fp}		; (ldr fp, [sp], #4)
820020a8:	e12fff1e 	bx	lr

820020ac <disableINT_NUM>:
820020ac:	e52db004 	push	{fp}		; (str fp, [sp, #-4]!)
820020b0:	e28db000 	add	fp, sp, #0
820020b4:	e24dd00c 	sub	sp, sp, #12
820020b8:	e1a03000 	mov	r3, r0
820020bc:	e54b3005 	strb	r3, [fp, #-5]
820020c0:	e55b3005 	ldrb	r3, [fp, #-5]
820020c4:	e1a032a3 	lsr	r3, r3, #5
820020c8:	e6ef3073 	uxtb	r3, r3
820020cc:	e3530003 	cmp	r3, #3
820020d0:	979ff103 	ldrls	pc, [pc, r3, lsl #2]
820020d4:	ea000027 	b	82002178 <disableINT_NUM+0xcc>
820020d8:	820020e8 	andhi	r2, r0, #232	; 0xe8
820020dc:	8200210c 	andhi	r2, r0, #12, 2
820020e0:	82002130 	andhi	r2, r0, #48, 2
820020e4:	82002154 	andhi	r2, r0, #84, 2
820020e8:	e55b3005 	ldrb	r3, [fp, #-5]
820020ec:	e203301f 	and	r3, r3, #31
820020f0:	e3a02001 	mov	r2, #1
820020f4:	e1a02312 	lsl	r2, r2, r3
820020f8:	e3a0308c 	mov	r3, #140	; 0x8c
820020fc:	e3443820 	movt	r3, #18464	; 0x4820
82002100:	e6ef2072 	uxtb	r2, r2
82002104:	e5c32000 	strb	r2, [r3]
82002108:	ea00001a 	b	82002178 <disableINT_NUM+0xcc>
8200210c:	e55b3005 	ldrb	r3, [fp, #-5]
82002110:	e203301f 	and	r3, r3, #31
82002114:	e3a02001 	mov	r2, #1
82002118:	e1a02312 	lsl	r2, r2, r3
8200211c:	e3a030ac 	mov	r3, #172	; 0xac
82002120:	e3443820 	movt	r3, #18464	; 0x4820
82002124:	e6ef2072 	uxtb	r2, r2
82002128:	e5c32000 	strb	r2, [r3]
8200212c:	ea000011 	b	82002178 <disableINT_NUM+0xcc>
82002130:	e55b3005 	ldrb	r3, [fp, #-5]
82002134:	e203301f 	and	r3, r3, #31
82002138:	e3a02001 	mov	r2, #1
8200213c:	e1a02312 	lsl	r2, r2, r3
82002140:	e3a030cc 	mov	r3, #204	; 0xcc
82002144:	e3443820 	movt	r3, #18464	; 0x4820
82002148:	e6ef2072 	uxtb	r2, r2
8200214c:	e5c32000 	strb	r2, [r3]
82002150:	ea000008 	b	82002178 <disableINT_NUM+0xcc>
82002154:	e55b3005 	ldrb	r3, [fp, #-5]
82002158:	e203301f 	and	r3, r3, #31
8200215c:	e3a02001 	mov	r2, #1
82002160:	e1a02312 	lsl	r2, r2, r3
82002164:	e3a030ec 	mov	r3, #236	; 0xec
82002168:	e3443820 	movt	r3, #18464	; 0x4820
8200216c:	e6ef2072 	uxtb	r2, r2
82002170:	e5c32000 	strb	r2, [r3]
82002174:	e320f000 	nop	{0}
82002178:	e320f000 	nop	{0}
8200217c:	e28bd000 	add	sp, fp, #0
82002180:	e49db004 	pop	{fp}		; (ldr fp, [sp], #4)
82002184:	e12fff1e 	bx	lr

82002188 <irq_isr_bind>:
82002188:	e92d4800 	push	{fp, lr}
8200218c:	e28db004 	add	fp, sp, #4
82002190:	e24dd008 	sub	sp, sp, #8
82002194:	e1a03000 	mov	r3, r0
82002198:	e50b100c 	str	r1, [fp, #-12]
8200219c:	e54b3005 	strb	r3, [fp, #-5]
820021a0:	e55b2005 	ldrb	r2, [fp, #-5]
820021a4:	e3093edc 	movw	r3, #40668	; 0x9edc
820021a8:	e3483200 	movt	r3, #33280	; 0x8200
820021ac:	e51b100c 	ldr	r1, [fp, #-12]
820021b0:	e7831102 	str	r1, [r3, r2, lsl #2]
820021b4:	e55b2005 	ldrb	r2, [fp, #-5]
820021b8:	e3a03c01 	mov	r3, #256	; 0x100
820021bc:	e3443820 	movt	r3, #18464	; 0x4820
820021c0:	e0823003 	add	r3, r2, r3
820021c4:	e3a02000 	mov	r2, #0
820021c8:	e5c32000 	strb	r2, [r3]
820021cc:	e55b3005 	ldrb	r3, [fp, #-5]
820021d0:	e1a00003 	mov	r0, r3
820021d4:	ebffff7d 	bl	82001fd0 <eableINT_NUM>
820021d8:	e320f000 	nop	{0}
820021dc:	e24bd004 	sub	sp, fp, #4
820021e0:	e8bd8800 	pop	{fp, pc}

820021e4 <irq_isr_unbind>:
820021e4:	e92d4800 	push	{fp, lr}
820021e8:	e28db004 	add	fp, sp, #4
820021ec:	e24dd008 	sub	sp, sp, #8
820021f0:	e1a03000 	mov	r3, r0
820021f4:	e54b3005 	strb	r3, [fp, #-5]
820021f8:	e55b3005 	ldrb	r3, [fp, #-5]
820021fc:	e1a00003 	mov	r0, r3
82002200:	ebffffa9 	bl	820020ac <disableINT_NUM>
82002204:	e55b2005 	ldrb	r2, [fp, #-5]
82002208:	e3a03c01 	mov	r3, #256	; 0x100
8200220c:	e3443820 	movt	r3, #18464	; 0x4820
82002210:	e0823003 	add	r3, r2, r3
82002214:	e3a02000 	mov	r2, #0
82002218:	e5c32000 	strb	r2, [r3]
8200221c:	e55b2005 	ldrb	r2, [fp, #-5]
82002220:	e3093edc 	movw	r3, #40668	; 0x9edc
82002224:	e3483200 	movt	r3, #33280	; 0x8200
82002228:	e3a01000 	mov	r1, #0
8200222c:	e7831102 	str	r1, [r3, r2, lsl #2]
82002230:	e320f000 	nop	{0}
82002234:	e24bd004 	sub	sp, fp, #4
82002238:	e8bd8800 	pop	{fp, pc}

8200223c <irqs_handler>:
8200223c:	e24ee004 	sub	lr, lr, #4
82002240:	e92d580f 	push	{r0, r1, r2, r3, fp, ip, lr}
82002244:	e28db018 	add	fp, sp, #24
82002248:	e24dd00c 	sub	sp, sp, #12
8200224c:	ebfffeba 	bl	82001d3c <getActivateIrqNum>
82002250:	e1a03000 	mov	r3, r0
82002254:	e54b301d 	strb	r3, [fp, #-29]	; 0xffffffe3
82002258:	e55b201d 	ldrb	r2, [fp, #-29]	; 0xffffffe3
8200225c:	e3093edc 	movw	r3, #40668	; 0x9edc
82002260:	e3483200 	movt	r3, #33280	; 0x8200
82002264:	e7933102 	ldr	r3, [r3, r2, lsl #2]
82002268:	e3530000 	cmp	r3, #0
8200226c:	0a00000a 	beq	8200229c <irqs_handler+0x60>
82002270:	e55b201d 	ldrb	r2, [fp, #-29]	; 0xffffffe3
82002274:	e3093edc 	movw	r3, #40668	; 0x9edc
82002278:	e3483200 	movt	r3, #33280	; 0x8200
8200227c:	e7933102 	ldr	r3, [r3, r2, lsl #2]
82002280:	e12fff33 	blx	r3
82002284:	ebfffe77 	bl	82001c68 <dataSyncBarrier>
82002288:	e3a03048 	mov	r3, #72	; 0x48
8200228c:	e3443820 	movt	r3, #18464	; 0x4820
82002290:	e3a02001 	mov	r2, #1
82002294:	e5c32000 	strb	r2, [r3]
82002298:	ea000000 	b	820022a0 <irqs_handler+0x64>
8200229c:	e320f000 	nop	{0}
820022a0:	e24bd018 	sub	sp, fp, #24
820022a4:	e8fd980f 	ldm	sp!, {r0, r1, r2, r3, fp, ip, pc}^

820022a8 <timer0_ISR>:
820022a8:	e92d4800 	push	{fp, lr}
820022ac:	e28db004 	add	fp, sp, #4
820022b0:	e24dd008 	sub	sp, sp, #8
820022b4:	e50b0008 	str	r0, [fp, #-8]
820022b8:	e3a03a05 	mov	r3, #20480	; 0x5000
820022bc:	e34434e0 	movt	r3, #17632	; 0x44e0
820022c0:	e3a02002 	mov	r2, #2
820022c4:	e5832028 	str	r2, [r3, #40]	; 0x28
820022c8:	e3a00003 	mov	r0, #3
820022cc:	eb001962 	bl	8200885c <usrLedToggle>
820022d0:	e30a30e8 	movw	r3, #41192	; 0xa0e8
820022d4:	e3483200 	movt	r3, #33280	; 0x8200
820022d8:	e5933000 	ldr	r3, [r3]
820022dc:	e51b2008 	ldr	r2, [fp, #-8]
820022e0:	e583201c 	str	r2, [r3, #28]
820022e4:	e30a30e8 	movw	r3, #41192	; 0xa0e8
820022e8:	e3483200 	movt	r3, #33280	; 0x8200
820022ec:	e5933000 	ldr	r3, [r3]
820022f0:	e3a02001 	mov	r2, #1
820022f4:	e5832018 	str	r2, [r3, #24]
820022f8:	e30a30e8 	movw	r3, #41192	; 0xa0e8
820022fc:	e3483200 	movt	r3, #33280	; 0x8200
82002300:	e3a02000 	mov	r2, #0
82002304:	e5832000 	str	r2, [r3]
82002308:	eb001538 	bl	820077f0 <set_sched_context>
8200230c:	e3a03048 	mov	r3, #72	; 0x48
82002310:	e3443820 	movt	r3, #18464	; 0x4820
82002314:	e3a02001 	mov	r2, #1
82002318:	e5c32000 	strb	r2, [r3]
8200231c:	e3093ec8 	movw	r3, #40648	; 0x9ec8
82002320:	e3483200 	movt	r3, #33280	; 0x8200
82002324:	e5933000 	ldr	r3, [r3]
82002328:	e1a00003 	mov	r0, r3
8200232c:	eb00172e 	bl	82007fec <call_sched>
82002330:	e320f000 	nop	{0}
82002334:	e24bd004 	sub	sp, fp, #4
82002338:	e8bd8800 	pop	{fp, pc}

8200233c <timer2_ISR>:
8200233c:	e92d4800 	push	{fp, lr}
82002340:	e28db004 	add	fp, sp, #4
82002344:	e3a00002 	mov	r0, #2
82002348:	eb001943 	bl	8200885c <usrLedToggle>
8200234c:	e3a00001 	mov	r0, #1
82002350:	eb001941 	bl	8200885c <usrLedToggle>
82002354:	e3a00000 	mov	r0, #0
82002358:	eb00193f 	bl	8200885c <usrLedToggle>
8200235c:	e3a03000 	mov	r3, #0
82002360:	e3443804 	movt	r3, #18436	; 0x4804
82002364:	e3a02002 	mov	r2, #2
82002368:	e5832028 	str	r2, [r3, #40]	; 0x28
8200236c:	e320f000 	nop	{0}
82002370:	e8bd8800 	pop	{fp, pc}

82002374 <set_exception_entry>:
82002374:	e52db004 	push	{fp}		; (str fp, [sp, #-4]!)
82002378:	e28db000 	add	fp, sp, #0
8200237c:	e24dd014 	sub	sp, sp, #20
82002380:	e50b0010 	str	r0, [fp, #-16]
82002384:	e51b3010 	ldr	r3, [fp, #-16]
82002388:	e50b3008 	str	r3, [fp, #-8]
8200238c:	e51b3008 	ldr	r3, [fp, #-8]
82002390:	e2833004 	add	r3, r3, #4
82002394:	e50b3008 	str	r3, [fp, #-8]
82002398:	e3a03000 	mov	r3, #0
8200239c:	e50b300c 	str	r3, [fp, #-12]
820023a0:	ea000009 	b	820023cc <set_exception_entry+0x58>
820023a4:	e51b2008 	ldr	r2, [fp, #-8]
820023a8:	e30f3014 	movw	r3, #61460	; 0xf014
820023ac:	e34e359f 	movt	r3, #58783	; 0xe59f
820023b0:	e5823000 	str	r3, [r2]
820023b4:	e51b3008 	ldr	r3, [fp, #-8]
820023b8:	e2833004 	add	r3, r3, #4
820023bc:	e50b3008 	str	r3, [fp, #-8]
820023c0:	e51b300c 	ldr	r3, [fp, #-12]
820023c4:	e2833001 	add	r3, r3, #1
820023c8:	e50b300c 	str	r3, [fp, #-12]
820023cc:	e51b300c 	ldr	r3, [fp, #-12]
820023d0:	e3530006 	cmp	r3, #6
820023d4:	dafffff2 	ble	820023a4 <set_exception_entry+0x30>
820023d8:	e320f000 	nop	{0}
820023dc:	e320f000 	nop	{0}
820023e0:	e28bd000 	add	sp, fp, #0
820023e4:	e49db004 	pop	{fp}		; (ldr fp, [sp], #4)
820023e8:	e12fff1e 	bx	lr

820023ec <prefetch_abort_handler>:
820023ec:	e92d4800 	push	{fp, lr}
820023f0:	e28db004 	add	fp, sp, #4
820023f4:	e24dd018 	sub	sp, sp, #24
820023f8:	e50b0010 	str	r0, [fp, #-16]
820023fc:	e30902e4 	movw	r0, #37604	; 0x92e4
82002400:	e3480200 	movt	r0, #33280	; 0x8200
82002404:	eb000a0e 	bl	82004c44 <printk>
82002408:	e30a30e8 	movw	r3, #41192	; 0xa0e8
8200240c:	e3483200 	movt	r3, #33280	; 0x8200
82002410:	e5933000 	ldr	r3, [r3]
82002414:	e1a01003 	mov	r1, r3
82002418:	e3090300 	movw	r0, #37632	; 0x9300
8200241c:	e3480200 	movt	r0, #33280	; 0x8200
82002420:	eb000a07 	bl	82004c44 <printk>
82002424:	e30a30e8 	movw	r3, #41192	; 0xa0e8
82002428:	e3483200 	movt	r3, #33280	; 0x8200
8200242c:	e5933000 	ldr	r3, [r3]
82002430:	e5933048 	ldr	r3, [r3, #72]	; 0x48
82002434:	e1a01003 	mov	r1, r3
82002438:	e3090318 	movw	r0, #37656	; 0x9318
8200243c:	e3480200 	movt	r0, #33280	; 0x8200
82002440:	eb0009ff 	bl	82004c44 <printk>
82002444:	e51b1010 	ldr	r1, [fp, #-16]
82002448:	e309032c 	movw	r0, #37676	; 0x932c
8200244c:	e3480200 	movt	r0, #33280	; 0x8200
82002450:	eb0009fb 	bl	82004c44 <printk>
82002454:	e30a30e8 	movw	r3, #41192	; 0xa0e8
82002458:	e3483200 	movt	r3, #33280	; 0x8200
8200245c:	e5933000 	ldr	r3, [r3]
82002460:	e593301c 	ldr	r3, [r3, #28]
82002464:	e50b3008 	str	r3, [fp, #-8]
82002468:	e51b3008 	ldr	r3, [fp, #-8]
8200246c:	e5933000 	ldr	r3, [r3]
82002470:	e1a01003 	mov	r1, r3
82002474:	e3090340 	movw	r0, #37696	; 0x9340
82002478:	e3480200 	movt	r0, #33280	; 0x8200
8200247c:	eb0009f0 	bl	82004c44 <printk>
82002480:	e51b3008 	ldr	r3, [fp, #-8]
82002484:	e5931000 	ldr	r1, [r3]
82002488:	e51b3008 	ldr	r3, [fp, #-8]
8200248c:	e5932004 	ldr	r2, [r3, #4]
82002490:	e51b3008 	ldr	r3, [fp, #-8]
82002494:	e5930008 	ldr	r0, [r3, #8]
82002498:	e51b3008 	ldr	r3, [fp, #-8]
8200249c:	e593300c 	ldr	r3, [r3, #12]
820024a0:	e58d3000 	str	r3, [sp]
820024a4:	e1a03000 	mov	r3, r0
820024a8:	e3090354 	movw	r0, #37716	; 0x9354
820024ac:	e3480200 	movt	r0, #33280	; 0x8200
820024b0:	eb0009e3 	bl	82004c44 <printk>
820024b4:	e51b3008 	ldr	r3, [fp, #-8]
820024b8:	e5931010 	ldr	r1, [r3, #16]
820024bc:	e51b3008 	ldr	r3, [fp, #-8]
820024c0:	e5932014 	ldr	r2, [r3, #20]
820024c4:	e51b3008 	ldr	r3, [fp, #-8]
820024c8:	e5930018 	ldr	r0, [r3, #24]
820024cc:	e51b3008 	ldr	r3, [fp, #-8]
820024d0:	e593301c 	ldr	r3, [r3, #28]
820024d4:	e58d3000 	str	r3, [sp]
820024d8:	e1a03000 	mov	r3, r0
820024dc:	e3090378 	movw	r0, #37752	; 0x9378
820024e0:	e3480200 	movt	r0, #33280	; 0x8200
820024e4:	eb0009d6 	bl	82004c44 <printk>
820024e8:	e51b3008 	ldr	r3, [fp, #-8]
820024ec:	e5931020 	ldr	r1, [r3, #32]
820024f0:	e51b3008 	ldr	r3, [fp, #-8]
820024f4:	e5932024 	ldr	r2, [r3, #36]	; 0x24
820024f8:	e51b3008 	ldr	r3, [fp, #-8]
820024fc:	e5930028 	ldr	r0, [r3, #40]	; 0x28
82002500:	e51b3008 	ldr	r3, [fp, #-8]
82002504:	e593302c 	ldr	r3, [r3, #44]	; 0x2c
82002508:	e58d3000 	str	r3, [sp]
8200250c:	e1a03000 	mov	r3, r0
82002510:	e309039c 	movw	r0, #37788	; 0x939c
82002514:	e3480200 	movt	r0, #33280	; 0x8200
82002518:	eb0009c9 	bl	82004c44 <printk>
8200251c:	e51b3008 	ldr	r3, [fp, #-8]
82002520:	e5931030 	ldr	r1, [r3, #48]	; 0x30
82002524:	e51b3008 	ldr	r3, [fp, #-8]
82002528:	e5933034 	ldr	r3, [r3, #52]	; 0x34
8200252c:	e1a02003 	mov	r2, r3
82002530:	e30903c4 	movw	r0, #37828	; 0x93c4
82002534:	e3480200 	movt	r0, #33280	; 0x8200
82002538:	eb0009c1 	bl	82004c44 <printk>
8200253c:	e3e0100f 	mvn	r1, #15
82002540:	e3a00a05 	mov	r0, #20480	; 0x5000
82002544:	e34404e3 	movt	r0, #17635	; 0x44e3
82002548:	eb0017b3 	bl	8200841c <set_wdt_count>
8200254c:	e3a00a05 	mov	r0, #20480	; 0x5000
82002550:	e34404e3 	movt	r0, #17635	; 0x44e3
82002554:	eb00178f 	bl	82008398 <enable_watchdog>
82002558:	eafffffe 	b	82002558 <prefetch_abort_handler+0x16c>

8200255c <data_abort_handler>:
8200255c:	e92d4800 	push	{fp, lr}
82002560:	e28db004 	add	fp, sp, #4
82002564:	e24dd018 	sub	sp, sp, #24
82002568:	e50b0010 	str	r0, [fp, #-16]
8200256c:	e30903d8 	movw	r0, #37848	; 0x93d8
82002570:	e3480200 	movt	r0, #33280	; 0x8200
82002574:	eb0009b2 	bl	82004c44 <printk>
82002578:	e30a30e8 	movw	r3, #41192	; 0xa0e8
8200257c:	e3483200 	movt	r3, #33280	; 0x8200
82002580:	e5933000 	ldr	r3, [r3]
82002584:	e1a01003 	mov	r1, r3
82002588:	e3090300 	movw	r0, #37632	; 0x9300
8200258c:	e3480200 	movt	r0, #33280	; 0x8200
82002590:	eb0009ab 	bl	82004c44 <printk>
82002594:	e30a30e8 	movw	r3, #41192	; 0xa0e8
82002598:	e3483200 	movt	r3, #33280	; 0x8200
8200259c:	e5933000 	ldr	r3, [r3]
820025a0:	e5933048 	ldr	r3, [r3, #72]	; 0x48
820025a4:	e1a01003 	mov	r1, r3
820025a8:	e3090318 	movw	r0, #37656	; 0x9318
820025ac:	e3480200 	movt	r0, #33280	; 0x8200
820025b0:	eb0009a3 	bl	82004c44 <printk>
820025b4:	e51b1010 	ldr	r1, [fp, #-16]
820025b8:	e309032c 	movw	r0, #37676	; 0x932c
820025bc:	e3480200 	movt	r0, #33280	; 0x8200
820025c0:	eb00099f 	bl	82004c44 <printk>
820025c4:	e30a30e8 	movw	r3, #41192	; 0xa0e8
820025c8:	e3483200 	movt	r3, #33280	; 0x8200
820025cc:	e5933000 	ldr	r3, [r3]
820025d0:	e593301c 	ldr	r3, [r3, #28]
820025d4:	e50b3008 	str	r3, [fp, #-8]
820025d8:	e51b3008 	ldr	r3, [fp, #-8]
820025dc:	e5933000 	ldr	r3, [r3]
820025e0:	e1a01003 	mov	r1, r3
820025e4:	e3090340 	movw	r0, #37696	; 0x9340
820025e8:	e3480200 	movt	r0, #33280	; 0x8200
820025ec:	eb000994 	bl	82004c44 <printk>
820025f0:	e51b3008 	ldr	r3, [fp, #-8]
820025f4:	e5931000 	ldr	r1, [r3]
820025f8:	e51b3008 	ldr	r3, [fp, #-8]
820025fc:	e5932004 	ldr	r2, [r3, #4]
82002600:	e51b3008 	ldr	r3, [fp, #-8]
82002604:	e5930008 	ldr	r0, [r3, #8]
82002608:	e51b3008 	ldr	r3, [fp, #-8]
8200260c:	e593300c 	ldr	r3, [r3, #12]
82002610:	e58d3000 	str	r3, [sp]
82002614:	e1a03000 	mov	r3, r0
82002618:	e3090354 	movw	r0, #37716	; 0x9354
8200261c:	e3480200 	movt	r0, #33280	; 0x8200
82002620:	eb000987 	bl	82004c44 <printk>
82002624:	e51b3008 	ldr	r3, [fp, #-8]
82002628:	e5931010 	ldr	r1, [r3, #16]
8200262c:	e51b3008 	ldr	r3, [fp, #-8]
82002630:	e5932014 	ldr	r2, [r3, #20]
82002634:	e51b3008 	ldr	r3, [fp, #-8]
82002638:	e5930018 	ldr	r0, [r3, #24]
8200263c:	e51b3008 	ldr	r3, [fp, #-8]
82002640:	e593301c 	ldr	r3, [r3, #28]
82002644:	e58d3000 	str	r3, [sp]
82002648:	e1a03000 	mov	r3, r0
8200264c:	e3090378 	movw	r0, #37752	; 0x9378
82002650:	e3480200 	movt	r0, #33280	; 0x8200
82002654:	eb00097a 	bl	82004c44 <printk>
82002658:	e51b3008 	ldr	r3, [fp, #-8]
8200265c:	e5931020 	ldr	r1, [r3, #32]
82002660:	e51b3008 	ldr	r3, [fp, #-8]
82002664:	e5932024 	ldr	r2, [r3, #36]	; 0x24
82002668:	e51b3008 	ldr	r3, [fp, #-8]
8200266c:	e5930028 	ldr	r0, [r3, #40]	; 0x28
82002670:	e51b3008 	ldr	r3, [fp, #-8]
82002674:	e593302c 	ldr	r3, [r3, #44]	; 0x2c
82002678:	e58d3000 	str	r3, [sp]
8200267c:	e1a03000 	mov	r3, r0
82002680:	e309039c 	movw	r0, #37788	; 0x939c
82002684:	e3480200 	movt	r0, #33280	; 0x8200
82002688:	eb00096d 	bl	82004c44 <printk>
8200268c:	e51b3008 	ldr	r3, [fp, #-8]
82002690:	e5931030 	ldr	r1, [r3, #48]	; 0x30
82002694:	e51b3008 	ldr	r3, [fp, #-8]
82002698:	e5933034 	ldr	r3, [r3, #52]	; 0x34
8200269c:	e1a02003 	mov	r2, r3
820026a0:	e30903c4 	movw	r0, #37828	; 0x93c4
820026a4:	e3480200 	movt	r0, #33280	; 0x8200
820026a8:	eb000965 	bl	82004c44 <printk>
820026ac:	e3e0100f 	mvn	r1, #15
820026b0:	e3a00a05 	mov	r0, #20480	; 0x5000
820026b4:	e34404e3 	movt	r0, #17635	; 0x44e3
820026b8:	eb001757 	bl	8200841c <set_wdt_count>
820026bc:	e3a00a05 	mov	r0, #20480	; 0x5000
820026c0:	e34404e3 	movt	r0, #17635	; 0x44e3
820026c4:	eb001733 	bl	82008398 <enable_watchdog>
820026c8:	eafffffe 	b	820026c8 <data_abort_handler+0x16c>

820026cc <ipc_buf_alloc>:
820026cc:	e92d4800 	push	{fp, lr}
820026d0:	e28db004 	add	fp, sp, #4
820026d4:	e3a01080 	mov	r1, #128	; 0x80
820026d8:	e30a00fc 	movw	r0, #41212	; 0xa0fc
820026dc:	e3480200 	movt	r0, #33280	; 0x8200
820026e0:	eb000b35 	bl	820053bc <kq_init>
820026e4:	e1a03000 	mov	r3, r0
820026e8:	e3530000 	cmp	r3, #0
820026ec:	0a000001 	beq	820026f8 <ipc_buf_alloc+0x2c>
820026f0:	e3e03000 	mvn	r3, #0
820026f4:	ea000000 	b	820026fc <ipc_buf_alloc+0x30>
820026f8:	e3a03000 	mov	r3, #0
820026fc:	e1a00003 	mov	r0, r3
82002700:	e8bd8800 	pop	{fp, pc}

82002704 <ipc_read_func>:
82002704:	e92d4800 	push	{fp, lr}
82002708:	e28db004 	add	fp, sp, #4
8200270c:	e24dd010 	sub	sp, sp, #16
82002710:	e50b0010 	str	r0, [fp, #-16]
82002714:	e50b1014 	str	r1, [fp, #-20]	; 0xffffffec
82002718:	e51b3010 	ldr	r3, [fp, #-16]
8200271c:	e50b3008 	str	r3, [fp, #-8]
82002720:	e3a03000 	mov	r3, #0
82002724:	e50b300c 	str	r3, [fp, #-12]
82002728:	ea00000f 	b	8200276c <ipc_read_func+0x68>
8200272c:	e30a00fc 	movw	r0, #41212	; 0xa0fc
82002730:	e3480200 	movt	r0, #33280	; 0x8200
82002734:	eb000b9d 	bl	820055b0 <dequeue>
82002738:	e1a03000 	mov	r3, r0
8200273c:	e1a02003 	mov	r2, r3
82002740:	e51b3008 	ldr	r3, [fp, #-8]
82002744:	e5c32000 	strb	r2, [r3]
82002748:	e51b3008 	ldr	r3, [fp, #-8]
8200274c:	e2833001 	add	r3, r3, #1
82002750:	e50b3008 	str	r3, [fp, #-8]
82002754:	e51b300c 	ldr	r3, [fp, #-12]
82002758:	e2833001 	add	r3, r3, #1
8200275c:	e50b300c 	str	r3, [fp, #-12]
82002760:	e51b3014 	ldr	r3, [fp, #-20]	; 0xffffffec
82002764:	e2433001 	sub	r3, r3, #1
82002768:	e50b3014 	str	r3, [fp, #-20]	; 0xffffffec
8200276c:	e51b3014 	ldr	r3, [fp, #-20]	; 0xffffffec
82002770:	e3530000 	cmp	r3, #0
82002774:	1affffec 	bne	8200272c <ipc_read_func+0x28>
82002778:	e51b300c 	ldr	r3, [fp, #-12]
8200277c:	e1a00003 	mov	r0, r3
82002780:	e24bd004 	sub	sp, fp, #4
82002784:	e8bd8800 	pop	{fp, pc}

82002788 <ipc_write_func>:
82002788:	e92d4800 	push	{fp, lr}
8200278c:	e28db004 	add	fp, sp, #4
82002790:	e24dd010 	sub	sp, sp, #16
82002794:	e50b0010 	str	r0, [fp, #-16]
82002798:	e50b1014 	str	r1, [fp, #-20]	; 0xffffffec
8200279c:	e51b3010 	ldr	r3, [fp, #-16]
820027a0:	e50b3008 	str	r3, [fp, #-8]
820027a4:	e3a03000 	mov	r3, #0
820027a8:	e50b300c 	str	r3, [fp, #-12]
820027ac:	ea000013 	b	82002800 <ipc_write_func+0x78>
820027b0:	e51b3008 	ldr	r3, [fp, #-8]
820027b4:	e5d33000 	ldrb	r3, [r3]
820027b8:	e1a01003 	mov	r1, r3
820027bc:	e30a00fc 	movw	r0, #41212	; 0xa0fc
820027c0:	e3480200 	movt	r0, #33280	; 0x8200
820027c4:	eb000b4d 	bl	82005500 <enqueue>
820027c8:	e1a03000 	mov	r3, r0
820027cc:	e3530000 	cmp	r3, #0
820027d0:	0a000001 	beq	820027dc <ipc_write_func+0x54>
820027d4:	e3e03000 	mvn	r3, #0
820027d8:	ea00000c 	b	82002810 <ipc_write_func+0x88>
820027dc:	e51b3008 	ldr	r3, [fp, #-8]
820027e0:	e2833001 	add	r3, r3, #1
820027e4:	e50b3008 	str	r3, [fp, #-8]
820027e8:	e51b300c 	ldr	r3, [fp, #-12]
820027ec:	e2833001 	add	r3, r3, #1
820027f0:	e50b300c 	str	r3, [fp, #-12]
820027f4:	e51b3014 	ldr	r3, [fp, #-20]	; 0xffffffec
820027f8:	e2433001 	sub	r3, r3, #1
820027fc:	e50b3014 	str	r3, [fp, #-20]	; 0xffffffec
82002800:	e51b3014 	ldr	r3, [fp, #-20]	; 0xffffffec
82002804:	e3530000 	cmp	r3, #0
82002808:	1affffe8 	bne	820027b0 <ipc_write_func+0x28>
8200280c:	e3a03000 	mov	r3, #0
82002810:	e1a00003 	mov	r0, r3
82002814:	e24bd004 	sub	sp, fp, #4
82002818:	e8bd8800 	pop	{fp, pc}

8200281c <free_ipc>:
8200281c:	e92d4800 	push	{fp, lr}
82002820:	e28db004 	add	fp, sp, #4
82002824:	e30a00fc 	movw	r0, #41212	; 0xa0fc
82002828:	e3480200 	movt	r0, #33280	; 0x8200
8200282c:	eb000b08 	bl	82005454 <kq_delete>
82002830:	e320f000 	nop	{0}
82002834:	e8bd8800 	pop	{fp, pc}

82002838 <ipc0_test>:
82002838:	e92d4800 	push	{fp, lr}
8200283c:	e28db004 	add	fp, sp, #4
82002840:	e24dd008 	sub	sp, sp, #8
82002844:	eb001826 	bl	820088e4 <__gettid>
82002848:	e1a03000 	mov	r3, r0
8200284c:	e1a01003 	mov	r1, r3
82002850:	e30903f4 	movw	r0, #37876	; 0x93f4
82002854:	e3480200 	movt	r0, #33280	; 0x8200
82002858:	eb000dd7 	bl	82005fbc <uprintf>
8200285c:	e3090400 	movw	r0, #37888	; 0x9400
82002860:	e3480200 	movt	r0, #33280	; 0x8200
82002864:	eb00187e 	bl	82008a64 <__open>
82002868:	e50b0008 	str	r0, [fp, #-8]
8200286c:	e51b3008 	ldr	r3, [fp, #-8]
82002870:	e3530000 	cmp	r3, #0
82002874:	aa000004 	bge	8200288c <ipc0_test+0x54>
82002878:	e51b1008 	ldr	r1, [fp, #-8]
8200287c:	e3090408 	movw	r0, #37896	; 0x9408
82002880:	e3480200 	movt	r0, #33280	; 0x8200
82002884:	eb000dcc 	bl	82005fbc <uprintf>
82002888:	eb00181b 	bl	820088fc <__exit>
8200288c:	e51b1008 	ldr	r1, [fp, #-8]
82002890:	e3090420 	movw	r0, #37920	; 0x9420
82002894:	e3480200 	movt	r0, #33280	; 0x8200
82002898:	eb000dc7 	bl	82005fbc <uprintf>
8200289c:	e3090444 	movw	r0, #37956	; 0x9444
820028a0:	e3480200 	movt	r0, #33280	; 0x8200
820028a4:	eb000db0 	bl	82005f6c <put_str>
820028a8:	e3a02017 	mov	r2, #23
820028ac:	e3091444 	movw	r1, #37956	; 0x9444
820028b0:	e3481200 	movt	r1, #33280	; 0x8200
820028b4:	e51b0008 	ldr	r0, [fp, #-8]
820028b8:	eb001843 	bl	820089cc <__write>
820028bc:	e51b0008 	ldr	r0, [fp, #-8]
820028c0:	eb0018d7 	bl	82008c24 <__close>
820028c4:	eb00180c 	bl	820088fc <__exit>
820028c8:	e320f000 	nop	{0}
820028cc:	e24bd004 	sub	sp, fp, #4
820028d0:	e8bd8800 	pop	{fp, pc}

820028d4 <ipc_test_main>:
820028d4:	e92d4800 	push	{fp, lr}
820028d8:	e28db004 	add	fp, sp, #4
820028dc:	e24dd028 	sub	sp, sp, #40	; 0x28
820028e0:	e309045c 	movw	r0, #37980	; 0x945c
820028e4:	e3480200 	movt	r0, #33280	; 0x8200
820028e8:	eb000db3 	bl	82005fbc <uprintf>
820028ec:	e3090488 	movw	r0, #38024	; 0x9488
820028f0:	e3480200 	movt	r0, #33280	; 0x8200
820028f4:	eb000db0 	bl	82005fbc <uprintf>
820028f8:	e3a01000 	mov	r1, #0
820028fc:	e3020838 	movw	r0, #10296	; 0x2838
82002900:	e3480200 	movt	r0, #33280	; 0x8200
82002904:	eb001806 	bl	82008924 <__do_taskCreate>
82002908:	eb0017f5 	bl	820088e4 <__gettid>
8200290c:	e1a03000 	mov	r3, r0
82002910:	e1a01003 	mov	r1, r3
82002914:	e30903f4 	movw	r0, #37876	; 0x93f4
82002918:	e3480200 	movt	r0, #33280	; 0x8200
8200291c:	eb000da6 	bl	82005fbc <uprintf>
82002920:	e3090400 	movw	r0, #37888	; 0x9400
82002924:	e3480200 	movt	r0, #33280	; 0x8200
82002928:	eb00184d 	bl	82008a64 <__open>
8200292c:	e50b0008 	str	r0, [fp, #-8]
82002930:	e51b3008 	ldr	r3, [fp, #-8]
82002934:	e3530000 	cmp	r3, #0
82002938:	aa000005 	bge	82002954 <ipc_test_main+0x80>
8200293c:	e51b1008 	ldr	r1, [fp, #-8]
82002940:	e3090498 	movw	r0, #38040	; 0x9498
82002944:	e3480200 	movt	r0, #33280	; 0x8200
82002948:	eb000d9b 	bl	82005fbc <uprintf>
8200294c:	e3a03000 	mov	r3, #0
82002950:	ea00001b 	b	820029c4 <ipc_test_main+0xf0>
82002954:	e51b1008 	ldr	r1, [fp, #-8]
82002958:	e30904b4 	movw	r0, #38068	; 0x94b4
8200295c:	e3480200 	movt	r0, #33280	; 0x8200
82002960:	eb000d95 	bl	82005fbc <uprintf>
82002964:	e24b302c 	sub	r3, fp, #44	; 0x2c
82002968:	e3a02020 	mov	r2, #32
8200296c:	e3a01000 	mov	r1, #0
82002970:	e1a00003 	mov	r0, r3
82002974:	eb000090 	bl	82002bbc <_memset>
82002978:	e24b302c 	sub	r3, fp, #44	; 0x2c
8200297c:	e3a02017 	mov	r2, #23
82002980:	e1a01003 	mov	r1, r3
82002984:	e51b0008 	ldr	r0, [fp, #-8]
82002988:	eb001822 	bl	82008a18 <__read>
8200298c:	e50b000c 	str	r0, [fp, #-12]
82002990:	e51b100c 	ldr	r1, [fp, #-12]
82002994:	e30904d0 	movw	r0, #38096	; 0x94d0
82002998:	e3480200 	movt	r0, #33280	; 0x8200
8200299c:	eb000d86 	bl	82005fbc <uprintf>
820029a0:	e30904d8 	movw	r0, #38104	; 0x94d8
820029a4:	e3480200 	movt	r0, #33280	; 0x8200
820029a8:	eb000d6f 	bl	82005f6c <put_str>
820029ac:	e24b302c 	sub	r3, fp, #44	; 0x2c
820029b0:	e1a00003 	mov	r0, r3
820029b4:	eb000d6c 	bl	82005f6c <put_str>
820029b8:	e51b0008 	ldr	r0, [fp, #-8]
820029bc:	eb001898 	bl	82008c24 <__close>
820029c0:	e3a03000 	mov	r3, #0
820029c4:	e1a00003 	mov	r0, r3
820029c8:	e24bd004 	sub	sp, fp, #4
820029cc:	e8bd8800 	pop	{fp, pc}

820029d0 <kernal_entry>:
820029d0:	e92d4810 	push	{r4, fp, lr}
820029d4:	e28db008 	add	fp, sp, #8
820029d8:	e24dd014 	sub	sp, sp, #20
820029dc:	e3a03801 	mov	r3, #65536	; 0x10000
820029e0:	e50b3010 	str	r3, [fp, #-16]
820029e4:	e3093e74 	movw	r3, #40564	; 0x9e74
820029e8:	e3483200 	movt	r3, #33280	; 0x8200
820029ec:	e5933000 	ldr	r3, [r3]
820029f0:	e1a02003 	mov	r2, r3
820029f4:	e51b3010 	ldr	r3, [fp, #-16]
820029f8:	e0823003 	add	r3, r2, r3
820029fc:	e2433001 	sub	r3, r3, #1
82002a00:	e50b3014 	str	r3, [fp, #-20]	; 0xffffffec
82002a04:	e51b3014 	ldr	r3, [fp, #-20]	; 0xffffffec
82002a08:	e51b1010 	ldr	r1, [fp, #-16]
82002a0c:	e1a00003 	mov	r0, r3
82002a10:	eb0018c9 	bl	82008d3c <__aeabi_uidivmod>
82002a14:	e1a03001 	mov	r3, r1
82002a18:	e1a02003 	mov	r2, r3
82002a1c:	e51b3014 	ldr	r3, [fp, #-20]	; 0xffffffec
82002a20:	e0433002 	sub	r3, r3, r2
82002a24:	e3a02a01 	mov	r2, #4096	; 0x1000
82002a28:	e3a01000 	mov	r1, #0
82002a2c:	e1a00003 	mov	r0, r3
82002a30:	eb000061 	bl	82002bbc <_memset>
82002a34:	eb0006ce 	bl	82004574 <mmu_init>
82002a38:	e30904e0 	movw	r0, #38112	; 0x94e0
82002a3c:	e3480200 	movt	r0, #33280	; 0x8200
82002a40:	eb00087f 	bl	82004c44 <printk>
82002a44:	e30904f0 	movw	r0, #38128	; 0x94f0
82002a48:	e3480200 	movt	r0, #33280	; 0x8200
82002a4c:	eb00087c 	bl	82004c44 <printk>
82002a50:	eb000cf8 	bl	82005e38 <READ_SP>
82002a54:	e1a04000 	mov	r4, r0
82002a58:	eb000cf8 	bl	82005e40 <READ_CP15_c1>
82002a5c:	e1a03000 	mov	r3, r0
82002a60:	e1a02003 	mov	r2, r3
82002a64:	e1a01004 	mov	r1, r4
82002a68:	e309050c 	movw	r0, #38156	; 0x950c
82002a6c:	e3480200 	movt	r0, #33280	; 0x8200
82002a70:	eb000873 	bl	82004c44 <printk>
82002a74:	eb000ced 	bl	82005e30 <READ_CPSR>
82002a78:	e1a03000 	mov	r3, r0
82002a7c:	e1a01003 	mov	r1, r3
82002a80:	e3090528 	movw	r0, #38184	; 0x9528
82002a84:	e3480200 	movt	r0, #33280	; 0x8200
82002a88:	eb00086d 	bl	82004c44 <printk>
82002a8c:	ebfffd1a 	bl	82001efc <getIntVectorAddr>
82002a90:	e1a03000 	mov	r3, r0
82002a94:	e1a01003 	mov	r1, r3
82002a98:	e309053c 	movw	r0, #38204	; 0x953c
82002a9c:	e3480200 	movt	r0, #33280	; 0x8200
82002aa0:	eb000867 	bl	82004c44 <printk>
82002aa4:	e3093e74 	movw	r3, #40564	; 0x9e74
82002aa8:	e3483200 	movt	r3, #33280	; 0x8200
82002aac:	e5933000 	ldr	r3, [r3]
82002ab0:	e1a01003 	mov	r1, r3
82002ab4:	e309055c 	movw	r0, #38236	; 0x955c
82002ab8:	e3480200 	movt	r0, #33280	; 0x8200
82002abc:	eb000860 	bl	82004c44 <printk>
82002ac0:	e3a03801 	mov	r3, #65536	; 0x10000
82002ac4:	e50b3018 	str	r3, [fp, #-24]	; 0xffffffe8
82002ac8:	e3093e74 	movw	r3, #40564	; 0x9e74
82002acc:	e3483200 	movt	r3, #33280	; 0x8200
82002ad0:	e5933000 	ldr	r3, [r3]
82002ad4:	e1a02003 	mov	r2, r3
82002ad8:	e51b3018 	ldr	r3, [fp, #-24]	; 0xffffffe8
82002adc:	e0823003 	add	r3, r2, r3
82002ae0:	e2433001 	sub	r3, r3, #1
82002ae4:	e50b301c 	str	r3, [fp, #-28]	; 0xffffffe4
82002ae8:	e51b301c 	ldr	r3, [fp, #-28]	; 0xffffffe4
82002aec:	e51b1018 	ldr	r1, [fp, #-24]	; 0xffffffe8
82002af0:	e1a00003 	mov	r0, r3
82002af4:	eb001890 	bl	82008d3c <__aeabi_uidivmod>
82002af8:	e1a03001 	mov	r3, r1
82002afc:	e1a02003 	mov	r2, r3
82002b00:	e51b301c 	ldr	r3, [fp, #-28]	; 0xffffffe4
82002b04:	e0433002 	sub	r3, r3, r2
82002b08:	e1a01003 	mov	r1, r3
82002b0c:	e3090578 	movw	r0, #38264	; 0x9578
82002b10:	e3480200 	movt	r0, #33280	; 0x8200
82002b14:	eb00084a 	bl	82004c44 <printk>
82002b18:	eb001708 	bl	82008740 <usrLedInit>
82002b1c:	e30905a8 	movw	r0, #38312	; 0x95a8
82002b20:	e3480200 	movt	r0, #33280	; 0x8200
82002b24:	eb000846 	bl	82004c44 <printk>
82002b28:	ebfffd1c 	bl	82001fa0 <interrupt_init>
82002b2c:	e30905c4 	movw	r0, #38340	; 0x95c4
82002b30:	e3480200 	movt	r0, #33280	; 0x8200
82002b34:	eb000842 	bl	82004c44 <printk>
82002b38:	e3a00a05 	mov	r0, #20480	; 0x5000
82002b3c:	e34404e0 	movt	r0, #17632	; 0x44e0
82002b40:	eb00155a 	bl	820080b0 <OsTickInit>
82002b44:	e3a00042 	mov	r0, #66	; 0x42
82002b48:	eb0015ad 	bl	82008204 <enableOsTick>
82002b4c:	e30905d8 	movw	r0, #38360	; 0x95d8
82002b50:	e3480200 	movt	r0, #33280	; 0x8200
82002b54:	eb00083a 	bl	82004c44 <printk>
82002b58:	eb0003c1 	bl	82003a64 <kpage_struct_init>
82002b5c:	eb000080 	bl	82002d64 <page_list_init>
82002b60:	eb00041d 	bl	82003bdc <kpage_blks_init>
82002b64:	ebfff8c3 	bl	82000e78 <file_in_ram_init>
82002b68:	e30905f8 	movw	r0, #38392	; 0x95f8
82002b6c:	e3480200 	movt	r0, #33280	; 0x8200
82002b70:	eb000833 	bl	82004c44 <printk>
82002b74:	eb001335 	bl	82007850 <task_init>
82002b78:	e3051774 	movw	r1, #22388	; 0x5774
82002b7c:	e3481200 	movt	r1, #33280	; 0x8200
82002b80:	e3a00004 	mov	r0, #4
82002b84:	eb001390 	bl	820079cc <do_ktaskCreate>
82002b88:	e3090610 	movw	r0, #38416	; 0x9610
82002b8c:	e3480200 	movt	r0, #33280	; 0x8200
82002b90:	eb00082b 	bl	82004c44 <printk>
82002b94:	e3a00a05 	mov	r0, #20480	; 0x5000
82002b98:	e34404e3 	movt	r0, #17635	; 0x44e3
82002b9c:	eb0015dc 	bl	82008314 <disable_watchdog>
82002ba0:	eb00131e 	bl	82007820 <set_first_sched>
82002ba4:	e3093ec8 	movw	r3, #40648	; 0x9ec8
82002ba8:	e3483200 	movt	r3, #33280	; 0x8200
82002bac:	e5933000 	ldr	r3, [r3]
82002bb0:	e1a00003 	mov	r0, r3
82002bb4:	eb00150c 	bl	82007fec <call_sched>
82002bb8:	eafffffe 	b	82002bb8 <kernal_entry+0x1e8>

82002bbc <_memset>:
82002bbc:	e52db004 	push	{fp}		; (str fp, [sp, #-4]!)
82002bc0:	e28db000 	add	fp, sp, #0
82002bc4:	e24dd01c 	sub	sp, sp, #28
82002bc8:	e50b0010 	str	r0, [fp, #-16]
82002bcc:	e1a03001 	mov	r3, r1
82002bd0:	e50b2018 	str	r2, [fp, #-24]	; 0xffffffe8
82002bd4:	e54b3011 	strb	r3, [fp, #-17]	; 0xffffffef
82002bd8:	e51b3010 	ldr	r3, [fp, #-16]
82002bdc:	e50b3008 	str	r3, [fp, #-8]
82002be0:	e3a03000 	mov	r3, #0
82002be4:	e50b300c 	str	r3, [fp, #-12]
82002be8:	ea000008 	b	82002c10 <_memset+0x54>
82002bec:	e51b3008 	ldr	r3, [fp, #-8]
82002bf0:	e55b2011 	ldrb	r2, [fp, #-17]	; 0xffffffef
82002bf4:	e5c32000 	strb	r2, [r3]
82002bf8:	e51b3008 	ldr	r3, [fp, #-8]
82002bfc:	e2833001 	add	r3, r3, #1
82002c00:	e50b3008 	str	r3, [fp, #-8]
82002c04:	e51b300c 	ldr	r3, [fp, #-12]
82002c08:	e2833001 	add	r3, r3, #1
82002c0c:	e50b300c 	str	r3, [fp, #-12]
82002c10:	e51b200c 	ldr	r2, [fp, #-12]
82002c14:	e51b3018 	ldr	r3, [fp, #-24]	; 0xffffffe8
82002c18:	e1520003 	cmp	r2, r3
82002c1c:	3afffff2 	bcc	82002bec <_memset+0x30>
82002c20:	e320f000 	nop	{0}
82002c24:	e320f000 	nop	{0}
82002c28:	e28bd000 	add	sp, fp, #0
82002c2c:	e49db004 	pop	{fp}		; (ldr fp, [sp], #4)
82002c30:	e12fff1e 	bx	lr

82002c34 <_showmm>:
82002c34:	e92d4800 	push	{fp, lr}
82002c38:	e28db004 	add	fp, sp, #4
82002c3c:	e24dd010 	sub	sp, sp, #16
82002c40:	e50b0010 	str	r0, [fp, #-16]
82002c44:	e50b1014 	str	r1, [fp, #-20]	; 0xffffffec
82002c48:	e51b3010 	ldr	r3, [fp, #-16]
82002c4c:	e50b3008 	str	r3, [fp, #-8]
82002c50:	e3090624 	movw	r0, #38436	; 0x9624
82002c54:	e3480200 	movt	r0, #33280	; 0x8200
82002c58:	eb0007f9 	bl	82004c44 <printk>
82002c5c:	e3a03000 	mov	r3, #0
82002c60:	e50b300c 	str	r3, [fp, #-12]
82002c64:	ea000016 	b	82002cc4 <_showmm+0x90>
82002c68:	e51b300c 	ldr	r3, [fp, #-12]
82002c6c:	e2033003 	and	r3, r3, #3
82002c70:	e3530000 	cmp	r3, #0
82002c74:	1a000006 	bne	82002c94 <_showmm+0x60>
82002c78:	e309063c 	movw	r0, #38460	; 0x963c
82002c7c:	e3480200 	movt	r0, #33280	; 0x8200
82002c80:	eb0007ef 	bl	82004c44 <printk>
82002c84:	e51b1008 	ldr	r1, [fp, #-8]
82002c88:	e3090640 	movw	r0, #38464	; 0x9640
82002c8c:	e3480200 	movt	r0, #33280	; 0x8200
82002c90:	eb0007eb 	bl	82004c44 <printk>
82002c94:	e51b3008 	ldr	r3, [fp, #-8]
82002c98:	e5d33000 	ldrb	r3, [r3]
82002c9c:	e1a01003 	mov	r1, r3
82002ca0:	e3090648 	movw	r0, #38472	; 0x9648
82002ca4:	e3480200 	movt	r0, #33280	; 0x8200
82002ca8:	eb0007e5 	bl	82004c44 <printk>
82002cac:	e51b3008 	ldr	r3, [fp, #-8]
82002cb0:	e2833001 	add	r3, r3, #1
82002cb4:	e50b3008 	str	r3, [fp, #-8]
82002cb8:	e51b300c 	ldr	r3, [fp, #-12]
82002cbc:	e2833001 	add	r3, r3, #1
82002cc0:	e50b300c 	str	r3, [fp, #-12]
82002cc4:	e51b200c 	ldr	r2, [fp, #-12]
82002cc8:	e51b3014 	ldr	r3, [fp, #-20]	; 0xffffffec
82002ccc:	e1520003 	cmp	r2, r3
82002cd0:	3affffe4 	bcc	82002c68 <_showmm+0x34>
82002cd4:	e320f000 	nop	{0}
82002cd8:	e320f000 	nop	{0}
82002cdc:	e24bd004 	sub	sp, fp, #4
82002ce0:	e8bd8800 	pop	{fp, pc}

82002ce4 <_memcpy>:
82002ce4:	e52db004 	push	{fp}		; (str fp, [sp, #-4]!)
82002ce8:	e28db000 	add	fp, sp, #0
82002cec:	e24dd01c 	sub	sp, sp, #28
82002cf0:	e50b0010 	str	r0, [fp, #-16]
82002cf4:	e50b1014 	str	r1, [fp, #-20]	; 0xffffffec
82002cf8:	e50b2018 	str	r2, [fp, #-24]	; 0xffffffe8
82002cfc:	e51b3010 	ldr	r3, [fp, #-16]
82002d00:	e50b3008 	str	r3, [fp, #-8]
82002d04:	e51b3014 	ldr	r3, [fp, #-20]	; 0xffffffec
82002d08:	e50b300c 	str	r3, [fp, #-12]
82002d0c:	ea00000c 	b	82002d44 <_memcpy+0x60>
82002d10:	e51b300c 	ldr	r3, [fp, #-12]
82002d14:	e5d32000 	ldrb	r2, [r3]
82002d18:	e51b3008 	ldr	r3, [fp, #-8]
82002d1c:	e5c32000 	strb	r2, [r3]
82002d20:	e51b3008 	ldr	r3, [fp, #-8]
82002d24:	e2833001 	add	r3, r3, #1
82002d28:	e50b3008 	str	r3, [fp, #-8]
82002d2c:	e51b300c 	ldr	r3, [fp, #-12]
82002d30:	e2833001 	add	r3, r3, #1
82002d34:	e50b300c 	str	r3, [fp, #-12]
82002d38:	e51b3018 	ldr	r3, [fp, #-24]	; 0xffffffe8
82002d3c:	e2433001 	sub	r3, r3, #1
82002d40:	e50b3018 	str	r3, [fp, #-24]	; 0xffffffe8
82002d44:	e51b3018 	ldr	r3, [fp, #-24]	; 0xffffffe8
82002d48:	e3530000 	cmp	r3, #0
82002d4c:	1affffef 	bne	82002d10 <_memcpy+0x2c>
82002d50:	e320f000 	nop	{0}
82002d54:	e320f000 	nop	{0}
82002d58:	e28bd000 	add	sp, fp, #0
82002d5c:	e49db004 	pop	{fp}		; (ldr fp, [sp], #4)
82002d60:	e12fff1e 	bx	lr

82002d64 <page_list_init>:
82002d64:	e52db004 	push	{fp}		; (str fp, [sp, #-4]!)
82002d68:	e28db000 	add	fp, sp, #0
82002d6c:	e24dd00c 	sub	sp, sp, #12
82002d70:	e3a03000 	mov	r3, #0
82002d74:	e50b3008 	str	r3, [fp, #-8]
82002d78:	ea000007 	b	82002d9c <page_list_init+0x38>
82002d7c:	e30a313c 	movw	r3, #41276	; 0xa13c
82002d80:	e3483200 	movt	r3, #33280	; 0x8200
82002d84:	e51b2008 	ldr	r2, [fp, #-8]
82002d88:	e3a01000 	mov	r1, #0
82002d8c:	e7831102 	str	r1, [r3, r2, lsl #2]
82002d90:	e51b3008 	ldr	r3, [fp, #-8]
82002d94:	e2833001 	add	r3, r3, #1
82002d98:	e50b3008 	str	r3, [fp, #-8]
82002d9c:	e51b3008 	ldr	r3, [fp, #-8]
82002da0:	e30021bd 	movw	r2, #445	; 0x1bd
82002da4:	e1530002 	cmp	r3, r2
82002da8:	dafffff3 	ble	82002d7c <page_list_init+0x18>
82002dac:	e30a3110 	movw	r3, #41232	; 0xa110
82002db0:	e3483200 	movt	r3, #33280	; 0x8200
82002db4:	e593201c 	ldr	r2, [r3, #28]
82002db8:	e30a313c 	movw	r3, #41276	; 0xa13c
82002dbc:	e3483200 	movt	r3, #33280	; 0x8200
82002dc0:	e5832000 	str	r2, [r3]
82002dc4:	e30a313c 	movw	r3, #41276	; 0xa13c
82002dc8:	e3483200 	movt	r3, #33280	; 0x8200
82002dcc:	e5932000 	ldr	r2, [r3]
82002dd0:	e30a30e0 	movw	r3, #41184	; 0xa0e0
82002dd4:	e3483200 	movt	r3, #33280	; 0x8200
82002dd8:	e5832000 	str	r2, [r3]
82002ddc:	e3a03000 	mov	r3, #0
82002de0:	e50b300c 	str	r3, [fp, #-12]
82002de4:	ea00007e 	b	82002fe4 <page_list_init+0x280>
82002de8:	e30a313c 	movw	r3, #41276	; 0xa13c
82002dec:	e3483200 	movt	r3, #33280	; 0x8200
82002df0:	e51b200c 	ldr	r2, [fp, #-12]
82002df4:	e7933102 	ldr	r3, [r3, r2, lsl #2]
82002df8:	e3a02000 	mov	r2, #0
82002dfc:	e5832008 	str	r2, [r3, #8]
82002e00:	e30a313c 	movw	r3, #41276	; 0xa13c
82002e04:	e3483200 	movt	r3, #33280	; 0x8200
82002e08:	e51b200c 	ldr	r2, [fp, #-12]
82002e0c:	e7933102 	ldr	r3, [r3, r2, lsl #2]
82002e10:	e51b200c 	ldr	r2, [fp, #-12]
82002e14:	e583200c 	str	r2, [r3, #12]
82002e18:	e51b300c 	ldr	r3, [fp, #-12]
82002e1c:	e1a03a03 	lsl	r3, r3, #20
82002e20:	e2832482 	add	r2, r3, #-2113929216	; 0x82000000
82002e24:	e2822601 	add	r2, r2, #1048576	; 0x100000
82002e28:	e30a313c 	movw	r3, #41276	; 0xa13c
82002e2c:	e3483200 	movt	r3, #33280	; 0x8200
82002e30:	e51b100c 	ldr	r1, [fp, #-12]
82002e34:	e7933101 	ldr	r3, [r3, r1, lsl #2]
82002e38:	e5832010 	str	r2, [r3, #16]
82002e3c:	e30a313c 	movw	r3, #41276	; 0xa13c
82002e40:	e3483200 	movt	r3, #33280	; 0x8200
82002e44:	e51b200c 	ldr	r2, [fp, #-12]
82002e48:	e7933102 	ldr	r3, [r3, r2, lsl #2]
82002e4c:	e5931010 	ldr	r1, [r3, #16]
82002e50:	e30a313c 	movw	r3, #41276	; 0xa13c
82002e54:	e3483200 	movt	r3, #33280	; 0x8200
82002e58:	e51b200c 	ldr	r2, [fp, #-12]
82002e5c:	e7932102 	ldr	r2, [r3, r2, lsl #2]
82002e60:	e2813eff 	add	r3, r1, #4080	; 0xff0
82002e64:	e283300c 	add	r3, r3, #12
82002e68:	e5823014 	str	r3, [r2, #20]
82002e6c:	e30a313c 	movw	r3, #41276	; 0xa13c
82002e70:	e3483200 	movt	r3, #33280	; 0x8200
82002e74:	e51b200c 	ldr	r2, [fp, #-12]
82002e78:	e7933102 	ldr	r3, [r3, r2, lsl #2]
82002e7c:	e5931010 	ldr	r1, [r3, #16]
82002e80:	e30a313c 	movw	r3, #41276	; 0xa13c
82002e84:	e3483200 	movt	r3, #33280	; 0x8200
82002e88:	e51b200c 	ldr	r2, [fp, #-12]
82002e8c:	e7932102 	ldr	r2, [r3, r2, lsl #2]
82002e90:	e241324f 	sub	r3, r1, #-268435452	; 0xf0000004
82002e94:	e24336ff 	sub	r3, r3, #267386880	; 0xff00000
82002e98:	e5823018 	str	r3, [r2, #24]
82002e9c:	e30a313c 	movw	r3, #41276	; 0xa13c
82002ea0:	e3483200 	movt	r3, #33280	; 0x8200
82002ea4:	e51b200c 	ldr	r2, [fp, #-12]
82002ea8:	e7933102 	ldr	r3, [r3, r2, lsl #2]
82002eac:	e3a02000 	mov	r2, #0
82002eb0:	e5832020 	str	r2, [r3, #32]
82002eb4:	e30a313c 	movw	r3, #41276	; 0xa13c
82002eb8:	e3483200 	movt	r3, #33280	; 0x8200
82002ebc:	e51b200c 	ldr	r2, [fp, #-12]
82002ec0:	e7932102 	ldr	r2, [r3, r2, lsl #2]
82002ec4:	e30a313c 	movw	r3, #41276	; 0xa13c
82002ec8:	e3483200 	movt	r3, #33280	; 0x8200
82002ecc:	e51b100c 	ldr	r1, [fp, #-12]
82002ed0:	e7933101 	ldr	r3, [r3, r1, lsl #2]
82002ed4:	e5922010 	ldr	r2, [r2, #16]
82002ed8:	e583201c 	str	r2, [r3, #28]
82002edc:	e30a313c 	movw	r3, #41276	; 0xa13c
82002ee0:	e3483200 	movt	r3, #33280	; 0x8200
82002ee4:	e51b200c 	ldr	r2, [fp, #-12]
82002ee8:	e7933102 	ldr	r3, [r3, r2, lsl #2]
82002eec:	e3a02000 	mov	r2, #0
82002ef0:	e5832024 	str	r2, [r3, #36]	; 0x24
82002ef4:	e30a313c 	movw	r3, #41276	; 0xa13c
82002ef8:	e3483200 	movt	r3, #33280	; 0x8200
82002efc:	e51b200c 	ldr	r2, [fp, #-12]
82002f00:	e7933102 	ldr	r3, [r3, r2, lsl #2]
82002f04:	e3a02001 	mov	r2, #1
82002f08:	e5832028 	str	r2, [r3, #40]	; 0x28
82002f0c:	e30a313c 	movw	r3, #41276	; 0xa13c
82002f10:	e3483200 	movt	r3, #33280	; 0x8200
82002f14:	e51b200c 	ldr	r2, [fp, #-12]
82002f18:	e7933102 	ldr	r3, [r3, r2, lsl #2]
82002f1c:	e51b200c 	ldr	r2, [fp, #-12]
82002f20:	e2822001 	add	r2, r2, #1
82002f24:	e283102c 	add	r1, r3, #44	; 0x2c
82002f28:	e30a313c 	movw	r3, #41276	; 0xa13c
82002f2c:	e3483200 	movt	r3, #33280	; 0x8200
82002f30:	e7831102 	str	r1, [r3, r2, lsl #2]
82002f34:	e51b300c 	ldr	r3, [fp, #-12]
82002f38:	e30021bd 	movw	r2, #445	; 0x1bd
82002f3c:	e1530002 	cmp	r3, r2
82002f40:	1a000006 	bne	82002f60 <page_list_init+0x1fc>
82002f44:	e30a313c 	movw	r3, #41276	; 0xa13c
82002f48:	e3483200 	movt	r3, #33280	; 0x8200
82002f4c:	e51b200c 	ldr	r2, [fp, #-12]
82002f50:	e7933102 	ldr	r3, [r3, r2, lsl #2]
82002f54:	e3a02000 	mov	r2, #0
82002f58:	e5832000 	str	r2, [r3]
82002f5c:	ea000009 	b	82002f88 <page_list_init+0x224>
82002f60:	e51b300c 	ldr	r3, [fp, #-12]
82002f64:	e2831001 	add	r1, r3, #1
82002f68:	e30a313c 	movw	r3, #41276	; 0xa13c
82002f6c:	e3483200 	movt	r3, #33280	; 0x8200
82002f70:	e51b200c 	ldr	r2, [fp, #-12]
82002f74:	e7932102 	ldr	r2, [r3, r2, lsl #2]
82002f78:	e30a313c 	movw	r3, #41276	; 0xa13c
82002f7c:	e3483200 	movt	r3, #33280	; 0x8200
82002f80:	e7933101 	ldr	r3, [r3, r1, lsl #2]
82002f84:	e5823000 	str	r3, [r2]
82002f88:	e51b300c 	ldr	r3, [fp, #-12]
82002f8c:	e3530000 	cmp	r3, #0
82002f90:	1a000006 	bne	82002fb0 <page_list_init+0x24c>
82002f94:	e30a313c 	movw	r3, #41276	; 0xa13c
82002f98:	e3483200 	movt	r3, #33280	; 0x8200
82002f9c:	e51b200c 	ldr	r2, [fp, #-12]
82002fa0:	e7933102 	ldr	r3, [r3, r2, lsl #2]
82002fa4:	e3a02000 	mov	r2, #0
82002fa8:	e5832004 	str	r2, [r3, #4]
82002fac:	ea000009 	b	82002fd8 <page_list_init+0x274>
82002fb0:	e51b300c 	ldr	r3, [fp, #-12]
82002fb4:	e2431001 	sub	r1, r3, #1
82002fb8:	e30a313c 	movw	r3, #41276	; 0xa13c
82002fbc:	e3483200 	movt	r3, #33280	; 0x8200
82002fc0:	e51b200c 	ldr	r2, [fp, #-12]
82002fc4:	e7932102 	ldr	r2, [r3, r2, lsl #2]
82002fc8:	e30a313c 	movw	r3, #41276	; 0xa13c
82002fcc:	e3483200 	movt	r3, #33280	; 0x8200
82002fd0:	e7933101 	ldr	r3, [r3, r1, lsl #2]
82002fd4:	e5823004 	str	r3, [r2, #4]
82002fd8:	e51b300c 	ldr	r3, [fp, #-12]
82002fdc:	e2833001 	add	r3, r3, #1
82002fe0:	e50b300c 	str	r3, [fp, #-12]
82002fe4:	e51b300c 	ldr	r3, [fp, #-12]
82002fe8:	e30021bd 	movw	r2, #445	; 0x1bd
82002fec:	e1530002 	cmp	r3, r2
82002ff0:	daffff7c 	ble	82002de8 <page_list_init+0x84>
82002ff4:	e30a313c 	movw	r3, #41276	; 0xa13c
82002ff8:	e3483200 	movt	r3, #33280	; 0x8200
82002ffc:	e59336f8 	ldr	r3, [r3, #1784]	; 0x6f8
82003000:	e283202c 	add	r2, r3, #44	; 0x2c
82003004:	e30a3110 	movw	r3, #41232	; 0xa110
82003008:	e3483200 	movt	r3, #33280	; 0x8200
8200300c:	e583201c 	str	r2, [r3, #28]
82003010:	e320f000 	nop	{0}
82003014:	e28bd000 	add	sp, fp, #0
82003018:	e49db004 	pop	{fp}		; (ldr fp, [sp], #4)
8200301c:	e12fff1e 	bx	lr

82003020 <page_alloc>:
82003020:	e92d4800 	push	{fp, lr}
82003024:	e28db004 	add	fp, sp, #4
82003028:	e24dd008 	sub	sp, sp, #8
8200302c:	e30a30e0 	movw	r3, #41184	; 0xa0e0
82003030:	e3483200 	movt	r3, #33280	; 0x8200
82003034:	e5933000 	ldr	r3, [r3]
82003038:	e50b3008 	str	r3, [fp, #-8]
8200303c:	e51b3008 	ldr	r3, [fp, #-8]
82003040:	e5932000 	ldr	r2, [r3]
82003044:	e30a30e0 	movw	r3, #41184	; 0xa0e0
82003048:	e3483200 	movt	r3, #33280	; 0x8200
8200304c:	e5832000 	str	r2, [r3]
82003050:	e30a30e0 	movw	r3, #41184	; 0xa0e0
82003054:	e3483200 	movt	r3, #33280	; 0x8200
82003058:	e5933000 	ldr	r3, [r3]
8200305c:	e3a02000 	mov	r2, #0
82003060:	e5832004 	str	r2, [r3, #4]
82003064:	e51b3008 	ldr	r3, [fp, #-8]
82003068:	e3a02000 	mov	r2, #0
8200306c:	e5832000 	str	r2, [r3]
82003070:	e51b3008 	ldr	r3, [fp, #-8]
82003074:	e3a02001 	mov	r2, #1
82003078:	e5832008 	str	r2, [r3, #8]
8200307c:	e51b0008 	ldr	r0, [fp, #-8]
82003080:	eb000041 	bl	8200318c <insert_to_inuse_list>
82003084:	e51b3008 	ldr	r3, [fp, #-8]
82003088:	e1a00003 	mov	r0, r3
8200308c:	e24bd004 	sub	sp, fp, #4
82003090:	e8bd8800 	pop	{fp, pc}

82003094 <page_free>:
82003094:	e92d4800 	push	{fp, lr}
82003098:	e28db004 	add	fp, sp, #4
8200309c:	e24dd008 	sub	sp, sp, #8
820030a0:	e50b0008 	str	r0, [fp, #-8]
820030a4:	e51b3008 	ldr	r3, [fp, #-8]
820030a8:	e5933008 	ldr	r3, [r3, #8]
820030ac:	e3530000 	cmp	r3, #0
820030b0:	0a000004 	beq	820030c8 <page_free+0x34>
820030b4:	e51b0008 	ldr	r0, [fp, #-8]
820030b8:	eb000061 	bl	82003244 <delete_from_inuse_list>
820030bc:	e51b0008 	ldr	r0, [fp, #-8]
820030c0:	eb000006 	bl	820030e0 <add_to_free_list_end>
820030c4:	ea000002 	b	820030d4 <page_free+0x40>
820030c8:	e3090650 	movw	r0, #38480	; 0x9650
820030cc:	e3480200 	movt	r0, #33280	; 0x8200
820030d0:	eb0006db 	bl	82004c44 <printk>
820030d4:	e320f000 	nop	{0}
820030d8:	e24bd004 	sub	sp, fp, #4
820030dc:	e8bd8800 	pop	{fp, pc}

820030e0 <add_to_free_list_end>:
820030e0:	e52db004 	push	{fp}		; (str fp, [sp, #-4]!)
820030e4:	e28db000 	add	fp, sp, #0
820030e8:	e24dd014 	sub	sp, sp, #20
820030ec:	e50b0010 	str	r0, [fp, #-16]
820030f0:	e30a30e0 	movw	r3, #41184	; 0xa0e0
820030f4:	e3483200 	movt	r3, #33280	; 0x8200
820030f8:	e5933000 	ldr	r3, [r3]
820030fc:	e3530000 	cmp	r3, #0
82003100:	1a000007 	bne	82003124 <add_to_free_list_end+0x44>
82003104:	e30a30e0 	movw	r3, #41184	; 0xa0e0
82003108:	e3483200 	movt	r3, #33280	; 0x8200
8200310c:	e51b2010 	ldr	r2, [fp, #-16]
82003110:	e5832000 	str	r2, [r3]
82003114:	e51b3010 	ldr	r3, [fp, #-16]
82003118:	e3a02000 	mov	r2, #0
8200311c:	e5832000 	str	r2, [r3]
82003120:	ea000016 	b	82003180 <add_to_free_list_end+0xa0>
82003124:	e30a30e0 	movw	r3, #41184	; 0xa0e0
82003128:	e3483200 	movt	r3, #33280	; 0x8200
8200312c:	e5933000 	ldr	r3, [r3]
82003130:	e50b3008 	str	r3, [fp, #-8]
82003134:	ea000002 	b	82003144 <add_to_free_list_end+0x64>
82003138:	e51b3008 	ldr	r3, [fp, #-8]
8200313c:	e5933000 	ldr	r3, [r3]
82003140:	e50b3008 	str	r3, [fp, #-8]
82003144:	e51b3008 	ldr	r3, [fp, #-8]
82003148:	e5933000 	ldr	r3, [r3]
8200314c:	e3530000 	cmp	r3, #0
82003150:	1afffff8 	bne	82003138 <add_to_free_list_end+0x58>
82003154:	e51b3008 	ldr	r3, [fp, #-8]
82003158:	e50b300c 	str	r3, [fp, #-12]
8200315c:	e51b300c 	ldr	r3, [fp, #-12]
82003160:	e51b2010 	ldr	r2, [fp, #-16]
82003164:	e5832000 	str	r2, [r3]
82003168:	e51b3010 	ldr	r3, [fp, #-16]
8200316c:	e3a02000 	mov	r2, #0
82003170:	e5832000 	str	r2, [r3]
82003174:	e51b3010 	ldr	r3, [fp, #-16]
82003178:	e51b200c 	ldr	r2, [fp, #-12]
8200317c:	e5832004 	str	r2, [r3, #4]
82003180:	e28bd000 	add	sp, fp, #0
82003184:	e49db004 	pop	{fp}		; (ldr fp, [sp], #4)
82003188:	e12fff1e 	bx	lr

8200318c <insert_to_inuse_list>:
8200318c:	e52db004 	push	{fp}		; (str fp, [sp, #-4]!)
82003190:	e28db000 	add	fp, sp, #0
82003194:	e24dd014 	sub	sp, sp, #20
82003198:	e50b0010 	str	r0, [fp, #-16]
8200319c:	e30a30e4 	movw	r3, #41188	; 0xa0e4
820031a0:	e3483200 	movt	r3, #33280	; 0x8200
820031a4:	e5933000 	ldr	r3, [r3]
820031a8:	e3530000 	cmp	r3, #0
820031ac:	1a00000a 	bne	820031dc <insert_to_inuse_list+0x50>
820031b0:	e30a30e4 	movw	r3, #41188	; 0xa0e4
820031b4:	e3483200 	movt	r3, #33280	; 0x8200
820031b8:	e51b2010 	ldr	r2, [fp, #-16]
820031bc:	e5832000 	str	r2, [r3]
820031c0:	e51b3010 	ldr	r3, [fp, #-16]
820031c4:	e3a02000 	mov	r2, #0
820031c8:	e5832000 	str	r2, [r3]
820031cc:	e51b3010 	ldr	r3, [fp, #-16]
820031d0:	e3a02000 	mov	r2, #0
820031d4:	e5832004 	str	r2, [r3, #4]
820031d8:	ea000016 	b	82003238 <insert_to_inuse_list+0xac>
820031dc:	e30a30e4 	movw	r3, #41188	; 0xa0e4
820031e0:	e3483200 	movt	r3, #33280	; 0x8200
820031e4:	e5933000 	ldr	r3, [r3]
820031e8:	e50b3008 	str	r3, [fp, #-8]
820031ec:	ea000002 	b	820031fc <insert_to_inuse_list+0x70>
820031f0:	e51b3008 	ldr	r3, [fp, #-8]
820031f4:	e5933000 	ldr	r3, [r3]
820031f8:	e50b3008 	str	r3, [fp, #-8]
820031fc:	e51b3008 	ldr	r3, [fp, #-8]
82003200:	e5933000 	ldr	r3, [r3]
82003204:	e3530000 	cmp	r3, #0
82003208:	1afffff8 	bne	820031f0 <insert_to_inuse_list+0x64>
8200320c:	e51b3008 	ldr	r3, [fp, #-8]
82003210:	e50b300c 	str	r3, [fp, #-12]
82003214:	e51b300c 	ldr	r3, [fp, #-12]
82003218:	e51b2010 	ldr	r2, [fp, #-16]
8200321c:	e5832000 	str	r2, [r3]
82003220:	e51b3010 	ldr	r3, [fp, #-16]
82003224:	e3a02000 	mov	r2, #0
82003228:	e5832000 	str	r2, [r3]
8200322c:	e51b3010 	ldr	r3, [fp, #-16]
82003230:	e51b200c 	ldr	r2, [fp, #-12]
82003234:	e5832004 	str	r2, [r3, #4]
82003238:	e28bd000 	add	sp, fp, #0
8200323c:	e49db004 	pop	{fp}		; (ldr fp, [sp], #4)
82003240:	e12fff1e 	bx	lr

82003244 <delete_from_inuse_list>:
82003244:	e52db004 	push	{fp}		; (str fp, [sp, #-4]!)
82003248:	e28db000 	add	fp, sp, #0
8200324c:	e24dd014 	sub	sp, sp, #20
82003250:	e50b0010 	str	r0, [fp, #-16]
82003254:	e51b3010 	ldr	r3, [fp, #-16]
82003258:	e5933004 	ldr	r3, [r3, #4]
8200325c:	e50b3008 	str	r3, [fp, #-8]
82003260:	e51b3010 	ldr	r3, [fp, #-16]
82003264:	e5933000 	ldr	r3, [r3]
82003268:	e50b300c 	str	r3, [fp, #-12]
8200326c:	e51b3008 	ldr	r3, [fp, #-8]
82003270:	e3530000 	cmp	r3, #0
82003274:	1a00000a 	bne	820032a4 <delete_from_inuse_list+0x60>
82003278:	e30a30e4 	movw	r3, #41188	; 0xa0e4
8200327c:	e3483200 	movt	r3, #33280	; 0x8200
82003280:	e51b200c 	ldr	r2, [fp, #-12]
82003284:	e5832000 	str	r2, [r3]
82003288:	e51b300c 	ldr	r3, [fp, #-12]
8200328c:	e3a02000 	mov	r2, #0
82003290:	e5832004 	str	r2, [r3, #4]
82003294:	e51b3010 	ldr	r3, [fp, #-16]
82003298:	e3a02000 	mov	r2, #0
8200329c:	e5832000 	str	r2, [r3]
820032a0:	ea000015 	b	820032fc <delete_from_inuse_list+0xb8>
820032a4:	e51b300c 	ldr	r3, [fp, #-12]
820032a8:	e3530000 	cmp	r3, #0
820032ac:	1a000006 	bne	820032cc <delete_from_inuse_list+0x88>
820032b0:	e51b3008 	ldr	r3, [fp, #-8]
820032b4:	e3a02000 	mov	r2, #0
820032b8:	e5832000 	str	r2, [r3]
820032bc:	e51b3010 	ldr	r3, [fp, #-16]
820032c0:	e3a02000 	mov	r2, #0
820032c4:	e5832004 	str	r2, [r3, #4]
820032c8:	ea00000b 	b	820032fc <delete_from_inuse_list+0xb8>
820032cc:	e51b3008 	ldr	r3, [fp, #-8]
820032d0:	e51b200c 	ldr	r2, [fp, #-12]
820032d4:	e5832000 	str	r2, [r3]
820032d8:	e51b300c 	ldr	r3, [fp, #-12]
820032dc:	e51b2008 	ldr	r2, [fp, #-8]
820032e0:	e5832004 	str	r2, [r3, #4]
820032e4:	e51b3010 	ldr	r3, [fp, #-16]
820032e8:	e3a02000 	mov	r2, #0
820032ec:	e5832000 	str	r2, [r3]
820032f0:	e51b3010 	ldr	r3, [fp, #-16]
820032f4:	e3a02000 	mov	r2, #0
820032f8:	e5832004 	str	r2, [r3, #4]
820032fc:	e28bd000 	add	sp, fp, #0
82003300:	e49db004 	pop	{fp}		; (ldr fp, [sp], #4)
82003304:	e12fff1e 	bx	lr

82003308 <clean_area_content>:
82003308:	e52db004 	push	{fp}		; (str fp, [sp, #-4]!)
8200330c:	e28db000 	add	fp, sp, #0
82003310:	e24dd014 	sub	sp, sp, #20
82003314:	e50b0010 	str	r0, [fp, #-16]
82003318:	e51b3010 	ldr	r3, [fp, #-16]
8200331c:	e50b3008 	str	r3, [fp, #-8]
82003320:	e3a03000 	mov	r3, #0
82003324:	e50b300c 	str	r3, [fp, #-12]
82003328:	ea000008 	b	82003350 <clean_area_content+0x48>
8200332c:	e51b3008 	ldr	r3, [fp, #-8]
82003330:	e3a02000 	mov	r2, #0
82003334:	e5832000 	str	r2, [r3]
82003338:	e51b3008 	ldr	r3, [fp, #-8]
8200333c:	e2833004 	add	r3, r3, #4
82003340:	e50b3008 	str	r3, [fp, #-8]
82003344:	e51b300c 	ldr	r3, [fp, #-12]
82003348:	e2833001 	add	r3, r3, #1
8200334c:	e50b300c 	str	r3, [fp, #-12]
82003350:	e51b300c 	ldr	r3, [fp, #-12]
82003354:	e3530b01 	cmp	r3, #1024	; 0x400
82003358:	3afffff3 	bcc	8200332c <clean_area_content+0x24>
8200335c:	e320f000 	nop	{0}
82003360:	e320f000 	nop	{0}
82003364:	e28bd000 	add	sp, fp, #0
82003368:	e49db004 	pop	{fp}		; (ldr fp, [sp], #4)
8200336c:	e12fff1e 	bx	lr

82003370 <atleast_a_page_alloc>:
82003370:	e52db004 	push	{fp}		; (str fp, [sp, #-4]!)
82003374:	e28db000 	add	fp, sp, #0
82003378:	e30a30e4 	movw	r3, #41188	; 0xa0e4
8200337c:	e3483200 	movt	r3, #33280	; 0x8200
82003380:	e5933000 	ldr	r3, [r3]
82003384:	e3530000 	cmp	r3, #0
82003388:	1a000001 	bne	82003394 <atleast_a_page_alloc+0x24>
8200338c:	e3a03000 	mov	r3, #0
82003390:	ea000000 	b	82003398 <atleast_a_page_alloc+0x28>
82003394:	e3a03001 	mov	r3, #1
82003398:	e1a00003 	mov	r0, r3
8200339c:	e28bd000 	add	sp, fp, #0
820033a0:	e49db004 	pop	{fp}		; (ldr fp, [sp], #4)
820033a4:	e12fff1e 	bx	lr

820033a8 <find_page_list_end>:
820033a8:	e52db004 	push	{fp}		; (str fp, [sp, #-4]!)
820033ac:	e28db000 	add	fp, sp, #0
820033b0:	e24dd014 	sub	sp, sp, #20
820033b4:	e50b0010 	str	r0, [fp, #-16]
820033b8:	e51b3010 	ldr	r3, [fp, #-16]
820033bc:	e50b3008 	str	r3, [fp, #-8]
820033c0:	ea000002 	b	820033d0 <find_page_list_end+0x28>
820033c4:	e51b3008 	ldr	r3, [fp, #-8]
820033c8:	e5933000 	ldr	r3, [r3]
820033cc:	e50b3008 	str	r3, [fp, #-8]
820033d0:	e51b3008 	ldr	r3, [fp, #-8]
820033d4:	e3530000 	cmp	r3, #0
820033d8:	1afffff9 	bne	820033c4 <find_page_list_end+0x1c>
820033dc:	e51b3008 	ldr	r3, [fp, #-8]
820033e0:	e1a00003 	mov	r0, r3
820033e4:	e28bd000 	add	sp, fp, #0
820033e8:	e49db004 	pop	{fp}		; (ldr fp, [sp], #4)
820033ec:	e12fff1e 	bx	lr

820033f0 <find_aval_inuse_page>:
820033f0:	e52db004 	push	{fp}		; (str fp, [sp, #-4]!)
820033f4:	e28db000 	add	fp, sp, #0
820033f8:	e24dd00c 	sub	sp, sp, #12
820033fc:	e30a30e4 	movw	r3, #41188	; 0xa0e4
82003400:	e3483200 	movt	r3, #33280	; 0x8200
82003404:	e5933000 	ldr	r3, [r3]
82003408:	e50b3008 	str	r3, [fp, #-8]
8200340c:	e51b3008 	ldr	r3, [fp, #-8]
82003410:	e3530000 	cmp	r3, #0
82003414:	0a000004 	beq	8200342c <find_aval_inuse_page+0x3c>
82003418:	e51b3008 	ldr	r3, [fp, #-8]
8200341c:	e3a02001 	mov	r2, #1
82003420:	e5832008 	str	r2, [r3, #8]
82003424:	e51b3008 	ldr	r3, [fp, #-8]
82003428:	ea000000 	b	82003430 <find_aval_inuse_page+0x40>
8200342c:	e3a03000 	mov	r3, #0
82003430:	e1a00003 	mov	r0, r3
82003434:	e28bd000 	add	sp, fp, #0
82003438:	e49db004 	pop	{fp}		; (ldr fp, [sp], #4)
8200343c:	e12fff1e 	bx	lr

82003440 <blks_init>:
82003440:	e52db004 	push	{fp}		; (str fp, [sp, #-4]!)
82003444:	e28db000 	add	fp, sp, #0
82003448:	e24dd01c 	sub	sp, sp, #28
8200344c:	e50b0018 	str	r0, [fp, #-24]	; 0xffffffe8
82003450:	e51b3018 	ldr	r3, [fp, #-24]	; 0xffffffe8
82003454:	e5933028 	ldr	r3, [r3, #40]	; 0x28
82003458:	e3530000 	cmp	r3, #0
8200345c:	1a000001 	bne	82003468 <blks_init+0x28>
82003460:	e51b3018 	ldr	r3, [fp, #-24]	; 0xffffffe8
82003464:	ea00009b 	b	820036d8 <blks_init+0x298>
82003468:	e3a03c01 	mov	r3, #256	; 0x100
8200346c:	e50b300c 	str	r3, [fp, #-12]
82003470:	e51b3018 	ldr	r3, [fp, #-24]	; 0xffffffe8
82003474:	e5933010 	ldr	r3, [r3, #16]
82003478:	e2832a01 	add	r2, r3, #4096	; 0x1000
8200347c:	e51b3018 	ldr	r3, [fp, #-24]	; 0xffffffe8
82003480:	e5832020 	str	r2, [r3, #32]
82003484:	e3a03c01 	mov	r3, #256	; 0x100
82003488:	e50b300c 	str	r3, [fp, #-12]
8200348c:	e51b3018 	ldr	r3, [fp, #-24]	; 0xffffffe8
82003490:	e5933020 	ldr	r3, [r3, #32]
82003494:	e50b3010 	str	r3, [fp, #-16]
82003498:	e3a03000 	mov	r3, #0
8200349c:	e50b3008 	str	r3, [fp, #-8]
820034a0:	ea000078 	b	82003688 <blks_init+0x248>
820034a4:	e51b3008 	ldr	r3, [fp, #-8]
820034a8:	e3a0201c 	mov	r2, #28
820034ac:	e0030392 	mul	r3, r2, r3
820034b0:	e51b2010 	ldr	r2, [fp, #-16]
820034b4:	e0823003 	add	r3, r2, r3
820034b8:	e51b2008 	ldr	r2, [fp, #-8]
820034bc:	e5832018 	str	r2, [r3, #24]
820034c0:	e51b3008 	ldr	r3, [fp, #-8]
820034c4:	e3a0201c 	mov	r2, #28
820034c8:	e0030392 	mul	r3, r2, r3
820034cc:	e51b2010 	ldr	r2, [fp, #-16]
820034d0:	e0823003 	add	r3, r2, r3
820034d4:	e3a02000 	mov	r2, #0
820034d8:	e5832014 	str	r2, [r3, #20]
820034dc:	e51b3018 	ldr	r3, [fp, #-24]	; 0xffffffe8
820034e0:	e5931010 	ldr	r1, [r3, #16]
820034e4:	e51b3008 	ldr	r3, [fp, #-8]
820034e8:	e1a02603 	lsl	r2, r3, #12
820034ec:	e51b3008 	ldr	r3, [fp, #-8]
820034f0:	e3a0001c 	mov	r0, #28
820034f4:	e0030390 	mul	r3, r0, r3
820034f8:	e51b0010 	ldr	r0, [fp, #-16]
820034fc:	e0803003 	add	r3, r0, r3
82003500:	e0812002 	add	r2, r1, r2
82003504:	e583200c 	str	r2, [r3, #12]
82003508:	e51b3008 	ldr	r3, [fp, #-8]
8200350c:	e3a0201c 	mov	r2, #28
82003510:	e0030392 	mul	r3, r2, r3
82003514:	e51b2010 	ldr	r2, [fp, #-16]
82003518:	e0823003 	add	r3, r2, r3
8200351c:	e593300c 	ldr	r3, [r3, #12]
82003520:	e51b2008 	ldr	r2, [fp, #-8]
82003524:	e3a0101c 	mov	r1, #28
82003528:	e0020291 	mul	r2, r1, r2
8200352c:	e51b1010 	ldr	r1, [fp, #-16]
82003530:	e0812002 	add	r2, r1, r2
82003534:	e2833dff 	add	r3, r3, #16320	; 0x3fc0
82003538:	e2833030 	add	r3, r3, #48	; 0x30
8200353c:	e5823010 	str	r3, [r2, #16]
82003540:	e51b3008 	ldr	r3, [fp, #-8]
82003544:	e3a0201c 	mov	r2, #28
82003548:	e0030392 	mul	r3, r2, r3
8200354c:	e51b2010 	ldr	r2, [fp, #-16]
82003550:	e0823003 	add	r3, r2, r3
82003554:	e51b2018 	ldr	r2, [fp, #-24]	; 0xffffffe8
82003558:	e5832000 	str	r2, [r3]
8200355c:	e51b3008 	ldr	r3, [fp, #-8]
82003560:	e3530000 	cmp	r3, #0
82003564:	1a000013 	bne	820035b8 <blks_init+0x178>
82003568:	e51b3008 	ldr	r3, [fp, #-8]
8200356c:	e3a0201c 	mov	r2, #28
82003570:	e0030392 	mul	r3, r2, r3
82003574:	e51b2010 	ldr	r2, [fp, #-16]
82003578:	e0823003 	add	r3, r2, r3
8200357c:	e3a02000 	mov	r2, #0
82003580:	e5832008 	str	r2, [r3, #8]
82003584:	e51b3008 	ldr	r3, [fp, #-8]
82003588:	e2833001 	add	r3, r3, #1
8200358c:	e3a0201c 	mov	r2, #28
82003590:	e0020392 	mul	r2, r2, r3
82003594:	e51b3008 	ldr	r3, [fp, #-8]
82003598:	e3a0101c 	mov	r1, #28
8200359c:	e0030391 	mul	r3, r1, r3
820035a0:	e51b1010 	ldr	r1, [fp, #-16]
820035a4:	e0813003 	add	r3, r1, r3
820035a8:	e51b1010 	ldr	r1, [fp, #-16]
820035ac:	e0812002 	add	r2, r1, r2
820035b0:	e5832004 	str	r2, [r3, #4]
820035b4:	ea000030 	b	8200367c <blks_init+0x23c>
820035b8:	e51b300c 	ldr	r3, [fp, #-12]
820035bc:	e2433001 	sub	r3, r3, #1
820035c0:	e51b2008 	ldr	r2, [fp, #-8]
820035c4:	e1520003 	cmp	r2, r3
820035c8:	1a000013 	bne	8200361c <blks_init+0x1dc>
820035cc:	e51b3008 	ldr	r3, [fp, #-8]
820035d0:	e3a0201c 	mov	r2, #28
820035d4:	e0030392 	mul	r3, r2, r3
820035d8:	e243201c 	sub	r2, r3, #28
820035dc:	e51b3008 	ldr	r3, [fp, #-8]
820035e0:	e3a0101c 	mov	r1, #28
820035e4:	e0030391 	mul	r3, r1, r3
820035e8:	e51b1010 	ldr	r1, [fp, #-16]
820035ec:	e0813003 	add	r3, r1, r3
820035f0:	e51b1010 	ldr	r1, [fp, #-16]
820035f4:	e0812002 	add	r2, r1, r2
820035f8:	e5832008 	str	r2, [r3, #8]
820035fc:	e51b3008 	ldr	r3, [fp, #-8]
82003600:	e3a0201c 	mov	r2, #28
82003604:	e0030392 	mul	r3, r2, r3
82003608:	e51b2010 	ldr	r2, [fp, #-16]
8200360c:	e0823003 	add	r3, r2, r3
82003610:	e3a02000 	mov	r2, #0
82003614:	e5832004 	str	r2, [r3, #4]
82003618:	ea000017 	b	8200367c <blks_init+0x23c>
8200361c:	e51b3008 	ldr	r3, [fp, #-8]
82003620:	e3a0201c 	mov	r2, #28
82003624:	e0030392 	mul	r3, r2, r3
82003628:	e243201c 	sub	r2, r3, #28
8200362c:	e51b3008 	ldr	r3, [fp, #-8]
82003630:	e3a0101c 	mov	r1, #28
82003634:	e0030391 	mul	r3, r1, r3
82003638:	e51b1010 	ldr	r1, [fp, #-16]
8200363c:	e0813003 	add	r3, r1, r3
82003640:	e51b1010 	ldr	r1, [fp, #-16]
82003644:	e0812002 	add	r2, r1, r2
82003648:	e5832008 	str	r2, [r3, #8]
8200364c:	e51b3008 	ldr	r3, [fp, #-8]
82003650:	e2833001 	add	r3, r3, #1
82003654:	e3a0201c 	mov	r2, #28
82003658:	e0020392 	mul	r2, r2, r3
8200365c:	e51b3008 	ldr	r3, [fp, #-8]
82003660:	e3a0101c 	mov	r1, #28
82003664:	e0030391 	mul	r3, r1, r3
82003668:	e51b1010 	ldr	r1, [fp, #-16]
8200366c:	e0813003 	add	r3, r1, r3
82003670:	e51b1010 	ldr	r1, [fp, #-16]
82003674:	e0812002 	add	r2, r1, r2
82003678:	e5832004 	str	r2, [r3, #4]
8200367c:	e51b3008 	ldr	r3, [fp, #-8]
82003680:	e2833001 	add	r3, r3, #1
82003684:	e50b3008 	str	r3, [fp, #-8]
82003688:	e51b2008 	ldr	r2, [fp, #-8]
8200368c:	e51b300c 	ldr	r3, [fp, #-12]
82003690:	e1520003 	cmp	r2, r3
82003694:	baffff82 	blt	820034a4 <blks_init+0x64>
82003698:	e51b3010 	ldr	r3, [fp, #-16]
8200369c:	e3a02002 	mov	r2, #2
820036a0:	e5832014 	str	r2, [r3, #20]
820036a4:	e51b3010 	ldr	r3, [fp, #-16]
820036a8:	e283301c 	add	r3, r3, #28
820036ac:	e3a02002 	mov	r2, #2
820036b0:	e5832014 	str	r2, [r3, #20]
820036b4:	e51b3010 	ldr	r3, [fp, #-16]
820036b8:	e2833038 	add	r3, r3, #56	; 0x38
820036bc:	e3a02002 	mov	r2, #2
820036c0:	e5832014 	str	r2, [r3, #20]
820036c4:	e51b3010 	ldr	r3, [fp, #-16]
820036c8:	e2832054 	add	r2, r3, #84	; 0x54
820036cc:	e51b3018 	ldr	r3, [fp, #-24]	; 0xffffffe8
820036d0:	e5832020 	str	r2, [r3, #32]
820036d4:	e51b3018 	ldr	r3, [fp, #-24]	; 0xffffffe8
820036d8:	e1a00003 	mov	r0, r3
820036dc:	e28bd000 	add	sp, fp, #0
820036e0:	e49db004 	pop	{fp}		; (ldr fp, [sp], #4)
820036e4:	e12fff1e 	bx	lr

820036e8 <blk_alloc>:
820036e8:	e52db004 	push	{fp}		; (str fp, [sp, #-4]!)
820036ec:	e28db000 	add	fp, sp, #0
820036f0:	e24dd014 	sub	sp, sp, #20
820036f4:	e50b0010 	str	r0, [fp, #-16]
820036f8:	e51b3010 	ldr	r3, [fp, #-16]
820036fc:	e3530000 	cmp	r3, #0
82003700:	1a000001 	bne	8200370c <blk_alloc+0x24>
82003704:	e3a03000 	mov	r3, #0
82003708:	ea000021 	b	82003794 <blk_alloc+0xac>
8200370c:	e51b3010 	ldr	r3, [fp, #-16]
82003710:	e5933024 	ldr	r3, [r3, #36]	; 0x24
82003714:	e3530001 	cmp	r3, #1
82003718:	1a000001 	bne	82003724 <blk_alloc+0x3c>
8200371c:	e3a03000 	mov	r3, #0
82003720:	ea00001b 	b	82003794 <blk_alloc+0xac>
82003724:	e51b3010 	ldr	r3, [fp, #-16]
82003728:	e5933020 	ldr	r3, [r3, #32]
8200372c:	e50b3008 	str	r3, [fp, #-8]
82003730:	e51b3008 	ldr	r3, [fp, #-8]
82003734:	e3530000 	cmp	r3, #0
82003738:	1a000001 	bne	82003744 <blk_alloc+0x5c>
8200373c:	e3a03000 	mov	r3, #0
82003740:	ea000013 	b	82003794 <blk_alloc+0xac>
82003744:	e51b3008 	ldr	r3, [fp, #-8]
82003748:	e5933004 	ldr	r3, [r3, #4]
8200374c:	e3530000 	cmp	r3, #0
82003750:	1a000005 	bne	8200376c <blk_alloc+0x84>
82003754:	e51b3010 	ldr	r3, [fp, #-16]
82003758:	e3a02000 	mov	r2, #0
8200375c:	e5832020 	str	r2, [r3, #32]
82003760:	e51b3010 	ldr	r3, [fp, #-16]
82003764:	e3a02001 	mov	r2, #1
82003768:	e5832024 	str	r2, [r3, #36]	; 0x24
8200376c:	e51b3008 	ldr	r3, [fp, #-8]
82003770:	e5932004 	ldr	r2, [r3, #4]
82003774:	e51b3010 	ldr	r3, [fp, #-16]
82003778:	e5832020 	str	r2, [r3, #32]
8200377c:	e51b3008 	ldr	r3, [fp, #-8]
82003780:	e5933004 	ldr	r3, [r3, #4]
82003784:	e3a02000 	mov	r2, #0
82003788:	e5832008 	str	r2, [r3, #8]
8200378c:	e51b3008 	ldr	r3, [fp, #-8]
82003790:	e593300c 	ldr	r3, [r3, #12]
82003794:	e1a00003 	mov	r0, r3
82003798:	e28bd000 	add	sp, fp, #0
8200379c:	e49db004 	pop	{fp}		; (ldr fp, [sp], #4)
820037a0:	e12fff1e 	bx	lr

820037a4 <which_page>:
820037a4:	e52db004 	push	{fp}		; (str fp, [sp, #-4]!)
820037a8:	e28db000 	add	fp, sp, #0
820037ac:	e24dd01c 	sub	sp, sp, #28
820037b0:	e50b0018 	str	r0, [fp, #-24]	; 0xffffffe8
820037b4:	e51b3018 	ldr	r3, [fp, #-24]	; 0xffffffe8
820037b8:	e50b300c 	str	r3, [fp, #-12]
820037bc:	e51b300c 	ldr	r3, [fp, #-12]
820037c0:	e1a03a23 	lsr	r3, r3, #20
820037c4:	e1a03a03 	lsl	r3, r3, #20
820037c8:	e50b3010 	str	r3, [fp, #-16]
820037cc:	e30a30e4 	movw	r3, #41188	; 0xa0e4
820037d0:	e3483200 	movt	r3, #33280	; 0x8200
820037d4:	e5933000 	ldr	r3, [r3]
820037d8:	e50b3008 	str	r3, [fp, #-8]
820037dc:	ea000007 	b	82003800 <which_page+0x5c>
820037e0:	e51b3008 	ldr	r3, [fp, #-8]
820037e4:	e5933010 	ldr	r3, [r3, #16]
820037e8:	e51b2010 	ldr	r2, [fp, #-16]
820037ec:	e1520003 	cmp	r2, r3
820037f0:	0a000007 	beq	82003814 <which_page+0x70>
820037f4:	e51b3008 	ldr	r3, [fp, #-8]
820037f8:	e5933000 	ldr	r3, [r3]
820037fc:	e50b3008 	str	r3, [fp, #-8]
82003800:	e51b3008 	ldr	r3, [fp, #-8]
82003804:	e5933000 	ldr	r3, [r3]
82003808:	e3530000 	cmp	r3, #0
8200380c:	1afffff3 	bne	820037e0 <which_page+0x3c>
82003810:	ea000000 	b	82003818 <which_page+0x74>
82003814:	e320f000 	nop	{0}
82003818:	e51b3008 	ldr	r3, [fp, #-8]
8200381c:	e50b3014 	str	r3, [fp, #-20]	; 0xffffffec
82003820:	e51b3014 	ldr	r3, [fp, #-20]	; 0xffffffec
82003824:	e1a00003 	mov	r0, r3
82003828:	e28bd000 	add	sp, fp, #0
8200382c:	e49db004 	pop	{fp}		; (ldr fp, [sp], #4)
82003830:	e12fff1e 	bx	lr

82003834 <find_blk_list_end>:
82003834:	e52db004 	push	{fp}		; (str fp, [sp, #-4]!)
82003838:	e28db000 	add	fp, sp, #0
8200383c:	e24dd014 	sub	sp, sp, #20
82003840:	e50b0010 	str	r0, [fp, #-16]
82003844:	e51b3010 	ldr	r3, [fp, #-16]
82003848:	e5933020 	ldr	r3, [r3, #32]
8200384c:	e50b3008 	str	r3, [fp, #-8]
82003850:	e51b3008 	ldr	r3, [fp, #-8]
82003854:	e3530000 	cmp	r3, #0
82003858:	1a000004 	bne	82003870 <find_blk_list_end+0x3c>
8200385c:	e3a03000 	mov	r3, #0
82003860:	ea000007 	b	82003884 <find_blk_list_end+0x50>
82003864:	e51b3008 	ldr	r3, [fp, #-8]
82003868:	e5933004 	ldr	r3, [r3, #4]
8200386c:	e50b3008 	str	r3, [fp, #-8]
82003870:	e51b3008 	ldr	r3, [fp, #-8]
82003874:	e5933004 	ldr	r3, [r3, #4]
82003878:	e3530000 	cmp	r3, #0
8200387c:	1afffff8 	bne	82003864 <find_blk_list_end+0x30>
82003880:	e51b3008 	ldr	r3, [fp, #-8]
82003884:	e1a00003 	mov	r0, r3
82003888:	e28bd000 	add	sp, fp, #0
8200388c:	e49db004 	pop	{fp}		; (ldr fp, [sp], #4)
82003890:	e12fff1e 	bx	lr

82003894 <put_to_blklist_end>:
82003894:	e92d4800 	push	{fp, lr}
82003898:	e28db004 	add	fp, sp, #4
8200389c:	e24dd010 	sub	sp, sp, #16
820038a0:	e50b0010 	str	r0, [fp, #-16]
820038a4:	e50b1014 	str	r1, [fp, #-20]	; 0xffffffec
820038a8:	e51b3010 	ldr	r3, [fp, #-16]
820038ac:	e3530000 	cmp	r3, #0
820038b0:	0a000017 	beq	82003914 <put_to_blklist_end+0x80>
820038b4:	e51b3014 	ldr	r3, [fp, #-20]	; 0xffffffec
820038b8:	e3530000 	cmp	r3, #0
820038bc:	0a000016 	beq	8200391c <put_to_blklist_end+0x88>
820038c0:	e51b3010 	ldr	r3, [fp, #-16]
820038c4:	e5933020 	ldr	r3, [r3, #32]
820038c8:	e3530000 	cmp	r3, #0
820038cc:	1a000003 	bne	820038e0 <put_to_blklist_end+0x4c>
820038d0:	e51b3010 	ldr	r3, [fp, #-16]
820038d4:	e51b2014 	ldr	r2, [fp, #-20]	; 0xffffffec
820038d8:	e5832020 	str	r2, [r3, #32]
820038dc:	ea00000f 	b	82003920 <put_to_blklist_end+0x8c>
820038e0:	e51b0010 	ldr	r0, [fp, #-16]
820038e4:	ebffffd2 	bl	82003834 <find_blk_list_end>
820038e8:	e50b0008 	str	r0, [fp, #-8]
820038ec:	e51b3008 	ldr	r3, [fp, #-8]
820038f0:	e51b2014 	ldr	r2, [fp, #-20]	; 0xffffffec
820038f4:	e5832004 	str	r2, [r3, #4]
820038f8:	e51b3014 	ldr	r3, [fp, #-20]	; 0xffffffec
820038fc:	e51b2008 	ldr	r2, [fp, #-8]
82003900:	e5832008 	str	r2, [r3, #8]
82003904:	e51b3014 	ldr	r3, [fp, #-20]	; 0xffffffec
82003908:	e3a02000 	mov	r2, #0
8200390c:	e5832004 	str	r2, [r3, #4]
82003910:	ea000002 	b	82003920 <put_to_blklist_end+0x8c>
82003914:	e320f000 	nop	{0}
82003918:	ea000000 	b	82003920 <put_to_blklist_end+0x8c>
8200391c:	e320f000 	nop	{0}
82003920:	e24bd004 	sub	sp, fp, #4
82003924:	e8bd8800 	pop	{fp, pc}

82003928 <which_blk>:
82003928:	e52db004 	push	{fp}		; (str fp, [sp, #-4]!)
8200392c:	e28db000 	add	fp, sp, #0
82003930:	e24dd024 	sub	sp, sp, #36	; 0x24
82003934:	e50b0020 	str	r0, [fp, #-32]	; 0xffffffe0
82003938:	e51b3020 	ldr	r3, [fp, #-32]	; 0xffffffe0
8200393c:	e50b3008 	str	r3, [fp, #-8]
82003940:	e51b3008 	ldr	r3, [fp, #-8]
82003944:	e3c33eff 	bic	r3, r3, #4080	; 0xff0
82003948:	e3c3300f 	bic	r3, r3, #15
8200394c:	e50b300c 	str	r3, [fp, #-12]
82003950:	e51b3020 	ldr	r3, [fp, #-32]	; 0xffffffe0
82003954:	e50b3010 	str	r3, [fp, #-16]
82003958:	e51b3010 	ldr	r3, [fp, #-16]
8200395c:	e1a03a23 	lsr	r3, r3, #20
82003960:	e1a03a03 	lsl	r3, r3, #20
82003964:	e50b3014 	str	r3, [fp, #-20]	; 0xffffffec
82003968:	e51b200c 	ldr	r2, [fp, #-12]
8200396c:	e51b3014 	ldr	r3, [fp, #-20]	; 0xffffffec
82003970:	e0423003 	sub	r3, r2, r3
82003974:	e1a03623 	lsr	r3, r3, #12
82003978:	e50b3018 	str	r3, [fp, #-24]	; 0xffffffe8
8200397c:	e51b3018 	ldr	r3, [fp, #-24]	; 0xffffffe8
82003980:	e3a0201c 	mov	r2, #28
82003984:	e0020392 	mul	r2, r2, r3
82003988:	e51b3014 	ldr	r3, [fp, #-20]	; 0xffffffec
8200398c:	e0823003 	add	r3, r2, r3
82003990:	e2833a01 	add	r3, r3, #4096	; 0x1000
82003994:	e50b301c 	str	r3, [fp, #-28]	; 0xffffffe4
82003998:	e51b301c 	ldr	r3, [fp, #-28]	; 0xffffffe4
8200399c:	e1a00003 	mov	r0, r3
820039a0:	e28bd000 	add	sp, fp, #0
820039a4:	e49db004 	pop	{fp}		; (ldr fp, [sp], #4)
820039a8:	e12fff1e 	bx	lr

820039ac <free_blk>:
820039ac:	e92d4800 	push	{fp, lr}
820039b0:	e28db004 	add	fp, sp, #4
820039b4:	e24dd010 	sub	sp, sp, #16
820039b8:	e50b0010 	str	r0, [fp, #-16]
820039bc:	e51b0010 	ldr	r0, [fp, #-16]
820039c0:	ebffffd8 	bl	82003928 <which_blk>
820039c4:	e50b0008 	str	r0, [fp, #-8]
820039c8:	e51b0008 	ldr	r0, [fp, #-8]
820039cc:	ebffff74 	bl	820037a4 <which_page>
820039d0:	e50b000c 	str	r0, [fp, #-12]
820039d4:	e51b1008 	ldr	r1, [fp, #-8]
820039d8:	e51b000c 	ldr	r0, [fp, #-12]
820039dc:	ebffffac 	bl	82003894 <put_to_blklist_end>
820039e0:	e320f000 	nop	{0}
820039e4:	e24bd004 	sub	sp, fp, #4
820039e8:	e8bd8800 	pop	{fp, pc}

820039ec <is_blk_init>:
820039ec:	e52db004 	push	{fp}		; (str fp, [sp, #-4]!)
820039f0:	e28db000 	add	fp, sp, #0
820039f4:	e24dd00c 	sub	sp, sp, #12
820039f8:	e50b0008 	str	r0, [fp, #-8]
820039fc:	e51b3008 	ldr	r3, [fp, #-8]
82003a00:	e5933028 	ldr	r3, [r3, #40]	; 0x28
82003a04:	e3530000 	cmp	r3, #0
82003a08:	0a000001 	beq	82003a14 <is_blk_init+0x28>
82003a0c:	e3a03000 	mov	r3, #0
82003a10:	ea000000 	b	82003a18 <is_blk_init+0x2c>
82003a14:	e3a03001 	mov	r3, #1
82003a18:	e1a00003 	mov	r0, r3
82003a1c:	e28bd000 	add	sp, fp, #0
82003a20:	e49db004 	pop	{fp}		; (ldr fp, [sp], #4)
82003a24:	e12fff1e 	bx	lr

82003a28 <no_blks>:
82003a28:	e52db004 	push	{fp}		; (str fp, [sp, #-4]!)
82003a2c:	e28db000 	add	fp, sp, #0
82003a30:	e24dd00c 	sub	sp, sp, #12
82003a34:	e50b0008 	str	r0, [fp, #-8]
82003a38:	e51b3008 	ldr	r3, [fp, #-8]
82003a3c:	e5933020 	ldr	r3, [r3, #32]
82003a40:	e3530000 	cmp	r3, #0
82003a44:	1a000001 	bne	82003a50 <no_blks+0x28>
82003a48:	e3a03001 	mov	r3, #1
82003a4c:	ea000000 	b	82003a54 <no_blks+0x2c>
82003a50:	e3a03000 	mov	r3, #0
82003a54:	e1a00003 	mov	r0, r3
82003a58:	e28bd000 	add	sp, fp, #0
82003a5c:	e49db004 	pop	{fp}		; (ldr fp, [sp], #4)
82003a60:	e12fff1e 	bx	lr

82003a64 <kpage_struct_init>:
82003a64:	e92d4810 	push	{r4, fp, lr}
82003a68:	e28db008 	add	fp, sp, #8
82003a6c:	e24dd01c 	sub	sp, sp, #28
82003a70:	e30a3110 	movw	r3, #41232	; 0xa110
82003a74:	e3483200 	movt	r3, #33280	; 0x8200
82003a78:	e3e02000 	mvn	r2, #0
82003a7c:	e583200c 	str	r2, [r3, #12]
82003a80:	e30a3110 	movw	r3, #41232	; 0xa110
82003a84:	e3483200 	movt	r3, #33280	; 0x8200
82003a88:	e3a02004 	mov	r2, #4
82003a8c:	e5832008 	str	r2, [r3, #8]
82003a90:	e30a3110 	movw	r3, #41232	; 0xa110
82003a94:	e3483200 	movt	r3, #33280	; 0x8200
82003a98:	e3a02482 	mov	r2, #-2113929216	; 0x82000000
82003a9c:	e5832010 	str	r2, [r3, #16]
82003aa0:	e30a3110 	movw	r3, #41232	; 0xa110
82003aa4:	e3483200 	movt	r3, #33280	; 0x8200
82003aa8:	e5933010 	ldr	r3, [r3, #16]
82003aac:	e2433143 	sub	r3, r3, #-1073741808	; 0xc0000010
82003ab0:	e24335ff 	sub	r3, r3, #1069547520	; 0x3fc00000
82003ab4:	e30a2110 	movw	r2, #41232	; 0xa110
82003ab8:	e3482200 	movt	r2, #33280	; 0x8200
82003abc:	e5823018 	str	r3, [r2, #24]
82003ac0:	e30a3110 	movw	r3, #41232	; 0xa110
82003ac4:	e3483200 	movt	r3, #33280	; 0x8200
82003ac8:	e3a02000 	mov	r2, #0
82003acc:	e5832014 	str	r2, [r3, #20]
82003ad0:	e30a3110 	movw	r3, #41232	; 0xa110
82003ad4:	e3483200 	movt	r3, #33280	; 0x8200
82003ad8:	e3a02000 	mov	r2, #0
82003adc:	e5832004 	str	r2, [r3, #4]
82003ae0:	e30a3110 	movw	r3, #41232	; 0xa110
82003ae4:	e3483200 	movt	r3, #33280	; 0x8200
82003ae8:	e3a02000 	mov	r2, #0
82003aec:	e5832000 	str	r2, [r3]
82003af0:	e3a03601 	mov	r3, #1048576	; 0x100000
82003af4:	e50b3010 	str	r3, [fp, #-16]
82003af8:	e51b3010 	ldr	r3, [fp, #-16]
82003afc:	e2433216 	sub	r3, r3, #1610612737	; 0x60000001
82003b00:	e50b3014 	str	r3, [fp, #-20]	; 0xffffffec
82003b04:	e51b3014 	ldr	r3, [fp, #-20]	; 0xffffffec
82003b08:	e51b1010 	ldr	r1, [fp, #-16]
82003b0c:	e1a00003 	mov	r0, r3
82003b10:	eb001489 	bl	82008d3c <__aeabi_uidivmod>
82003b14:	e1a03001 	mov	r3, r1
82003b18:	e1a02003 	mov	r2, r3
82003b1c:	e51b3014 	ldr	r3, [fp, #-20]	; 0xffffffec
82003b20:	e0432002 	sub	r2, r3, r2
82003b24:	e3a03000 	mov	r3, #0
82003b28:	e50b3018 	str	r3, [fp, #-24]	; 0xffffffe8
82003b2c:	e51b3018 	ldr	r3, [fp, #-24]	; 0xffffffe8
82003b30:	e1a03a23 	lsr	r3, r3, #20
82003b34:	e1a03a03 	lsl	r3, r3, #20
82003b38:	e0423003 	sub	r3, r2, r3
82003b3c:	e1a03a23 	lsr	r3, r3, #20
82003b40:	e1a04103 	lsl	r4, r3, #2
82003b44:	e3a03801 	mov	r3, #65536	; 0x10000
82003b48:	e50b301c 	str	r3, [fp, #-28]	; 0xffffffe4
82003b4c:	e3093e74 	movw	r3, #40564	; 0x9e74
82003b50:	e3483200 	movt	r3, #33280	; 0x8200
82003b54:	e5933000 	ldr	r3, [r3]
82003b58:	e1a02003 	mov	r2, r3
82003b5c:	e51b301c 	ldr	r3, [fp, #-28]	; 0xffffffe4
82003b60:	e0823003 	add	r3, r2, r3
82003b64:	e2433001 	sub	r3, r3, #1
82003b68:	e50b3020 	str	r3, [fp, #-32]	; 0xffffffe0
82003b6c:	e51b3020 	ldr	r3, [fp, #-32]	; 0xffffffe0
82003b70:	e51b101c 	ldr	r1, [fp, #-28]	; 0xffffffe4
82003b74:	e1a00003 	mov	r0, r3
82003b78:	eb00146f 	bl	82008d3c <__aeabi_uidivmod>
82003b7c:	e1a03001 	mov	r3, r1
82003b80:	e1a02003 	mov	r2, r3
82003b84:	e51b3020 	ldr	r3, [fp, #-32]	; 0xffffffe0
82003b88:	e0433002 	sub	r3, r3, r2
82003b8c:	e0833004 	add	r3, r3, r4
82003b90:	e1a02003 	mov	r2, r3
82003b94:	e30a3110 	movw	r3, #41232	; 0xa110
82003b98:	e3483200 	movt	r3, #33280	; 0x8200
82003b9c:	e583201c 	str	r2, [r3, #28]
82003ba0:	e30a3110 	movw	r3, #41232	; 0xa110
82003ba4:	e3483200 	movt	r3, #33280	; 0x8200
82003ba8:	e3a02000 	mov	r2, #0
82003bac:	e5832020 	str	r2, [r3, #32]
82003bb0:	e30a3110 	movw	r3, #41232	; 0xa110
82003bb4:	e3483200 	movt	r3, #33280	; 0x8200
82003bb8:	e3a02001 	mov	r2, #1
82003bbc:	e5832028 	str	r2, [r3, #40]	; 0x28
82003bc0:	e30a3110 	movw	r3, #41232	; 0xa110
82003bc4:	e3483200 	movt	r3, #33280	; 0x8200
82003bc8:	e3a02000 	mov	r2, #0
82003bcc:	e5832024 	str	r2, [r3, #36]	; 0x24
82003bd0:	e320f000 	nop	{0}
82003bd4:	e24bd008 	sub	sp, fp, #8
82003bd8:	e8bd8810 	pop	{r4, fp, pc}

82003bdc <kpage_blks_init>:
82003bdc:	e92d4800 	push	{fp, lr}
82003be0:	e28db004 	add	fp, sp, #4
82003be4:	e24dd028 	sub	sp, sp, #40	; 0x28
82003be8:	e30a3110 	movw	r3, #41232	; 0xa110
82003bec:	e3483200 	movt	r3, #33280	; 0x8200
82003bf0:	e593201c 	ldr	r2, [r3, #28]
82003bf4:	e30a3110 	movw	r3, #41232	; 0xa110
82003bf8:	e3483200 	movt	r3, #33280	; 0x8200
82003bfc:	e5832020 	str	r2, [r3, #32]
82003c00:	e30a3110 	movw	r3, #41232	; 0xa110
82003c04:	e3483200 	movt	r3, #33280	; 0x8200
82003c08:	e5933020 	ldr	r3, [r3, #32]
82003c0c:	e50b3010 	str	r3, [fp, #-16]
82003c10:	e51b3010 	ldr	r3, [fp, #-16]
82003c14:	e2832c07 	add	r2, r3, #1792	; 0x700
82003c18:	e30a3110 	movw	r3, #41232	; 0xa110
82003c1c:	e3483200 	movt	r3, #33280	; 0x8200
82003c20:	e583201c 	str	r2, [r3, #28]
82003c24:	e3a03000 	mov	r3, #0
82003c28:	e50b3008 	str	r3, [fp, #-8]
82003c2c:	ea000078 	b	82003e14 <kpage_blks_init+0x238>
82003c30:	e51b3008 	ldr	r3, [fp, #-8]
82003c34:	e3a0201c 	mov	r2, #28
82003c38:	e0030392 	mul	r3, r2, r3
82003c3c:	e51b2010 	ldr	r2, [fp, #-16]
82003c40:	e0823003 	add	r3, r2, r3
82003c44:	e51b2008 	ldr	r2, [fp, #-8]
82003c48:	e5832018 	str	r2, [r3, #24]
82003c4c:	e51b3008 	ldr	r3, [fp, #-8]
82003c50:	e3a0201c 	mov	r2, #28
82003c54:	e0030392 	mul	r3, r2, r3
82003c58:	e51b2010 	ldr	r2, [fp, #-16]
82003c5c:	e0823003 	add	r3, r2, r3
82003c60:	e3a02000 	mov	r2, #0
82003c64:	e5832014 	str	r2, [r3, #20]
82003c68:	e30a3110 	movw	r3, #41232	; 0xa110
82003c6c:	e3483200 	movt	r3, #33280	; 0x8200
82003c70:	e5931010 	ldr	r1, [r3, #16]
82003c74:	e51b3008 	ldr	r3, [fp, #-8]
82003c78:	e1a02703 	lsl	r2, r3, #14
82003c7c:	e51b3008 	ldr	r3, [fp, #-8]
82003c80:	e3a0001c 	mov	r0, #28
82003c84:	e0030390 	mul	r3, r0, r3
82003c88:	e51b0010 	ldr	r0, [fp, #-16]
82003c8c:	e0803003 	add	r3, r0, r3
82003c90:	e0812002 	add	r2, r1, r2
82003c94:	e583200c 	str	r2, [r3, #12]
82003c98:	e51b3008 	ldr	r3, [fp, #-8]
82003c9c:	e3a0201c 	mov	r2, #28
82003ca0:	e0030392 	mul	r3, r2, r3
82003ca4:	e51b2010 	ldr	r2, [fp, #-16]
82003ca8:	e0823003 	add	r3, r2, r3
82003cac:	e593300c 	ldr	r3, [r3, #12]
82003cb0:	e51b2008 	ldr	r2, [fp, #-8]
82003cb4:	e3a0101c 	mov	r1, #28
82003cb8:	e0020291 	mul	r2, r1, r2
82003cbc:	e51b1010 	ldr	r1, [fp, #-16]
82003cc0:	e0812002 	add	r2, r1, r2
82003cc4:	e2833cff 	add	r3, r3, #65280	; 0xff00
82003cc8:	e28330f0 	add	r3, r3, #240	; 0xf0
82003ccc:	e5823010 	str	r3, [r2, #16]
82003cd0:	e51b3008 	ldr	r3, [fp, #-8]
82003cd4:	e3a0201c 	mov	r2, #28
82003cd8:	e0030392 	mul	r3, r2, r3
82003cdc:	e51b2010 	ldr	r2, [fp, #-16]
82003ce0:	e0822003 	add	r2, r2, r3
82003ce4:	e30a3110 	movw	r3, #41232	; 0xa110
82003ce8:	e3483200 	movt	r3, #33280	; 0x8200
82003cec:	e5823000 	str	r3, [r2]
82003cf0:	e51b3008 	ldr	r3, [fp, #-8]
82003cf4:	e3530000 	cmp	r3, #0
82003cf8:	1a000013 	bne	82003d4c <kpage_blks_init+0x170>
82003cfc:	e51b3008 	ldr	r3, [fp, #-8]
82003d00:	e3a0201c 	mov	r2, #28
82003d04:	e0030392 	mul	r3, r2, r3
82003d08:	e51b2010 	ldr	r2, [fp, #-16]
82003d0c:	e0823003 	add	r3, r2, r3
82003d10:	e3a02000 	mov	r2, #0
82003d14:	e5832008 	str	r2, [r3, #8]
82003d18:	e51b3008 	ldr	r3, [fp, #-8]
82003d1c:	e2833001 	add	r3, r3, #1
82003d20:	e3a0201c 	mov	r2, #28
82003d24:	e0020392 	mul	r2, r2, r3
82003d28:	e51b3008 	ldr	r3, [fp, #-8]
82003d2c:	e3a0101c 	mov	r1, #28
82003d30:	e0030391 	mul	r3, r1, r3
82003d34:	e51b1010 	ldr	r1, [fp, #-16]
82003d38:	e0813003 	add	r3, r1, r3
82003d3c:	e51b1010 	ldr	r1, [fp, #-16]
82003d40:	e0812002 	add	r2, r1, r2
82003d44:	e5832004 	str	r2, [r3, #4]
82003d48:	ea00002e 	b	82003e08 <kpage_blks_init+0x22c>
82003d4c:	e51b3008 	ldr	r3, [fp, #-8]
82003d50:	e353003f 	cmp	r3, #63	; 0x3f
82003d54:	1a000013 	bne	82003da8 <kpage_blks_init+0x1cc>
82003d58:	e51b3008 	ldr	r3, [fp, #-8]
82003d5c:	e3a0201c 	mov	r2, #28
82003d60:	e0030392 	mul	r3, r2, r3
82003d64:	e243201c 	sub	r2, r3, #28
82003d68:	e51b3008 	ldr	r3, [fp, #-8]
82003d6c:	e3a0101c 	mov	r1, #28
82003d70:	e0030391 	mul	r3, r1, r3
82003d74:	e51b1010 	ldr	r1, [fp, #-16]
82003d78:	e0813003 	add	r3, r1, r3
82003d7c:	e51b1010 	ldr	r1, [fp, #-16]
82003d80:	e0812002 	add	r2, r1, r2
82003d84:	e5832008 	str	r2, [r3, #8]
82003d88:	e51b3008 	ldr	r3, [fp, #-8]
82003d8c:	e3a0201c 	mov	r2, #28
82003d90:	e0030392 	mul	r3, r2, r3
82003d94:	e51b2010 	ldr	r2, [fp, #-16]
82003d98:	e0823003 	add	r3, r2, r3
82003d9c:	e3a02000 	mov	r2, #0
82003da0:	e5832004 	str	r2, [r3, #4]
82003da4:	ea000017 	b	82003e08 <kpage_blks_init+0x22c>
82003da8:	e51b3008 	ldr	r3, [fp, #-8]
82003dac:	e3a0201c 	mov	r2, #28
82003db0:	e0030392 	mul	r3, r2, r3
82003db4:	e243201c 	sub	r2, r3, #28
82003db8:	e51b3008 	ldr	r3, [fp, #-8]
82003dbc:	e3a0101c 	mov	r1, #28
82003dc0:	e0030391 	mul	r3, r1, r3
82003dc4:	e51b1010 	ldr	r1, [fp, #-16]
82003dc8:	e0813003 	add	r3, r1, r3
82003dcc:	e51b1010 	ldr	r1, [fp, #-16]
82003dd0:	e0812002 	add	r2, r1, r2
82003dd4:	e5832008 	str	r2, [r3, #8]
82003dd8:	e51b3008 	ldr	r3, [fp, #-8]
82003ddc:	e2833001 	add	r3, r3, #1
82003de0:	e3a0201c 	mov	r2, #28
82003de4:	e0020392 	mul	r2, r2, r3
82003de8:	e51b3008 	ldr	r3, [fp, #-8]
82003dec:	e3a0101c 	mov	r1, #28
82003df0:	e0030391 	mul	r3, r1, r3
82003df4:	e51b1010 	ldr	r1, [fp, #-16]
82003df8:	e0813003 	add	r3, r1, r3
82003dfc:	e51b1010 	ldr	r1, [fp, #-16]
82003e00:	e0812002 	add	r2, r1, r2
82003e04:	e5832004 	str	r2, [r3, #4]
82003e08:	e51b3008 	ldr	r3, [fp, #-8]
82003e0c:	e2833001 	add	r3, r3, #1
82003e10:	e50b3008 	str	r3, [fp, #-8]
82003e14:	e51b3008 	ldr	r3, [fp, #-8]
82003e18:	e353003f 	cmp	r3, #63	; 0x3f
82003e1c:	daffff83 	ble	82003c30 <kpage_blks_init+0x54>
82003e20:	e30a30dc 	movw	r3, #41180	; 0xa0dc
82003e24:	e3483200 	movt	r3, #33280	; 0x8200
82003e28:	e51b2010 	ldr	r2, [fp, #-16]
82003e2c:	e5832000 	str	r2, [r3]
82003e30:	e3a03901 	mov	r3, #16384	; 0x4000
82003e34:	e50b3014 	str	r3, [fp, #-20]	; 0xffffffec
82003e38:	e30a3110 	movw	r3, #41232	; 0xa110
82003e3c:	e3483200 	movt	r3, #33280	; 0x8200
82003e40:	e593301c 	ldr	r3, [r3, #28]
82003e44:	e1a02003 	mov	r2, r3
82003e48:	e51b3014 	ldr	r3, [fp, #-20]	; 0xffffffec
82003e4c:	e0823003 	add	r3, r2, r3
82003e50:	e2433001 	sub	r3, r3, #1
82003e54:	e50b3018 	str	r3, [fp, #-24]	; 0xffffffe8
82003e58:	e51b3018 	ldr	r3, [fp, #-24]	; 0xffffffe8
82003e5c:	e51b1014 	ldr	r1, [fp, #-20]	; 0xffffffec
82003e60:	e1a00003 	mov	r0, r3
82003e64:	eb0013b4 	bl	82008d3c <__aeabi_uidivmod>
82003e68:	e1a03001 	mov	r3, r1
82003e6c:	e1a02003 	mov	r2, r3
82003e70:	e51b3018 	ldr	r3, [fp, #-24]	; 0xffffffe8
82003e74:	e0433002 	sub	r3, r3, r2
82003e78:	e50b301c 	str	r3, [fp, #-28]	; 0xffffffe4
82003e7c:	e51b301c 	ldr	r3, [fp, #-28]	; 0xffffffe4
82003e80:	e283347e 	add	r3, r3, #2113929216	; 0x7e000000
82003e84:	e1a03623 	lsr	r3, r3, #12
82003e88:	e50b3020 	str	r3, [fp, #-32]	; 0xffffffe0
82003e8c:	ea000009 	b	82003eb8 <kpage_blks_init+0x2dc>
82003e90:	e51b300c 	ldr	r3, [fp, #-12]
82003e94:	e3a0201c 	mov	r2, #28
82003e98:	e0030392 	mul	r3, r2, r3
82003e9c:	e51b2010 	ldr	r2, [fp, #-16]
82003ea0:	e0823003 	add	r3, r2, r3
82003ea4:	e3a02002 	mov	r2, #2
82003ea8:	e5832014 	str	r2, [r3, #20]
82003eac:	e51b300c 	ldr	r3, [fp, #-12]
82003eb0:	e2833001 	add	r3, r3, #1
82003eb4:	e50b300c 	str	r3, [fp, #-12]
82003eb8:	e51b300c 	ldr	r3, [fp, #-12]
82003ebc:	e51b2020 	ldr	r2, [fp, #-32]	; 0xffffffe0
82003ec0:	e1520003 	cmp	r2, r3
82003ec4:	8afffff1 	bhi	82003e90 <kpage_blks_init+0x2b4>
82003ec8:	e51b3020 	ldr	r3, [fp, #-32]	; 0xffffffe0
82003ecc:	e3a0201c 	mov	r2, #28
82003ed0:	e0030392 	mul	r3, r2, r3
82003ed4:	e51b2010 	ldr	r2, [fp, #-16]
82003ed8:	e0822003 	add	r2, r2, r3
82003edc:	e30a3110 	movw	r3, #41232	; 0xa110
82003ee0:	e3483200 	movt	r3, #33280	; 0x8200
82003ee4:	e5832020 	str	r2, [r3, #32]
82003ee8:	e3a03901 	mov	r3, #16384	; 0x4000
82003eec:	e50b3024 	str	r3, [fp, #-36]	; 0xffffffdc
82003ef0:	e30a3110 	movw	r3, #41232	; 0xa110
82003ef4:	e3483200 	movt	r3, #33280	; 0x8200
82003ef8:	e593301c 	ldr	r3, [r3, #28]
82003efc:	e1a02003 	mov	r2, r3
82003f00:	e51b3024 	ldr	r3, [fp, #-36]	; 0xffffffdc
82003f04:	e0823003 	add	r3, r2, r3
82003f08:	e2433001 	sub	r3, r3, #1
82003f0c:	e50b3028 	str	r3, [fp, #-40]	; 0xffffffd8
82003f10:	e51b3028 	ldr	r3, [fp, #-40]	; 0xffffffd8
82003f14:	e51b1024 	ldr	r1, [fp, #-36]	; 0xffffffdc
82003f18:	e1a00003 	mov	r0, r3
82003f1c:	eb001386 	bl	82008d3c <__aeabi_uidivmod>
82003f20:	e1a03001 	mov	r3, r1
82003f24:	e1a02003 	mov	r2, r3
82003f28:	e51b3028 	ldr	r3, [fp, #-40]	; 0xffffffd8
82003f2c:	e0433002 	sub	r3, r3, r2
82003f30:	e1a02003 	mov	r2, r3
82003f34:	e30a3110 	movw	r3, #41232	; 0xa110
82003f38:	e3483200 	movt	r3, #33280	; 0x8200
82003f3c:	e583201c 	str	r2, [r3, #28]
82003f40:	e320f000 	nop	{0}
82003f44:	e24bd004 	sub	sp, fp, #4
82003f48:	e8bd8800 	pop	{fp, pc}

82003f4c <which_kblk>:
82003f4c:	e52db004 	push	{fp}		; (str fp, [sp, #-4]!)
82003f50:	e28db000 	add	fp, sp, #0
82003f54:	e24dd01c 	sub	sp, sp, #28
82003f58:	e50b0018 	str	r0, [fp, #-24]	; 0xffffffe8
82003f5c:	e51b3018 	ldr	r3, [fp, #-24]	; 0xffffffe8
82003f60:	e50b300c 	str	r3, [fp, #-12]
82003f64:	e51b300c 	ldr	r3, [fp, #-12]
82003f68:	e3c33eff 	bic	r3, r3, #4080	; 0xff0
82003f6c:	e3c3300f 	bic	r3, r3, #15
82003f70:	e50b3010 	str	r3, [fp, #-16]
82003f74:	e3a03000 	mov	r3, #0
82003f78:	e50b3014 	str	r3, [fp, #-20]	; 0xffffffec
82003f7c:	e3a03000 	mov	r3, #0
82003f80:	e50b3008 	str	r3, [fp, #-8]
82003f84:	ea000017 	b	82003fe8 <which_kblk+0x9c>
82003f88:	e30a30dc 	movw	r3, #41180	; 0xa0dc
82003f8c:	e3483200 	movt	r3, #33280	; 0x8200
82003f90:	e5932000 	ldr	r2, [r3]
82003f94:	e51b3008 	ldr	r3, [fp, #-8]
82003f98:	e3a0101c 	mov	r1, #28
82003f9c:	e0030391 	mul	r3, r1, r3
82003fa0:	e0823003 	add	r3, r2, r3
82003fa4:	e593200c 	ldr	r2, [r3, #12]
82003fa8:	e51b3010 	ldr	r3, [fp, #-16]
82003fac:	e1520003 	cmp	r2, r3
82003fb0:	1a000009 	bne	82003fdc <which_kblk+0x90>
82003fb4:	e30a30dc 	movw	r3, #41180	; 0xa0dc
82003fb8:	e3483200 	movt	r3, #33280	; 0x8200
82003fbc:	e5932000 	ldr	r2, [r3]
82003fc0:	e51b3008 	ldr	r3, [fp, #-8]
82003fc4:	e3a0101c 	mov	r1, #28
82003fc8:	e0030391 	mul	r3, r1, r3
82003fcc:	e0823003 	add	r3, r2, r3
82003fd0:	e50b3014 	str	r3, [fp, #-20]	; 0xffffffec
82003fd4:	e51b3014 	ldr	r3, [fp, #-20]	; 0xffffffec
82003fd8:	ea000005 	b	82003ff4 <which_kblk+0xa8>
82003fdc:	e51b3008 	ldr	r3, [fp, #-8]
82003fe0:	e2833001 	add	r3, r3, #1
82003fe4:	e50b3008 	str	r3, [fp, #-8]
82003fe8:	e51b3008 	ldr	r3, [fp, #-8]
82003fec:	e35300ff 	cmp	r3, #255	; 0xff
82003ff0:	daffffe4 	ble	82003f88 <which_kblk+0x3c>
82003ff4:	e1a00003 	mov	r0, r3
82003ff8:	e28bd000 	add	sp, fp, #0
82003ffc:	e49db004 	pop	{fp}		; (ldr fp, [sp], #4)
82004000:	e12fff1e 	bx	lr

82004004 <kblk_free>:
82004004:	e52db004 	push	{fp}		; (str fp, [sp, #-4]!)
82004008:	e28db000 	add	fp, sp, #0
8200400c:	e24dd024 	sub	sp, sp, #36	; 0x24
82004010:	e50b0020 	str	r0, [fp, #-32]	; 0xffffffe0
82004014:	e51b3020 	ldr	r3, [fp, #-32]	; 0xffffffe0
82004018:	e50b3014 	str	r3, [fp, #-20]	; 0xffffffec
8200401c:	e51b3014 	ldr	r3, [fp, #-20]	; 0xffffffec
82004020:	e3c33eff 	bic	r3, r3, #4080	; 0xff0
82004024:	e3c3300f 	bic	r3, r3, #15
82004028:	e50b3018 	str	r3, [fp, #-24]	; 0xffffffe8
8200402c:	e3a03000 	mov	r3, #0
82004030:	e50b3008 	str	r3, [fp, #-8]
82004034:	e3a03000 	mov	r3, #0
82004038:	e50b300c 	str	r3, [fp, #-12]
8200403c:	ea000016 	b	8200409c <kblk_free+0x98>
82004040:	e30a30dc 	movw	r3, #41180	; 0xa0dc
82004044:	e3483200 	movt	r3, #33280	; 0x8200
82004048:	e5932000 	ldr	r2, [r3]
8200404c:	e51b300c 	ldr	r3, [fp, #-12]
82004050:	e3a0101c 	mov	r1, #28
82004054:	e0030391 	mul	r3, r1, r3
82004058:	e0823003 	add	r3, r2, r3
8200405c:	e593200c 	ldr	r2, [r3, #12]
82004060:	e51b3018 	ldr	r3, [fp, #-24]	; 0xffffffe8
82004064:	e1520003 	cmp	r2, r3
82004068:	1a000008 	bne	82004090 <kblk_free+0x8c>
8200406c:	e30a30dc 	movw	r3, #41180	; 0xa0dc
82004070:	e3483200 	movt	r3, #33280	; 0x8200
82004074:	e5932000 	ldr	r2, [r3]
82004078:	e51b300c 	ldr	r3, [fp, #-12]
8200407c:	e3a0101c 	mov	r1, #28
82004080:	e0030391 	mul	r3, r1, r3
82004084:	e0823003 	add	r3, r2, r3
82004088:	e50b3008 	str	r3, [fp, #-8]
8200408c:	ea000005 	b	820040a8 <kblk_free+0xa4>
82004090:	e51b300c 	ldr	r3, [fp, #-12]
82004094:	e2833001 	add	r3, r3, #1
82004098:	e50b300c 	str	r3, [fp, #-12]
8200409c:	e51b300c 	ldr	r3, [fp, #-12]
820040a0:	e35300ff 	cmp	r3, #255	; 0xff
820040a4:	daffffe5 	ble	82004040 <kblk_free+0x3c>
820040a8:	e30a3110 	movw	r3, #41232	; 0xa110
820040ac:	e3483200 	movt	r3, #33280	; 0x8200
820040b0:	e5933020 	ldr	r3, [r3, #32]
820040b4:	e50b3010 	str	r3, [fp, #-16]
820040b8:	e3a03000 	mov	r3, #0
820040bc:	e50b301c 	str	r3, [fp, #-28]	; 0xffffffe4
820040c0:	ea000002 	b	820040d0 <kblk_free+0xcc>
820040c4:	e51b3010 	ldr	r3, [fp, #-16]
820040c8:	e5933004 	ldr	r3, [r3, #4]
820040cc:	e50b3010 	str	r3, [fp, #-16]
820040d0:	e51b3010 	ldr	r3, [fp, #-16]
820040d4:	e5933004 	ldr	r3, [r3, #4]
820040d8:	e3530000 	cmp	r3, #0
820040dc:	1afffff8 	bne	820040c4 <kblk_free+0xc0>
820040e0:	e51b3010 	ldr	r3, [fp, #-16]
820040e4:	e50b301c 	str	r3, [fp, #-28]	; 0xffffffe4
820040e8:	e51b301c 	ldr	r3, [fp, #-28]	; 0xffffffe4
820040ec:	e51b2008 	ldr	r2, [fp, #-8]
820040f0:	e5832004 	str	r2, [r3, #4]
820040f4:	e51b3008 	ldr	r3, [fp, #-8]
820040f8:	e51b201c 	ldr	r2, [fp, #-28]	; 0xffffffe4
820040fc:	e5832008 	str	r2, [r3, #8]
82004100:	e51b3008 	ldr	r3, [fp, #-8]
82004104:	e3a02000 	mov	r2, #0
82004108:	e5832004 	str	r2, [r3, #4]
8200410c:	e51b3008 	ldr	r3, [fp, #-8]
82004110:	e3a02000 	mov	r2, #0
82004114:	e5832014 	str	r2, [r3, #20]
82004118:	e320f000 	nop	{0}
8200411c:	e28bd000 	add	sp, fp, #0
82004120:	e49db004 	pop	{fp}		; (ldr fp, [sp], #4)
82004124:	e12fff1e 	bx	lr

82004128 <kblk_alloc>:
82004128:	e92d4800 	push	{fp, lr}
8200412c:	e28db004 	add	fp, sp, #4
82004130:	e24dd010 	sub	sp, sp, #16
82004134:	e50b0010 	str	r0, [fp, #-16]
82004138:	e30a3110 	movw	r3, #41232	; 0xa110
8200413c:	e3483200 	movt	r3, #33280	; 0x8200
82004140:	e5933020 	ldr	r3, [r3, #32]
82004144:	e3530000 	cmp	r3, #0
82004148:	1a000002 	bne	82004158 <kblk_alloc+0x30>
8200414c:	e3090680 	movw	r0, #38528	; 0x9680
82004150:	e3480200 	movt	r0, #33280	; 0x8200
82004154:	eb0002ba 	bl	82004c44 <printk>
82004158:	e30a3110 	movw	r3, #41232	; 0xa110
8200415c:	e3483200 	movt	r3, #33280	; 0x8200
82004160:	e5933020 	ldr	r3, [r3, #32]
82004164:	e5933004 	ldr	r3, [r3, #4]
82004168:	e3530000 	cmp	r3, #0
8200416c:	1a000002 	bne	8200417c <kblk_alloc+0x54>
82004170:	e309069c 	movw	r0, #38556	; 0x969c
82004174:	e3480200 	movt	r0, #33280	; 0x8200
82004178:	eb0002b1 	bl	82004c44 <printk>
8200417c:	e30a3110 	movw	r3, #41232	; 0xa110
82004180:	e3483200 	movt	r3, #33280	; 0x8200
82004184:	e5933020 	ldr	r3, [r3, #32]
82004188:	e50b3008 	str	r3, [fp, #-8]
8200418c:	e30a3110 	movw	r3, #41232	; 0xa110
82004190:	e3483200 	movt	r3, #33280	; 0x8200
82004194:	e5933020 	ldr	r3, [r3, #32]
82004198:	e5932004 	ldr	r2, [r3, #4]
8200419c:	e30a3110 	movw	r3, #41232	; 0xa110
820041a0:	e3483200 	movt	r3, #33280	; 0x8200
820041a4:	e5832020 	str	r2, [r3, #32]
820041a8:	e30a3110 	movw	r3, #41232	; 0xa110
820041ac:	e3483200 	movt	r3, #33280	; 0x8200
820041b0:	e5933020 	ldr	r3, [r3, #32]
820041b4:	e3a02000 	mov	r2, #0
820041b8:	e5832008 	str	r2, [r3, #8]
820041bc:	e51b3008 	ldr	r3, [fp, #-8]
820041c0:	e3a02000 	mov	r2, #0
820041c4:	e5832004 	str	r2, [r3, #4]
820041c8:	e51b3008 	ldr	r3, [fp, #-8]
820041cc:	e3a02000 	mov	r2, #0
820041d0:	e5832008 	str	r2, [r3, #8]
820041d4:	e51b2010 	ldr	r2, [fp, #-16]
820041d8:	e51b3008 	ldr	r3, [fp, #-8]
820041dc:	e5832014 	str	r2, [r3, #20]
820041e0:	e51b3008 	ldr	r3, [fp, #-8]
820041e4:	e593300c 	ldr	r3, [r3, #12]
820041e8:	e1a00003 	mov	r0, r3
820041ec:	e24bd004 	sub	sp, fp, #4
820041f0:	e8bd8800 	pop	{fp, pc}

820041f4 <free_pgt>:
820041f4:	e92d4800 	push	{fp, lr}
820041f8:	e28db004 	add	fp, sp, #4
820041fc:	e24dd008 	sub	sp, sp, #8
82004200:	e50b0008 	str	r0, [fp, #-8]
82004204:	e51b0008 	ldr	r0, [fp, #-8]
82004208:	ebffff7d 	bl	82004004 <kblk_free>
8200420c:	e320f000 	nop	{0}
82004210:	e24bd004 	sub	sp, fp, #4
82004214:	e8bd8800 	pop	{fp, pc}

82004218 <gen_pte>:
82004218:	e52db004 	push	{fp}		; (str fp, [sp, #-4]!)
8200421c:	e28db000 	add	fp, sp, #0
82004220:	e24dd00c 	sub	sp, sp, #12
82004224:	e50b0008 	str	r0, [fp, #-8]
82004228:	e51b3008 	ldr	r3, [fp, #-8]
8200422c:	e1a03a23 	lsr	r3, r3, #20
82004230:	e1a03a03 	lsl	r3, r3, #20
82004234:	e3833002 	orr	r3, r3, #2
82004238:	e1a00003 	mov	r0, r3
8200423c:	e28bd000 	add	sp, fp, #0
82004240:	e49db004 	pop	{fp}		; (ldr fp, [sp], #4)
82004244:	e12fff1e 	bx	lr

82004248 <gen_pte_addr>:
82004248:	e52db004 	push	{fp}		; (str fp, [sp, #-4]!)
8200424c:	e28db000 	add	fp, sp, #0
82004250:	e24dd00c 	sub	sp, sp, #12
82004254:	e50b0008 	str	r0, [fp, #-8]
82004258:	e50b100c 	str	r1, [fp, #-12]
8200425c:	e51b3008 	ldr	r3, [fp, #-8]
82004260:	e3c33dff 	bic	r3, r3, #16320	; 0x3fc0
82004264:	e3c3303f 	bic	r3, r3, #63	; 0x3f
82004268:	e51b200c 	ldr	r2, [fp, #-12]
8200426c:	e1a02a22 	lsr	r2, r2, #20
82004270:	e1a02102 	lsl	r2, r2, #2
82004274:	e1833002 	orr	r3, r3, r2
82004278:	e1a00003 	mov	r0, r3
8200427c:	e28bd000 	add	sp, fp, #0
82004280:	e49db004 	pop	{fp}		; (ldr fp, [sp], #4)
82004284:	e12fff1e 	bx	lr

82004288 <pte_init>:
82004288:	e92d4800 	push	{fp, lr}
8200428c:	e28db004 	add	fp, sp, #4
82004290:	e24dd048 	sub	sp, sp, #72	; 0x48
82004294:	e50b0040 	str	r0, [fp, #-64]	; 0xffffffc0
82004298:	e50b1044 	str	r1, [fp, #-68]	; 0xffffffbc
8200429c:	e50b2048 	str	r2, [fp, #-72]	; 0xffffffb8
820042a0:	e50b304c 	str	r3, [fp, #-76]	; 0xffffffb4
820042a4:	e3a03000 	mov	r3, #0
820042a8:	e50b300c 	str	r3, [fp, #-12]
820042ac:	e51b3040 	ldr	r3, [fp, #-64]	; 0xffffffc0
820042b0:	e50b3010 	str	r3, [fp, #-16]
820042b4:	e51b3010 	ldr	r3, [fp, #-16]
820042b8:	e1a03a23 	lsr	r3, r3, #20
820042bc:	e1a03a03 	lsl	r3, r3, #20
820042c0:	e50b3014 	str	r3, [fp, #-20]	; 0xffffffec
820042c4:	e51b3044 	ldr	r3, [fp, #-68]	; 0xffffffbc
820042c8:	e3730601 	cmn	r3, #1048576	; 0x100000
820042cc:	2a000010 	bcs	82004314 <pte_init+0x8c>
820042d0:	e3a03601 	mov	r3, #1048576	; 0x100000
820042d4:	e50b3020 	str	r3, [fp, #-32]	; 0xffffffe0
820042d8:	e51b2044 	ldr	r2, [fp, #-68]	; 0xffffffbc
820042dc:	e51b3020 	ldr	r3, [fp, #-32]	; 0xffffffe0
820042e0:	e0823003 	add	r3, r2, r3
820042e4:	e2433001 	sub	r3, r3, #1
820042e8:	e50b3024 	str	r3, [fp, #-36]	; 0xffffffdc
820042ec:	e51b3024 	ldr	r3, [fp, #-36]	; 0xffffffdc
820042f0:	e51b1020 	ldr	r1, [fp, #-32]	; 0xffffffe0
820042f4:	e1a00003 	mov	r0, r3
820042f8:	eb00128f 	bl	82008d3c <__aeabi_uidivmod>
820042fc:	e1a03001 	mov	r3, r1
82004300:	e1a02003 	mov	r2, r3
82004304:	e51b3024 	ldr	r3, [fp, #-36]	; 0xffffffdc
82004308:	e0433002 	sub	r3, r3, r2
8200430c:	e50b301c 	str	r3, [fp, #-28]	; 0xffffffe4
82004310:	ea000005 	b	8200432c <pte_init+0xa4>
82004314:	e51b3044 	ldr	r3, [fp, #-68]	; 0xffffffbc
82004318:	e50b3018 	str	r3, [fp, #-24]	; 0xffffffe8
8200431c:	e51b3018 	ldr	r3, [fp, #-24]	; 0xffffffe8
82004320:	e1a03a23 	lsr	r3, r3, #20
82004324:	e1a03a03 	lsl	r3, r3, #20
82004328:	e50b301c 	str	r3, [fp, #-28]	; 0xffffffe4
8200432c:	e3a03601 	mov	r3, #1048576	; 0x100000
82004330:	e50b3028 	str	r3, [fp, #-40]	; 0xffffffd8
82004334:	e51b2044 	ldr	r2, [fp, #-68]	; 0xffffffbc
82004338:	e51b3028 	ldr	r3, [fp, #-40]	; 0xffffffd8
8200433c:	e0823003 	add	r3, r2, r3
82004340:	e2433001 	sub	r3, r3, #1
82004344:	e50b302c 	str	r3, [fp, #-44]	; 0xffffffd4
82004348:	e51b302c 	ldr	r3, [fp, #-44]	; 0xffffffd4
8200434c:	e51b1028 	ldr	r1, [fp, #-40]	; 0xffffffd8
82004350:	e1a00003 	mov	r0, r3
82004354:	eb001278 	bl	82008d3c <__aeabi_uidivmod>
82004358:	e1a03001 	mov	r3, r1
8200435c:	e1a02003 	mov	r2, r3
82004360:	e51b302c 	ldr	r3, [fp, #-44]	; 0xffffffd4
82004364:	e0432002 	sub	r2, r3, r2
82004368:	e51b3040 	ldr	r3, [fp, #-64]	; 0xffffffc0
8200436c:	e50b3030 	str	r3, [fp, #-48]	; 0xffffffd0
82004370:	e51b3030 	ldr	r3, [fp, #-48]	; 0xffffffd0
82004374:	e1a03a23 	lsr	r3, r3, #20
82004378:	e1a03a03 	lsl	r3, r3, #20
8200437c:	e0423003 	sub	r3, r2, r3
82004380:	e1a02a23 	lsr	r2, r3, #20
82004384:	e51b300c 	ldr	r3, [fp, #-12]
82004388:	e0823003 	add	r3, r2, r3
8200438c:	e50b300c 	str	r3, [fp, #-12]
82004390:	e3a03000 	mov	r3, #0
82004394:	e50b3008 	str	r3, [fp, #-8]
82004398:	ea000024 	b	82004430 <pte_init+0x1a8>
8200439c:	e51b3008 	ldr	r3, [fp, #-8]
820043a0:	e1a03a03 	lsl	r3, r3, #20
820043a4:	e1a02003 	mov	r2, r3
820043a8:	e51b3014 	ldr	r3, [fp, #-20]	; 0xffffffec
820043ac:	e0823003 	add	r3, r2, r3
820043b0:	e1a00003 	mov	r0, r3
820043b4:	ebffff97 	bl	82004218 <gen_pte>
820043b8:	e50b0034 	str	r0, [fp, #-52]	; 0xffffffcc
820043bc:	e51b3048 	ldr	r3, [fp, #-72]	; 0xffffffb8
820043c0:	e1a03503 	lsl	r3, r3, #10
820043c4:	e1a02003 	mov	r2, r3
820043c8:	e51b3034 	ldr	r3, [fp, #-52]	; 0xffffffcc
820043cc:	e1833002 	orr	r3, r3, r2
820043d0:	e50b3034 	str	r3, [fp, #-52]	; 0xffffffcc
820043d4:	e51b3034 	ldr	r3, [fp, #-52]	; 0xffffffcc
820043d8:	e3833801 	orr	r3, r3, #65536	; 0x10000
820043dc:	e50b3034 	str	r3, [fp, #-52]	; 0xffffffcc
820043e0:	e51b3008 	ldr	r3, [fp, #-8]
820043e4:	e1a03a03 	lsl	r3, r3, #20
820043e8:	e1a02003 	mov	r2, r3
820043ec:	e51b304c 	ldr	r3, [fp, #-76]	; 0xffffffb4
820043f0:	e0823003 	add	r3, r2, r3
820043f4:	e1a01003 	mov	r1, r3
820043f8:	e59b0004 	ldr	r0, [fp, #4]
820043fc:	ebffff91 	bl	82004248 <gen_pte_addr>
82004400:	e50b0038 	str	r0, [fp, #-56]	; 0xffffffc8
82004404:	e51b3038 	ldr	r3, [fp, #-56]	; 0xffffffc8
82004408:	e3a02004 	mov	r2, #4
8200440c:	e3a01000 	mov	r1, #0
82004410:	e1a00003 	mov	r0, r3
82004414:	ebfff9e8 	bl	82002bbc <_memset>
82004418:	e51b3038 	ldr	r3, [fp, #-56]	; 0xffffffc8
8200441c:	e51b2034 	ldr	r2, [fp, #-52]	; 0xffffffcc
82004420:	e5832000 	str	r2, [r3]
82004424:	e51b3008 	ldr	r3, [fp, #-8]
82004428:	e2833001 	add	r3, r3, #1
8200442c:	e50b3008 	str	r3, [fp, #-8]
82004430:	e51b2008 	ldr	r2, [fp, #-8]
82004434:	e51b300c 	ldr	r3, [fp, #-12]
82004438:	e1520003 	cmp	r2, r3
8200443c:	baffffd6 	blt	8200439c <pte_init+0x114>
82004440:	e320f000 	nop	{0}
82004444:	e320f000 	nop	{0}
82004448:	e24bd004 	sub	sp, fp, #4
8200444c:	e8bd8800 	pop	{fp, pc}

82004450 <mem_map>:
82004450:	e92d4800 	push	{fp, lr}
82004454:	e28db004 	add	fp, sp, #4
82004458:	e24dd018 	sub	sp, sp, #24
8200445c:	e3a03801 	mov	r3, #65536	; 0x10000
82004460:	e50b3008 	str	r3, [fp, #-8]
82004464:	e3093e74 	movw	r3, #40564	; 0x9e74
82004468:	e3483200 	movt	r3, #33280	; 0x8200
8200446c:	e5933000 	ldr	r3, [r3]
82004470:	e1a02003 	mov	r2, r3
82004474:	e51b3008 	ldr	r3, [fp, #-8]
82004478:	e0823003 	add	r3, r2, r3
8200447c:	e2433001 	sub	r3, r3, #1
82004480:	e50b300c 	str	r3, [fp, #-12]
82004484:	e51b300c 	ldr	r3, [fp, #-12]
82004488:	e51b1008 	ldr	r1, [fp, #-8]
8200448c:	e1a00003 	mov	r0, r3
82004490:	eb001229 	bl	82008d3c <__aeabi_uidivmod>
82004494:	e1a03001 	mov	r3, r1
82004498:	e1a02003 	mov	r2, r3
8200449c:	e51b300c 	ldr	r3, [fp, #-12]
820044a0:	e0433002 	sub	r3, r3, r2
820044a4:	e50b3010 	str	r3, [fp, #-16]
820044a8:	e51b3010 	ldr	r3, [fp, #-16]
820044ac:	e58d3000 	str	r3, [sp]
820044b0:	e3a03000 	mov	r3, #0
820044b4:	e3a02001 	mov	r2, #1
820044b8:	e3a01102 	mov	r1, #-2147483648	; 0x80000000
820044bc:	e3a00000 	mov	r0, #0
820044c0:	ebffff70 	bl	82004288 <pte_init>
820044c4:	e51b3010 	ldr	r3, [fp, #-16]
820044c8:	e58d3000 	str	r3, [sp]
820044cc:	e3a03102 	mov	r3, #-2147483648	; 0x80000000
820044d0:	e3a02001 	mov	r2, #1
820044d4:	e3a01482 	mov	r1, #-2113929216	; 0x82000000
820044d8:	e3a00102 	mov	r0, #-2147483648	; 0x80000000
820044dc:	ebffff69 	bl	82004288 <pte_init>
820044e0:	e51b3010 	ldr	r3, [fp, #-16]
820044e4:	e58d3000 	str	r3, [sp]
820044e8:	e3a03482 	mov	r3, #-2113929216	; 0x82000000
820044ec:	e3a02002 	mov	r2, #2
820044f0:	e3a01000 	mov	r1, #0
820044f4:	e3481210 	movt	r1, #33296	; 0x8210
820044f8:	e3a00482 	mov	r0, #-2113929216	; 0x82000000
820044fc:	ebffff61 	bl	82004288 <pte_init>
82004500:	e51b3010 	ldr	r3, [fp, #-16]
82004504:	e58d3000 	str	r3, [sp]
82004508:	e3a03000 	mov	r3, #0
8200450c:	e3483210 	movt	r3, #33296	; 0x8210
82004510:	e3a02002 	mov	r2, #2
82004514:	e3a01209 	mov	r1, #-1879048192	; 0x90000000
82004518:	e3a00000 	mov	r0, #0
8200451c:	e3480210 	movt	r0, #33296	; 0x8210
82004520:	ebffff58 	bl	82004288 <pte_init>
82004524:	e51b3010 	ldr	r3, [fp, #-16]
82004528:	e58d3000 	str	r3, [sp]
8200452c:	e3a03209 	mov	r3, #-1879048192	; 0x90000000
82004530:	e3a02002 	mov	r2, #2
82004534:	e3a01000 	mov	r1, #0
82004538:	e3491df0 	movt	r1, #40432	; 0x9df0
8200453c:	e3a00209 	mov	r0, #-1879048192	; 0x90000000
82004540:	ebffff50 	bl	82004288 <pte_init>
82004544:	e51b3010 	ldr	r3, [fp, #-16]
82004548:	e58d3000 	str	r3, [sp]
8200454c:	e3a03000 	mov	r3, #0
82004550:	e3493df0 	movt	r3, #40432	; 0x9df0
82004554:	e3a02002 	mov	r2, #2
82004558:	e3a0120a 	mov	r1, #-1610612736	; 0xa0000000
8200455c:	e3a00000 	mov	r0, #0
82004560:	e3490df0 	movt	r0, #40432	; 0x9df0
82004564:	ebffff47 	bl	82004288 <pte_init>
82004568:	e320f000 	nop	{0}
8200456c:	e24bd004 	sub	sp, fp, #4
82004570:	e8bd8800 	pop	{fp, pc}

82004574 <mmu_init>:
82004574:	e92d4800 	push	{fp, lr}
82004578:	e28db004 	add	fp, sp, #4
8200457c:	eb000012 	bl	820045cc <invalidate_tlb>
82004580:	eb00001b 	bl	820045f4 <mmu_disable>
82004584:	ebffffb1 	bl	82004450 <mem_map>
82004588:	eb00004d 	bl	820046c4 <set_domain>
8200458c:	eb000024 	bl	82004624 <set_pgt_base>
82004590:	eb000001 	bl	8200459c <mmu_enable>
82004594:	e320f000 	nop	{0}
82004598:	e8bd8800 	pop	{fp, pc}

8200459c <mmu_enable>:
8200459c:	e52db004 	push	{fp}		; (str fp, [sp, #-4]!)
820045a0:	e28db000 	add	fp, sp, #0
820045a4:	e92d0001 	stmfd	sp!, {r0}
820045a8:	ee110f10 	mrc	15, 0, r0, cr1, cr0, {0}
820045ac:	e3800001 	orr	r0, r0, #1
820045b0:	ee010f10 	mcr	15, 0, r0, cr1, cr0, {0}
820045b4:	f57ff04f 	dsb	sy
820045b8:	e8bd0001 	ldmfd	sp!, {r0}
820045bc:	e320f000 	nop	{0}
820045c0:	e28bd000 	add	sp, fp, #0
820045c4:	e49db004 	pop	{fp}		; (ldr fp, [sp], #4)
820045c8:	e12fff1e 	bx	lr

820045cc <invalidate_tlb>:
820045cc:	e52db004 	push	{fp}		; (str fp, [sp, #-4]!)
820045d0:	e28db000 	add	fp, sp, #0
820045d4:	e92d0001 	stmfd	sp!, {r0}
820045d8:	ee080f17 	mcr	15, 0, r0, cr8, cr7, {0}
820045dc:	f57ff04f 	dsb	sy
820045e0:	e8bd0001 	ldmfd	sp!, {r0}
820045e4:	e320f000 	nop	{0}
820045e8:	e28bd000 	add	sp, fp, #0
820045ec:	e49db004 	pop	{fp}		; (ldr fp, [sp], #4)
820045f0:	e12fff1e 	bx	lr

820045f4 <mmu_disable>:
820045f4:	e52db004 	push	{fp}		; (str fp, [sp, #-4]!)
820045f8:	e28db000 	add	fp, sp, #0
820045fc:	e92d0001 	stmfd	sp!, {r0}
82004600:	ee110f10 	mrc	15, 0, r0, cr1, cr0, {0}
82004604:	e3c00001 	bic	r0, r0, #1
82004608:	ee010f10 	mcr	15, 0, r0, cr1, cr0, {0}
8200460c:	f57ff04f 	dsb	sy
82004610:	e8bd0001 	ldmfd	sp!, {r0}
82004614:	e320f000 	nop	{0}
82004618:	e28bd000 	add	sp, fp, #0
8200461c:	e49db004 	pop	{fp}		; (ldr fp, [sp], #4)
82004620:	e12fff1e 	bx	lr

82004624 <set_pgt_base>:
82004624:	e92d4800 	push	{fp, lr}
82004628:	e28db004 	add	fp, sp, #4
8200462c:	e24dd010 	sub	sp, sp, #16
82004630:	e3a03801 	mov	r3, #65536	; 0x10000
82004634:	e50b3008 	str	r3, [fp, #-8]
82004638:	e3093e74 	movw	r3, #40564	; 0x9e74
8200463c:	e3483200 	movt	r3, #33280	; 0x8200
82004640:	e5933000 	ldr	r3, [r3]
82004644:	e1a02003 	mov	r2, r3
82004648:	e51b3008 	ldr	r3, [fp, #-8]
8200464c:	e0823003 	add	r3, r2, r3
82004650:	e2433001 	sub	r3, r3, #1
82004654:	e50b300c 	str	r3, [fp, #-12]
82004658:	e51b300c 	ldr	r3, [fp, #-12]
8200465c:	e51b1008 	ldr	r1, [fp, #-8]
82004660:	e1a00003 	mov	r0, r3
82004664:	eb0011b4 	bl	82008d3c <__aeabi_uidivmod>
82004668:	e1a03001 	mov	r3, r1
8200466c:	e1a02003 	mov	r2, r3
82004670:	e51b300c 	ldr	r3, [fp, #-12]
82004674:	e0433002 	sub	r3, r3, r2
82004678:	e50b3010 	str	r3, [fp, #-16]
8200467c:	e51b3010 	ldr	r3, [fp, #-16]
82004680:	e92d0001 	stmfd	sp!, {r0}
82004684:	e1a00003 	mov	r0, r3
82004688:	ee023f10 	mcr	15, 0, r3, cr2, cr0, {0}
8200468c:	e8bd0001 	ldmfd	sp!, {r0}
82004690:	e320f000 	nop	{0}
82004694:	e24bd004 	sub	sp, fp, #4
82004698:	e8bd8800 	pop	{fp, pc}

8200469c <get_pgt_base>:
8200469c:	e52db004 	push	{fp}		; (str fp, [sp, #-4]!)
820046a0:	e28db000 	add	fp, sp, #0
820046a4:	e24dd00c 	sub	sp, sp, #12
820046a8:	ee123f10 	mrc	15, 0, r3, cr2, cr0, {0}
820046ac:	e50b3008 	str	r3, [fp, #-8]
820046b0:	e51b3008 	ldr	r3, [fp, #-8]
820046b4:	e1a00003 	mov	r0, r3
820046b8:	e28bd000 	add	sp, fp, #0
820046bc:	e49db004 	pop	{fp}		; (ldr fp, [sp], #4)
820046c0:	e12fff1e 	bx	lr

820046c4 <set_domain>:
820046c4:	e52db004 	push	{fp}		; (str fp, [sp, #-4]!)
820046c8:	e28db000 	add	fp, sp, #0
820046cc:	e24dd00c 	sub	sp, sp, #12
820046d0:	e3a03001 	mov	r3, #1
820046d4:	e50b3008 	str	r3, [fp, #-8]
820046d8:	e51b3008 	ldr	r3, [fp, #-8]
820046dc:	e92d0001 	stmfd	sp!, {r0}
820046e0:	e1a00003 	mov	r0, r3
820046e4:	ee033f10 	mcr	15, 0, r3, cr3, cr0, {0}
820046e8:	e8bd0001 	ldmfd	sp!, {r0}
820046ec:	e320f000 	nop	{0}
820046f0:	e28bd000 	add	sp, fp, #0
820046f4:	e49db004 	pop	{fp}		; (ldr fp, [sp], #4)
820046f8:	e12fff1e 	bx	lr

820046fc <get_domain>:
820046fc:	e52db004 	push	{fp}		; (str fp, [sp, #-4]!)
82004700:	e28db000 	add	fp, sp, #0
82004704:	e24dd00c 	sub	sp, sp, #12
82004708:	ee133f10 	mrc	15, 0, r3, cr3, cr0, {0}
8200470c:	e50b3008 	str	r3, [fp, #-8]
82004710:	e51b3008 	ldr	r3, [fp, #-8]
82004714:	e1a00003 	mov	r0, r3
82004718:	e28bd000 	add	sp, fp, #0
8200471c:	e49db004 	pop	{fp}		; (ldr fp, [sp], #4)
82004720:	e12fff1e 	bx	lr

82004724 <pgt_base_setup>:
82004724:	e52db004 	push	{fp}		; (str fp, [sp, #-4]!)
82004728:	e28db000 	add	fp, sp, #0
8200472c:	e24dd014 	sub	sp, sp, #20
82004730:	e50b0010 	str	r0, [fp, #-16]
82004734:	e51b3010 	ldr	r3, [fp, #-16]
82004738:	e50b3008 	str	r3, [fp, #-8]
8200473c:	e51b3008 	ldr	r3, [fp, #-8]
82004740:	e92d0001 	stmfd	sp!, {r0}
82004744:	e1a00003 	mov	r0, r3
82004748:	ee023f10 	mcr	15, 0, r3, cr2, cr0, {0}
8200474c:	e8bd0001 	ldmfd	sp!, {r0}
82004750:	e320f000 	nop	{0}
82004754:	e28bd000 	add	sp, fp, #0
82004758:	e49db004 	pop	{fp}		; (ldr fp, [sp], #4)
8200475c:	e12fff1e 	bx	lr

82004760 <task_pgt_setup>:
82004760:	e92d4800 	push	{fp, lr}
82004764:	e28db004 	add	fp, sp, #4
82004768:	e24dd018 	sub	sp, sp, #24
8200476c:	e50b0010 	str	r0, [fp, #-16]
82004770:	e50b1014 	str	r1, [fp, #-20]	; 0xffffffec
82004774:	e3a00004 	mov	r0, #4
82004778:	ebfffe6a 	bl	82004128 <kblk_alloc>
8200477c:	e50b0008 	str	r0, [fp, #-8]
82004780:	e51b3008 	ldr	r3, [fp, #-8]
82004784:	e58d3000 	str	r3, [sp]
82004788:	e3a03101 	mov	r3, #1073741824	; 0x40000000
8200478c:	e3a02001 	mov	r2, #1
82004790:	e3a01206 	mov	r1, #1610612736	; 0x60000000
82004794:	e3a00101 	mov	r0, #1073741824	; 0x40000000
82004798:	ebfffeba 	bl	82004288 <pte_init>
8200479c:	e51b3008 	ldr	r3, [fp, #-8]
820047a0:	e58d3000 	str	r3, [sp]
820047a4:	e3a03482 	mov	r3, #-2113929216	; 0x82000000
820047a8:	e3a02002 	mov	r2, #2
820047ac:	e3a01000 	mov	r1, #0
820047b0:	e3481210 	movt	r1, #33296	; 0x8210
820047b4:	e3a00482 	mov	r0, #-2113929216	; 0x82000000
820047b8:	ebfffeb2 	bl	82004288 <pte_init>
820047bc:	e51b3008 	ldr	r3, [fp, #-8]
820047c0:	e58d3000 	str	r3, [sp]
820047c4:	e3a03000 	mov	r3, #0
820047c8:	e3483210 	movt	r3, #33296	; 0x8210
820047cc:	e3a02001 	mov	r2, #1
820047d0:	e3a0120a 	mov	r1, #-1610612736	; 0xa0000000
820047d4:	e3a00000 	mov	r0, #0
820047d8:	e3480210 	movt	r0, #33296	; 0x8210
820047dc:	ebfffea9 	bl	82004288 <pte_init>
820047e0:	e51b0010 	ldr	r0, [fp, #-16]
820047e4:	e51b1014 	ldr	r1, [fp, #-20]	; 0xffffffec
820047e8:	e51b2010 	ldr	r2, [fp, #-16]
820047ec:	e51b3008 	ldr	r3, [fp, #-8]
820047f0:	e58d3000 	str	r3, [sp]
820047f4:	e1a03002 	mov	r3, r2
820047f8:	e3a02003 	mov	r2, #3
820047fc:	ebfffea1 	bl	82004288 <pte_init>
82004800:	e51b3008 	ldr	r3, [fp, #-8]
82004804:	e1a00003 	mov	r0, r3
82004808:	e24bd004 	sub	sp, fp, #4
8200480c:	e8bd8800 	pop	{fp, pc}

82004810 <set_pte>:
82004810:	e92d4800 	push	{fp, lr}
82004814:	e28db004 	add	fp, sp, #4
82004818:	e24dd018 	sub	sp, sp, #24
8200481c:	e50b0008 	str	r0, [fp, #-8]
82004820:	e50b100c 	str	r1, [fp, #-12]
82004824:	e50b2010 	str	r2, [fp, #-16]
82004828:	e51b0008 	ldr	r0, [fp, #-8]
8200482c:	e51b100c 	ldr	r1, [fp, #-12]
82004830:	e51b2008 	ldr	r2, [fp, #-8]
82004834:	e51b3010 	ldr	r3, [fp, #-16]
82004838:	e58d3000 	str	r3, [sp]
8200483c:	e1a03002 	mov	r3, r2
82004840:	e3a02003 	mov	r2, #3
82004844:	ebfffe8f 	bl	82004288 <pte_init>
82004848:	e320f000 	nop	{0}
8200484c:	e24bd004 	sub	sp, fp, #4
82004850:	e8bd8800 	pop	{fp, pc}

82004854 <switch_mm>:
82004854:	e92d4800 	push	{fp, lr}
82004858:	e28db004 	add	fp, sp, #4
8200485c:	e24dd008 	sub	sp, sp, #8
82004860:	e50b0008 	str	r0, [fp, #-8]
82004864:	ebffff58 	bl	820045cc <invalidate_tlb>
82004868:	e51b0008 	ldr	r0, [fp, #-8]
8200486c:	ebffffac 	bl	82004724 <pgt_base_setup>
82004870:	e320f000 	nop	{0}
82004874:	e24bd004 	sub	sp, fp, #4
82004878:	e8bd8800 	pop	{fp, pc}

8200487c <usertask0>:
8200487c:	e92d4800 	push	{fp, lr}
82004880:	e28db004 	add	fp, sp, #4
82004884:	e24dd008 	sub	sp, sp, #8
82004888:	e30906a8 	movw	r0, #38568	; 0x96a8
8200488c:	e3480200 	movt	r0, #33280	; 0x8200
82004890:	eb0005c9 	bl	82005fbc <uprintf>
82004894:	e3a01000 	mov	r1, #0
82004898:	e30408fc 	movw	r0, #18684	; 0x48fc
8200489c:	e3480200 	movt	r0, #33280	; 0x8200
820048a0:	eb00101f 	bl	82008924 <__do_taskCreate>
820048a4:	e3a03000 	mov	r3, #0
820048a8:	e50b3008 	str	r3, [fp, #-8]
820048ac:	e3e03000 	mvn	r3, #0
820048b0:	e50b300c 	str	r3, [fp, #-12]
820048b4:	ea000009 	b	820048e0 <usertask0+0x64>
820048b8:	eb001009 	bl	820088e4 <__gettid>
820048bc:	e50b000c 	str	r0, [fp, #-12]
820048c0:	e51b2008 	ldr	r2, [fp, #-8]
820048c4:	e51b100c 	ldr	r1, [fp, #-12]
820048c8:	e30906c0 	movw	r0, #38592	; 0x96c0
820048cc:	e3480200 	movt	r0, #33280	; 0x8200
820048d0:	eb0005b9 	bl	82005fbc <uprintf>
820048d4:	e51b3008 	ldr	r3, [fp, #-8]
820048d8:	e2833001 	add	r3, r3, #1
820048dc:	e50b3008 	str	r3, [fp, #-8]
820048e0:	e51b3008 	ldr	r3, [fp, #-8]
820048e4:	e3530009 	cmp	r3, #9
820048e8:	dafffff2 	ble	820048b8 <usertask0+0x3c>
820048ec:	eb001002 	bl	820088fc <__exit>
820048f0:	e320f000 	nop	{0}
820048f4:	e24bd004 	sub	sp, fp, #4
820048f8:	e8bd8800 	pop	{fp, pc}

820048fc <usertask1>:
820048fc:	e92d4800 	push	{fp, lr}
82004900:	e28db004 	add	fp, sp, #4
82004904:	e24dd008 	sub	sp, sp, #8
82004908:	e30906d0 	movw	r0, #38608	; 0x96d0
8200490c:	e3480200 	movt	r0, #33280	; 0x8200
82004910:	eb0005a9 	bl	82005fbc <uprintf>
82004914:	e3a01000 	mov	r1, #0
82004918:	e304097c 	movw	r0, #18812	; 0x497c
8200491c:	e3480200 	movt	r0, #33280	; 0x8200
82004920:	eb000fff 	bl	82008924 <__do_taskCreate>
82004924:	e3a03000 	mov	r3, #0
82004928:	e50b3008 	str	r3, [fp, #-8]
8200492c:	e3e03000 	mvn	r3, #0
82004930:	e50b300c 	str	r3, [fp, #-12]
82004934:	ea000009 	b	82004960 <usertask1+0x64>
82004938:	eb000fe9 	bl	820088e4 <__gettid>
8200493c:	e50b000c 	str	r0, [fp, #-12]
82004940:	e51b2008 	ldr	r2, [fp, #-8]
82004944:	e51b100c 	ldr	r1, [fp, #-12]
82004948:	e30906c0 	movw	r0, #38592	; 0x96c0
8200494c:	e3480200 	movt	r0, #33280	; 0x8200
82004950:	eb000599 	bl	82005fbc <uprintf>
82004954:	e51b3008 	ldr	r3, [fp, #-8]
82004958:	e2833001 	add	r3, r3, #1
8200495c:	e50b3008 	str	r3, [fp, #-8]
82004960:	e51b3008 	ldr	r3, [fp, #-8]
82004964:	e3530009 	cmp	r3, #9
82004968:	dafffff2 	ble	82004938 <usertask1+0x3c>
8200496c:	eb000fe2 	bl	820088fc <__exit>
82004970:	e320f000 	nop	{0}
82004974:	e24bd004 	sub	sp, fp, #4
82004978:	e8bd8800 	pop	{fp, pc}

8200497c <usertask2>:
8200497c:	e92d4800 	push	{fp, lr}
82004980:	e28db004 	add	fp, sp, #4
82004984:	e24dd008 	sub	sp, sp, #8
82004988:	e30906e8 	movw	r0, #38632	; 0x96e8
8200498c:	e3480200 	movt	r0, #33280	; 0x8200
82004990:	eb000589 	bl	82005fbc <uprintf>
82004994:	e3a01000 	mov	r1, #0
82004998:	e30409fc 	movw	r0, #18940	; 0x49fc
8200499c:	e3480200 	movt	r0, #33280	; 0x8200
820049a0:	eb000fdf 	bl	82008924 <__do_taskCreate>
820049a4:	e3a03000 	mov	r3, #0
820049a8:	e50b3008 	str	r3, [fp, #-8]
820049ac:	e3e03000 	mvn	r3, #0
820049b0:	e50b300c 	str	r3, [fp, #-12]
820049b4:	ea000009 	b	820049e0 <usertask2+0x64>
820049b8:	eb000fc9 	bl	820088e4 <__gettid>
820049bc:	e50b000c 	str	r0, [fp, #-12]
820049c0:	e51b2008 	ldr	r2, [fp, #-8]
820049c4:	e51b100c 	ldr	r1, [fp, #-12]
820049c8:	e30906c0 	movw	r0, #38592	; 0x96c0
820049cc:	e3480200 	movt	r0, #33280	; 0x8200
820049d0:	eb000579 	bl	82005fbc <uprintf>
820049d4:	e51b3008 	ldr	r3, [fp, #-8]
820049d8:	e2833001 	add	r3, r3, #1
820049dc:	e50b3008 	str	r3, [fp, #-8]
820049e0:	e51b3008 	ldr	r3, [fp, #-8]
820049e4:	e3530009 	cmp	r3, #9
820049e8:	dafffff2 	ble	820049b8 <usertask2+0x3c>
820049ec:	eb000fc2 	bl	820088fc <__exit>
820049f0:	e320f000 	nop	{0}
820049f4:	e24bd004 	sub	sp, fp, #4
820049f8:	e8bd8800 	pop	{fp, pc}

820049fc <usertask3>:
820049fc:	e92d4800 	push	{fp, lr}
82004a00:	e28db004 	add	fp, sp, #4
82004a04:	e24dd008 	sub	sp, sp, #8
82004a08:	e3090700 	movw	r0, #38656	; 0x9700
82004a0c:	e3480200 	movt	r0, #33280	; 0x8200
82004a10:	eb000569 	bl	82005fbc <uprintf>
82004a14:	e3a01000 	mov	r1, #0
82004a18:	e3040a7c 	movw	r0, #19068	; 0x4a7c
82004a1c:	e3480200 	movt	r0, #33280	; 0x8200
82004a20:	eb000fbf 	bl	82008924 <__do_taskCreate>
82004a24:	e3a03000 	mov	r3, #0
82004a28:	e50b3008 	str	r3, [fp, #-8]
82004a2c:	e3e03000 	mvn	r3, #0
82004a30:	e50b300c 	str	r3, [fp, #-12]
82004a34:	ea000009 	b	82004a60 <usertask3+0x64>
82004a38:	eb000fa9 	bl	820088e4 <__gettid>
82004a3c:	e50b000c 	str	r0, [fp, #-12]
82004a40:	e51b2008 	ldr	r2, [fp, #-8]
82004a44:	e51b100c 	ldr	r1, [fp, #-12]
82004a48:	e30906c0 	movw	r0, #38592	; 0x96c0
82004a4c:	e3480200 	movt	r0, #33280	; 0x8200
82004a50:	eb000559 	bl	82005fbc <uprintf>
82004a54:	e51b3008 	ldr	r3, [fp, #-8]
82004a58:	e2833001 	add	r3, r3, #1
82004a5c:	e50b3008 	str	r3, [fp, #-8]
82004a60:	e51b3008 	ldr	r3, [fp, #-8]
82004a64:	e3530009 	cmp	r3, #9
82004a68:	dafffff2 	ble	82004a38 <usertask3+0x3c>
82004a6c:	eb000fa2 	bl	820088fc <__exit>
82004a70:	e320f000 	nop	{0}
82004a74:	e24bd004 	sub	sp, fp, #4
82004a78:	e8bd8800 	pop	{fp, pc}

82004a7c <usertask4>:
82004a7c:	e92d4800 	push	{fp, lr}
82004a80:	e28db004 	add	fp, sp, #4
82004a84:	e24dd008 	sub	sp, sp, #8
82004a88:	e3090718 	movw	r0, #38680	; 0x9718
82004a8c:	e3480200 	movt	r0, #33280	; 0x8200
82004a90:	eb000549 	bl	82005fbc <uprintf>
82004a94:	e3a03000 	mov	r3, #0
82004a98:	e50b3008 	str	r3, [fp, #-8]
82004a9c:	e3e03000 	mvn	r3, #0
82004aa0:	e50b300c 	str	r3, [fp, #-12]
82004aa4:	ea000009 	b	82004ad0 <usertask4+0x54>
82004aa8:	eb000f8d 	bl	820088e4 <__gettid>
82004aac:	e50b000c 	str	r0, [fp, #-12]
82004ab0:	e51b2008 	ldr	r2, [fp, #-8]
82004ab4:	e51b100c 	ldr	r1, [fp, #-12]
82004ab8:	e30906c0 	movw	r0, #38592	; 0x96c0
82004abc:	e3480200 	movt	r0, #33280	; 0x8200
82004ac0:	eb00053d 	bl	82005fbc <uprintf>
82004ac4:	e51b3008 	ldr	r3, [fp, #-8]
82004ac8:	e2833001 	add	r3, r3, #1
82004acc:	e50b3008 	str	r3, [fp, #-8]
82004ad0:	e51b3008 	ldr	r3, [fp, #-8]
82004ad4:	e3530009 	cmp	r3, #9
82004ad8:	dafffff2 	ble	82004aa8 <usertask4+0x2c>
82004adc:	eb000f86 	bl	820088fc <__exit>
82004ae0:	e320f000 	nop	{0}
82004ae4:	e24bd004 	sub	sp, fp, #4
82004ae8:	e8bd8800 	pop	{fp, pc}

82004aec <multitasking_test_main>:
82004aec:	e92d4800 	push	{fp, lr}
82004af0:	e28db004 	add	fp, sp, #4
82004af4:	e3090730 	movw	r0, #38704	; 0x9730
82004af8:	e3480200 	movt	r0, #33280	; 0x8200
82004afc:	eb00052e 	bl	82005fbc <uprintf>
82004b00:	e309075c 	movw	r0, #38748	; 0x975c
82004b04:	e3480200 	movt	r0, #33280	; 0x8200
82004b08:	eb00052b 	bl	82005fbc <uprintf>
82004b0c:	e3a01000 	mov	r1, #0
82004b10:	e304087c 	movw	r0, #18556	; 0x487c
82004b14:	e3480200 	movt	r0, #33280	; 0x8200
82004b18:	eb000f81 	bl	82008924 <__do_taskCreate>
82004b1c:	e3a03000 	mov	r3, #0
82004b20:	e1a00003 	mov	r0, r3
82004b24:	e8bd8800 	pop	{fp, pc}

82004b28 <tty0_test>:
82004b28:	e92d4800 	push	{fp, lr}
82004b2c:	e28db004 	add	fp, sp, #4
82004b30:	e24dd008 	sub	sp, sp, #8
82004b34:	eb000f6a 	bl	820088e4 <__gettid>
82004b38:	e1a03000 	mov	r3, r0
82004b3c:	e1a01003 	mov	r1, r3
82004b40:	e3090778 	movw	r0, #38776	; 0x9778
82004b44:	e3480200 	movt	r0, #33280	; 0x8200
82004b48:	eb00051b 	bl	82005fbc <uprintf>
82004b4c:	e3090794 	movw	r0, #38804	; 0x9794
82004b50:	e3480200 	movt	r0, #33280	; 0x8200
82004b54:	eb000fc2 	bl	82008a64 <__open>
82004b58:	e50b0008 	str	r0, [fp, #-8]
82004b5c:	e51b3008 	ldr	r3, [fp, #-8]
82004b60:	e3530000 	cmp	r3, #0
82004b64:	aa000004 	bge	82004b7c <tty0_test+0x54>
82004b68:	e51b1008 	ldr	r1, [fp, #-8]
82004b6c:	e309079c 	movw	r0, #38812	; 0x979c
82004b70:	e3480200 	movt	r0, #33280	; 0x8200
82004b74:	eb000510 	bl	82005fbc <uprintf>
82004b78:	eafffffe 	b	82004b78 <tty0_test+0x50>
82004b7c:	e51b1008 	ldr	r1, [fp, #-8]
82004b80:	e30907b4 	movw	r0, #38836	; 0x97b4
82004b84:	e3480200 	movt	r0, #33280	; 0x8200
82004b88:	eb00050b 	bl	82005fbc <uprintf>
82004b8c:	e3a02012 	mov	r2, #18
82004b90:	e30917d8 	movw	r1, #38872	; 0x97d8
82004b94:	e3481200 	movt	r1, #33280	; 0x8200
82004b98:	e51b0008 	ldr	r0, [fp, #-8]
82004b9c:	eb000f8a 	bl	820089cc <__write>
82004ba0:	eb000f55 	bl	820088fc <__exit>
82004ba4:	e320f000 	nop	{0}
82004ba8:	e24bd004 	sub	sp, fp, #4
82004bac:	e8bd8800 	pop	{fp, pc}

82004bb0 <tty0_test_main>:
82004bb0:	e92d4800 	push	{fp, lr}
82004bb4:	e28db004 	add	fp, sp, #4
82004bb8:	e30907ec 	movw	r0, #38892	; 0x97ec
82004bbc:	e3480200 	movt	r0, #33280	; 0x8200
82004bc0:	eb0004fd 	bl	82005fbc <uprintf>
82004bc4:	e3090818 	movw	r0, #38936	; 0x9818
82004bc8:	e3480200 	movt	r0, #33280	; 0x8200
82004bcc:	eb0004fa 	bl	82005fbc <uprintf>
82004bd0:	e3a01000 	mov	r1, #0
82004bd4:	e3040b28 	movw	r0, #19240	; 0x4b28
82004bd8:	e3480200 	movt	r0, #33280	; 0x8200
82004bdc:	eb000f50 	bl	82008924 <__do_taskCreate>
82004be0:	e3a03000 	mov	r3, #0
82004be4:	e1a00003 	mov	r0, r3
82004be8:	e8bd8800 	pop	{fp, pc}

82004bec <terminal_printC>:
82004bec:	e92d4800 	push	{fp, lr}
82004bf0:	e28db004 	add	fp, sp, #4
82004bf4:	e24dd008 	sub	sp, sp, #8
82004bf8:	e50b0008 	str	r0, [fp, #-8]
82004bfc:	e51b3008 	ldr	r3, [fp, #-8]
82004c00:	e6ef3073 	uxtb	r3, r3
82004c04:	e1a01003 	mov	r1, r3
82004c08:	e3a00a09 	mov	r0, #36864	; 0x9000
82004c0c:	e34404e0 	movt	r0, #17632	; 0x44e0
82004c10:	eb000e39 	bl	820084fc <uart_putC>
82004c14:	e320f000 	nop	{0}
82004c18:	e24bd004 	sub	sp, fp, #4
82004c1c:	e8bd8800 	pop	{fp, pc}

82004c20 <print_char>:
82004c20:	e92d4800 	push	{fp, lr}
82004c24:	e28db004 	add	fp, sp, #4
82004c28:	e24dd008 	sub	sp, sp, #8
82004c2c:	e50b0008 	str	r0, [fp, #-8]
82004c30:	e51b0008 	ldr	r0, [fp, #-8]
82004c34:	ebffffec 	bl	82004bec <terminal_printC>
82004c38:	e320f000 	nop	{0}
82004c3c:	e24bd004 	sub	sp, fp, #4
82004c40:	e8bd8800 	pop	{fp, pc}

82004c44 <printk>:
82004c44:	e92d000f 	push	{r0, r1, r2, r3}
82004c48:	e92d4800 	push	{fp, lr}
82004c4c:	e28db004 	add	fp, sp, #4
82004c50:	e24dd008 	sub	sp, sp, #8
82004c54:	e28b3008 	add	r3, fp, #8
82004c58:	e50b300c 	str	r3, [fp, #-12]
82004c5c:	e51b100c 	ldr	r1, [fp, #-12]
82004c60:	e59b0004 	ldr	r0, [fp, #4]
82004c64:	eb000006 	bl	82004c84 <kprint>
82004c68:	e50b0008 	str	r0, [fp, #-8]
82004c6c:	e51b3008 	ldr	r3, [fp, #-8]
82004c70:	e1a00003 	mov	r0, r3
82004c74:	e24bd004 	sub	sp, fp, #4
82004c78:	e8bd4800 	pop	{fp, lr}
82004c7c:	e28dd010 	add	sp, sp, #16
82004c80:	e12fff1e 	bx	lr

82004c84 <kprint>:
82004c84:	e92d4810 	push	{r4, fp, lr}
82004c88:	e28db008 	add	fp, sp, #8
82004c8c:	e24dd01c 	sub	sp, sp, #28
82004c90:	e50b0020 	str	r0, [fp, #-32]	; 0xffffffe0
82004c94:	e50b1024 	str	r1, [fp, #-36]	; 0xffffffdc
82004c98:	ea000005 	b	82004cb4 <kprint+0x30>
82004c9c:	e3540000 	cmp	r4, #0
82004ca0:	1a000001 	bne	82004cac <kprint+0x28>
82004ca4:	e3a03000 	mov	r3, #0
82004ca8:	ea000070 	b	82004e70 <kprint+0x1ec>
82004cac:	e1a00004 	mov	r0, r4
82004cb0:	ebffffda 	bl	82004c20 <print_char>
82004cb4:	e51b3020 	ldr	r3, [fp, #-32]	; 0xffffffe0
82004cb8:	e2832001 	add	r2, r3, #1
82004cbc:	e50b2020 	str	r2, [fp, #-32]	; 0xffffffe0
82004cc0:	e5d33000 	ldrb	r3, [r3]
82004cc4:	e1a04003 	mov	r4, r3
82004cc8:	e3540025 	cmp	r4, #37	; 0x25
82004ccc:	1afffff2 	bne	82004c9c <kprint+0x18>
82004cd0:	e3a03020 	mov	r3, #32
82004cd4:	e54b3015 	strb	r3, [fp, #-21]	; 0xffffffeb
82004cd8:	e3e03000 	mvn	r3, #0
82004cdc:	e50b301c 	str	r3, [fp, #-28]	; 0xffffffe4
82004ce0:	e51b3020 	ldr	r3, [fp, #-32]	; 0xffffffe0
82004ce4:	e2832001 	add	r2, r3, #1
82004ce8:	e50b2020 	str	r2, [fp, #-32]	; 0xffffffe0
82004cec:	e5d33000 	ldrb	r3, [r3]
82004cf0:	e1a04003 	mov	r4, r3
82004cf4:	e3540078 	cmp	r4, #120	; 0x78
82004cf8:	caffffed 	bgt	82004cb4 <kprint+0x30>
82004cfc:	e3540063 	cmp	r4, #99	; 0x63
82004d00:	aa000004 	bge	82004d18 <kprint+0x94>
82004d04:	e354002d 	cmp	r4, #45	; 0x2d
82004d08:	0a00001c 	beq	82004d80 <kprint+0xfc>
82004d0c:	e3540030 	cmp	r4, #48	; 0x30
82004d10:	0a00001d 	beq	82004d8c <kprint+0x108>
82004d14:	ea000054 	b	82004e6c <kprint+0x1e8>
82004d18:	e2443063 	sub	r3, r4, #99	; 0x63
82004d1c:	e3530015 	cmp	r3, #21
82004d20:	979ff103 	ldrls	pc, [pc, r3, lsl #2]
82004d24:	eaffffe2 	b	82004cb4 <kprint+0x30>
82004d28:	82004d98 	andhi	r4, r0, #152, 26	; 0x2600
82004d2c:	82004e14 	andhi	r4, r0, #20, 28	; 0x140
82004d30:	82004cb4 	andhi	r4, r0, #180, 24	; 0xb400
82004d34:	82004cb4 	andhi	r4, r0, #180, 24	; 0xb400
82004d38:	82004cb4 	andhi	r4, r0, #180, 24	; 0xb400
82004d3c:	82004cb4 	andhi	r4, r0, #180, 24	; 0xb400
82004d40:	82004cb4 	andhi	r4, r0, #180, 24	; 0xb400
82004d44:	82004cb4 	andhi	r4, r0, #180, 24	; 0xb400
82004d48:	82004cb4 	andhi	r4, r0, #180, 24	; 0xb400
82004d4c:	82004cb4 	andhi	r4, r0, #180, 24	; 0xb400
82004d50:	82004cb4 	andhi	r4, r0, #180, 24	; 0xb400
82004d54:	82004cb4 	andhi	r4, r0, #180, 24	; 0xb400
82004d58:	82004cb4 	andhi	r4, r0, #180, 24	; 0xb400
82004d5c:	82004db4 	andhi	r4, r0, #180, 26	; 0x2d00
82004d60:	82004cb4 	andhi	r4, r0, #180, 24	; 0xb400
82004d64:	82004cb4 	andhi	r4, r0, #180, 24	; 0xb400
82004d68:	82004cb4 	andhi	r4, r0, #180, 24	; 0xb400
82004d6c:	82004cb4 	andhi	r4, r0, #180, 24	; 0xb400
82004d70:	82004e34 	andhi	r4, r0, #52, 28	; 0x340
82004d74:	82004cb4 	andhi	r4, r0, #180, 24	; 0xb400
82004d78:	82004cb4 	andhi	r4, r0, #180, 24	; 0xb400
82004d7c:	82004de4 	andhi	r4, r0, #228, 26	; 0x3900
82004d80:	e3a0302d 	mov	r3, #45	; 0x2d
82004d84:	e54b3015 	strb	r3, [fp, #-21]	; 0xffffffeb
82004d88:	eaffffd4 	b	82004ce0 <kprint+0x5c>
82004d8c:	e3a03030 	mov	r3, #48	; 0x30
82004d90:	e54b3015 	strb	r3, [fp, #-21]	; 0xffffffeb
82004d94:	eaffffd1 	b	82004ce0 <kprint+0x5c>
82004d98:	e51b3024 	ldr	r3, [fp, #-36]	; 0xffffffdc
82004d9c:	e2832004 	add	r2, r3, #4
82004da0:	e50b2024 	str	r2, [fp, #-36]	; 0xffffffdc
82004da4:	e5933000 	ldr	r3, [r3]
82004da8:	e1a00003 	mov	r0, r3
82004dac:	ebffff9b 	bl	82004c20 <print_char>
82004db0:	ea00002d 	b	82004e6c <kprint+0x1e8>
82004db4:	e3a00030 	mov	r0, #48	; 0x30
82004db8:	ebffff98 	bl	82004c20 <print_char>
82004dbc:	e3a00078 	mov	r0, #120	; 0x78
82004dc0:	ebffff96 	bl	82004c20 <print_char>
82004dc4:	e51b3024 	ldr	r3, [fp, #-36]	; 0xffffffdc
82004dc8:	e2832004 	add	r2, r3, #4
82004dcc:	e50b2024 	str	r2, [fp, #-36]	; 0xffffffdc
82004dd0:	e5933000 	ldr	r3, [r3]
82004dd4:	e50b3010 	str	r3, [fp, #-16]
82004dd8:	e3a03010 	mov	r3, #16
82004ddc:	e50b3014 	str	r3, [fp, #-20]	; 0xffffffec
82004de0:	ea00001b 	b	82004e54 <kprint+0x1d0>
82004de4:	e3a00030 	mov	r0, #48	; 0x30
82004de8:	ebffff8c 	bl	82004c20 <print_char>
82004dec:	e3a00078 	mov	r0, #120	; 0x78
82004df0:	ebffff8a 	bl	82004c20 <print_char>
82004df4:	e51b3024 	ldr	r3, [fp, #-36]	; 0xffffffdc
82004df8:	e2832004 	add	r2, r3, #4
82004dfc:	e50b2024 	str	r2, [fp, #-36]	; 0xffffffdc
82004e00:	e5933000 	ldr	r3, [r3]
82004e04:	e50b3010 	str	r3, [fp, #-16]
82004e08:	e3a03010 	mov	r3, #16
82004e0c:	e50b3014 	str	r3, [fp, #-20]	; 0xffffffec
82004e10:	ea00000f 	b	82004e54 <kprint+0x1d0>
82004e14:	e51b3024 	ldr	r3, [fp, #-36]	; 0xffffffdc
82004e18:	e2832004 	add	r2, r3, #4
82004e1c:	e50b2024 	str	r2, [fp, #-36]	; 0xffffffdc
82004e20:	e5933000 	ldr	r3, [r3]
82004e24:	e50b3010 	str	r3, [fp, #-16]
82004e28:	e3a0300a 	mov	r3, #10
82004e2c:	e50b3014 	str	r3, [fp, #-20]	; 0xffffffec
82004e30:	ea000007 	b	82004e54 <kprint+0x1d0>
82004e34:	e51b3024 	ldr	r3, [fp, #-36]	; 0xffffffdc
82004e38:	e2832004 	add	r2, r3, #4
82004e3c:	e50b2024 	str	r2, [fp, #-36]	; 0xffffffdc
82004e40:	e5933000 	ldr	r3, [r3]
82004e44:	e50b3010 	str	r3, [fp, #-16]
82004e48:	e3a0300a 	mov	r3, #10
82004e4c:	e50b3014 	str	r3, [fp, #-20]	; 0xffffffec
82004e50:	e320f000 	nop	{0}
82004e54:	e55b3015 	ldrb	r3, [fp, #-21]	; 0xffffffeb
82004e58:	e51b201c 	ldr	r2, [fp, #-28]	; 0xffffffe4
82004e5c:	e51b1014 	ldr	r1, [fp, #-20]	; 0xffffffec
82004e60:	e51b0010 	ldr	r0, [fp, #-16]
82004e64:	eb000004 	bl	82004e7c <print_va>
82004e68:	e320f000 	nop	{0}
82004e6c:	eaffff90 	b	82004cb4 <kprint+0x30>
82004e70:	e1a00003 	mov	r0, r3
82004e74:	e24bd008 	sub	sp, fp, #8
82004e78:	e8bd8810 	pop	{r4, fp, pc}

82004e7c <print_va>:
82004e7c:	e92d4800 	push	{fp, lr}
82004e80:	e28db004 	add	fp, sp, #4
82004e84:	e24dd010 	sub	sp, sp, #16
82004e88:	e50b0008 	str	r0, [fp, #-8]
82004e8c:	e50b100c 	str	r1, [fp, #-12]
82004e90:	e50b2010 	str	r2, [fp, #-16]
82004e94:	e50b3014 	str	r3, [fp, #-20]	; 0xffffffec
82004e98:	e51b2008 	ldr	r2, [fp, #-8]
82004e9c:	e51b300c 	ldr	r3, [fp, #-12]
82004ea0:	e1520003 	cmp	r2, r3
82004ea4:	3a00000c 	bcc	82004edc <print_va+0x60>
82004ea8:	e51b100c 	ldr	r1, [fp, #-12]
82004eac:	e51b0008 	ldr	r0, [fp, #-8]
82004eb0:	eb000f64 	bl	82008c48 <__udivsi3>
82004eb4:	e1a03000 	mov	r3, r0
82004eb8:	e1a00003 	mov	r0, r3
82004ebc:	e51b3010 	ldr	r3, [fp, #-16]
82004ec0:	e2432001 	sub	r2, r3, #1
82004ec4:	e51b3014 	ldr	r3, [fp, #-20]	; 0xffffffec
82004ec8:	e51b100c 	ldr	r1, [fp, #-12]
82004ecc:	ebffffea 	bl	82004e7c <print_va>
82004ed0:	ea000007 	b	82004ef4 <print_va+0x78>
82004ed4:	e51b0014 	ldr	r0, [fp, #-20]	; 0xffffffec
82004ed8:	ebffff50 	bl	82004c20 <print_char>
82004edc:	e51b3010 	ldr	r3, [fp, #-16]
82004ee0:	e2433001 	sub	r3, r3, #1
82004ee4:	e50b3010 	str	r3, [fp, #-16]
82004ee8:	e51b3010 	ldr	r3, [fp, #-16]
82004eec:	e3530000 	cmp	r3, #0
82004ef0:	cafffff7 	bgt	82004ed4 <print_va+0x58>
82004ef4:	e51b3008 	ldr	r3, [fp, #-8]
82004ef8:	e51b100c 	ldr	r1, [fp, #-12]
82004efc:	e1a00003 	mov	r0, r3
82004f00:	eb000f8d 	bl	82008d3c <__aeabi_uidivmod>
82004f04:	e1a03001 	mov	r3, r1
82004f08:	e1a02003 	mov	r2, r3
82004f0c:	e3093830 	movw	r3, #38960	; 0x9830
82004f10:	e3483200 	movt	r3, #33280	; 0x8200
82004f14:	e7d33002 	ldrb	r3, [r3, r2]
82004f18:	e1a00003 	mov	r0, r3
82004f1c:	ebffff3f 	bl	82004c20 <print_char>
82004f20:	e320f000 	nop	{0}
82004f24:	e24bd004 	sub	sp, fp, #4
82004f28:	e8bd8800 	pop	{fp, pc}

82004f2c <prio_test1>:
82004f2c:	e92d4800 	push	{fp, lr}
82004f30:	e28db004 	add	fp, sp, #4
82004f34:	e24dd010 	sub	sp, sp, #16
82004f38:	e3a01003 	mov	r1, #3
82004f3c:	e3040fb4 	movw	r0, #20404	; 0x4fb4
82004f40:	e3480200 	movt	r0, #33280	; 0x8200
82004f44:	eb000e76 	bl	82008924 <__do_taskCreate>
82004f48:	e3a03001 	mov	r3, #1
82004f4c:	e50b3008 	str	r3, [fp, #-8]
82004f50:	e3e03000 	mvn	r3, #0
82004f54:	e50b300c 	str	r3, [fp, #-12]
82004f58:	e3e03000 	mvn	r3, #0
82004f5c:	e50b3010 	str	r3, [fp, #-16]
82004f60:	ea00000c 	b	82004f98 <prio_test1+0x6c>
82004f64:	eb000e5e 	bl	820088e4 <__gettid>
82004f68:	e50b000c 	str	r0, [fp, #-12]
82004f6c:	eb000e90 	bl	820089b4 <__get_task_priority>
82004f70:	e50b0010 	str	r0, [fp, #-16]
82004f74:	e51b3008 	ldr	r3, [fp, #-8]
82004f78:	e51b2010 	ldr	r2, [fp, #-16]
82004f7c:	e51b100c 	ldr	r1, [fp, #-12]
82004f80:	e3090844 	movw	r0, #38980	; 0x9844
82004f84:	e3480200 	movt	r0, #33280	; 0x8200
82004f88:	eb00040b 	bl	82005fbc <uprintf>
82004f8c:	e51b3008 	ldr	r3, [fp, #-8]
82004f90:	e2833001 	add	r3, r3, #1
82004f94:	e50b3008 	str	r3, [fp, #-8]
82004f98:	e51b3008 	ldr	r3, [fp, #-8]
82004f9c:	e3530004 	cmp	r3, #4
82004fa0:	daffffef 	ble	82004f64 <prio_test1+0x38>
82004fa4:	eb000e54 	bl	820088fc <__exit>
82004fa8:	e320f000 	nop	{0}
82004fac:	e24bd004 	sub	sp, fp, #4
82004fb0:	e8bd8800 	pop	{fp, pc}

82004fb4 <prio_test2>:
82004fb4:	e92d4800 	push	{fp, lr}
82004fb8:	e28db004 	add	fp, sp, #4
82004fbc:	e24dd010 	sub	sp, sp, #16
82004fc0:	e3a03001 	mov	r3, #1
82004fc4:	e50b3008 	str	r3, [fp, #-8]
82004fc8:	e3e03000 	mvn	r3, #0
82004fcc:	e50b300c 	str	r3, [fp, #-12]
82004fd0:	e3e03000 	mvn	r3, #0
82004fd4:	e50b3010 	str	r3, [fp, #-16]
82004fd8:	ea000013 	b	8200502c <prio_test2+0x78>
82004fdc:	eb000e40 	bl	820088e4 <__gettid>
82004fe0:	e50b000c 	str	r0, [fp, #-12]
82004fe4:	eb000e72 	bl	820089b4 <__get_task_priority>
82004fe8:	e50b0010 	str	r0, [fp, #-16]
82004fec:	e51b3008 	ldr	r3, [fp, #-8]
82004ff0:	e51b2010 	ldr	r2, [fp, #-16]
82004ff4:	e51b100c 	ldr	r1, [fp, #-12]
82004ff8:	e3090844 	movw	r0, #38980	; 0x9844
82004ffc:	e3480200 	movt	r0, #33280	; 0x8200
82005000:	eb0003ed 	bl	82005fbc <uprintf>
82005004:	e51b3008 	ldr	r3, [fp, #-8]
82005008:	e3530002 	cmp	r3, #2
8200500c:	1a000003 	bne	82005020 <prio_test2+0x6c>
82005010:	e3a01002 	mov	r1, #2
82005014:	e3050048 	movw	r0, #20552	; 0x5048
82005018:	e3480200 	movt	r0, #33280	; 0x8200
8200501c:	eb000e40 	bl	82008924 <__do_taskCreate>
82005020:	e51b3008 	ldr	r3, [fp, #-8]
82005024:	e2833001 	add	r3, r3, #1
82005028:	e50b3008 	str	r3, [fp, #-8]
8200502c:	e51b3008 	ldr	r3, [fp, #-8]
82005030:	e3530004 	cmp	r3, #4
82005034:	daffffe8 	ble	82004fdc <prio_test2+0x28>
82005038:	eb000e2f 	bl	820088fc <__exit>
8200503c:	e320f000 	nop	{0}
82005040:	e24bd004 	sub	sp, fp, #4
82005044:	e8bd8800 	pop	{fp, pc}

82005048 <prio_test3>:
82005048:	e92d4800 	push	{fp, lr}
8200504c:	e28db004 	add	fp, sp, #4
82005050:	e24dd010 	sub	sp, sp, #16
82005054:	e3a01002 	mov	r1, #2
82005058:	e30500d0 	movw	r0, #20688	; 0x50d0
8200505c:	e3480200 	movt	r0, #33280	; 0x8200
82005060:	eb000e2f 	bl	82008924 <__do_taskCreate>
82005064:	e3a03001 	mov	r3, #1
82005068:	e50b3008 	str	r3, [fp, #-8]
8200506c:	e3e03000 	mvn	r3, #0
82005070:	e50b300c 	str	r3, [fp, #-12]
82005074:	e3e03000 	mvn	r3, #0
82005078:	e50b3010 	str	r3, [fp, #-16]
8200507c:	ea00000c 	b	820050b4 <prio_test3+0x6c>
82005080:	eb000e17 	bl	820088e4 <__gettid>
82005084:	e50b000c 	str	r0, [fp, #-12]
82005088:	eb000e49 	bl	820089b4 <__get_task_priority>
8200508c:	e50b0010 	str	r0, [fp, #-16]
82005090:	e51b3008 	ldr	r3, [fp, #-8]
82005094:	e51b2010 	ldr	r2, [fp, #-16]
82005098:	e51b100c 	ldr	r1, [fp, #-12]
8200509c:	e3090844 	movw	r0, #38980	; 0x9844
820050a0:	e3480200 	movt	r0, #33280	; 0x8200
820050a4:	eb0003c4 	bl	82005fbc <uprintf>
820050a8:	e51b3008 	ldr	r3, [fp, #-8]
820050ac:	e2833001 	add	r3, r3, #1
820050b0:	e50b3008 	str	r3, [fp, #-8]
820050b4:	e51b3008 	ldr	r3, [fp, #-8]
820050b8:	e3530004 	cmp	r3, #4
820050bc:	daffffef 	ble	82005080 <prio_test3+0x38>
820050c0:	eb000e0d 	bl	820088fc <__exit>
820050c4:	e320f000 	nop	{0}
820050c8:	e24bd004 	sub	sp, fp, #4
820050cc:	e8bd8800 	pop	{fp, pc}

820050d0 <prio_test4>:
820050d0:	e92d4800 	push	{fp, lr}
820050d4:	e28db004 	add	fp, sp, #4
820050d8:	e24dd010 	sub	sp, sp, #16
820050dc:	e3a03001 	mov	r3, #1
820050e0:	e50b3008 	str	r3, [fp, #-8]
820050e4:	e3e03000 	mvn	r3, #0
820050e8:	e50b300c 	str	r3, [fp, #-12]
820050ec:	e3e03000 	mvn	r3, #0
820050f0:	e50b3010 	str	r3, [fp, #-16]
820050f4:	ea000013 	b	82005148 <prio_test4+0x78>
820050f8:	eb000df9 	bl	820088e4 <__gettid>
820050fc:	e50b000c 	str	r0, [fp, #-12]
82005100:	eb000e2b 	bl	820089b4 <__get_task_priority>
82005104:	e50b0010 	str	r0, [fp, #-16]
82005108:	e51b3008 	ldr	r3, [fp, #-8]
8200510c:	e51b2010 	ldr	r2, [fp, #-16]
82005110:	e51b100c 	ldr	r1, [fp, #-12]
82005114:	e3090844 	movw	r0, #38980	; 0x9844
82005118:	e3480200 	movt	r0, #33280	; 0x8200
8200511c:	eb0003a6 	bl	82005fbc <uprintf>
82005120:	e51b3008 	ldr	r3, [fp, #-8]
82005124:	e3530001 	cmp	r3, #1
82005128:	1a000003 	bne	8200513c <prio_test4+0x6c>
8200512c:	e3a01001 	mov	r1, #1
82005130:	e3050164 	movw	r0, #20836	; 0x5164
82005134:	e3480200 	movt	r0, #33280	; 0x8200
82005138:	eb000df9 	bl	82008924 <__do_taskCreate>
8200513c:	e51b3008 	ldr	r3, [fp, #-8]
82005140:	e2833001 	add	r3, r3, #1
82005144:	e50b3008 	str	r3, [fp, #-8]
82005148:	e51b3008 	ldr	r3, [fp, #-8]
8200514c:	e3530004 	cmp	r3, #4
82005150:	daffffe8 	ble	820050f8 <prio_test4+0x28>
82005154:	eb000de8 	bl	820088fc <__exit>
82005158:	e320f000 	nop	{0}
8200515c:	e24bd004 	sub	sp, fp, #4
82005160:	e8bd8800 	pop	{fp, pc}

82005164 <prio_test5>:
82005164:	e92d4800 	push	{fp, lr}
82005168:	e28db004 	add	fp, sp, #4
8200516c:	e24dd010 	sub	sp, sp, #16
82005170:	e3a01001 	mov	r1, #1
82005174:	e30501ec 	movw	r0, #20972	; 0x51ec
82005178:	e3480200 	movt	r0, #33280	; 0x8200
8200517c:	eb000de8 	bl	82008924 <__do_taskCreate>
82005180:	e3a03001 	mov	r3, #1
82005184:	e50b3008 	str	r3, [fp, #-8]
82005188:	e3e03000 	mvn	r3, #0
8200518c:	e50b300c 	str	r3, [fp, #-12]
82005190:	e3e03000 	mvn	r3, #0
82005194:	e50b3010 	str	r3, [fp, #-16]
82005198:	ea00000c 	b	820051d0 <prio_test5+0x6c>
8200519c:	eb000dd0 	bl	820088e4 <__gettid>
820051a0:	e50b000c 	str	r0, [fp, #-12]
820051a4:	eb000e02 	bl	820089b4 <__get_task_priority>
820051a8:	e50b0010 	str	r0, [fp, #-16]
820051ac:	e51b3008 	ldr	r3, [fp, #-8]
820051b0:	e51b2010 	ldr	r2, [fp, #-16]
820051b4:	e51b100c 	ldr	r1, [fp, #-12]
820051b8:	e3090844 	movw	r0, #38980	; 0x9844
820051bc:	e3480200 	movt	r0, #33280	; 0x8200
820051c0:	eb00037d 	bl	82005fbc <uprintf>
820051c4:	e51b3008 	ldr	r3, [fp, #-8]
820051c8:	e2833001 	add	r3, r3, #1
820051cc:	e50b3008 	str	r3, [fp, #-8]
820051d0:	e51b3008 	ldr	r3, [fp, #-8]
820051d4:	e3530004 	cmp	r3, #4
820051d8:	daffffef 	ble	8200519c <prio_test5+0x38>
820051dc:	eb000dc6 	bl	820088fc <__exit>
820051e0:	e320f000 	nop	{0}
820051e4:	e24bd004 	sub	sp, fp, #4
820051e8:	e8bd8800 	pop	{fp, pc}

820051ec <prio_test6>:
820051ec:	e92d4800 	push	{fp, lr}
820051f0:	e28db004 	add	fp, sp, #4
820051f4:	e24dd010 	sub	sp, sp, #16
820051f8:	e3a01001 	mov	r1, #1
820051fc:	e3050274 	movw	r0, #21108	; 0x5274
82005200:	e3480200 	movt	r0, #33280	; 0x8200
82005204:	eb000dc6 	bl	82008924 <__do_taskCreate>
82005208:	e3a03001 	mov	r3, #1
8200520c:	e50b3008 	str	r3, [fp, #-8]
82005210:	e3e03000 	mvn	r3, #0
82005214:	e50b300c 	str	r3, [fp, #-12]
82005218:	e3e03000 	mvn	r3, #0
8200521c:	e50b3010 	str	r3, [fp, #-16]
82005220:	ea00000c 	b	82005258 <prio_test6+0x6c>
82005224:	eb000dae 	bl	820088e4 <__gettid>
82005228:	e50b000c 	str	r0, [fp, #-12]
8200522c:	eb000de0 	bl	820089b4 <__get_task_priority>
82005230:	e50b0010 	str	r0, [fp, #-16]
82005234:	e51b3008 	ldr	r3, [fp, #-8]
82005238:	e51b2010 	ldr	r2, [fp, #-16]
8200523c:	e51b100c 	ldr	r1, [fp, #-12]
82005240:	e3090844 	movw	r0, #38980	; 0x9844
82005244:	e3480200 	movt	r0, #33280	; 0x8200
82005248:	eb00035b 	bl	82005fbc <uprintf>
8200524c:	e51b3008 	ldr	r3, [fp, #-8]
82005250:	e2833001 	add	r3, r3, #1
82005254:	e50b3008 	str	r3, [fp, #-8]
82005258:	e51b3008 	ldr	r3, [fp, #-8]
8200525c:	e3530004 	cmp	r3, #4
82005260:	daffffef 	ble	82005224 <prio_test6+0x38>
82005264:	eb000da4 	bl	820088fc <__exit>
82005268:	e320f000 	nop	{0}
8200526c:	e24bd004 	sub	sp, fp, #4
82005270:	e8bd8800 	pop	{fp, pc}

82005274 <prio_test7>:
82005274:	e92d4800 	push	{fp, lr}
82005278:	e28db004 	add	fp, sp, #4
8200527c:	e24dd010 	sub	sp, sp, #16
82005280:	e3a03001 	mov	r3, #1
82005284:	e50b3008 	str	r3, [fp, #-8]
82005288:	e3e03000 	mvn	r3, #0
8200528c:	e50b300c 	str	r3, [fp, #-12]
82005290:	e3e03000 	mvn	r3, #0
82005294:	e50b3010 	str	r3, [fp, #-16]
82005298:	ea000013 	b	820052ec <prio_test7+0x78>
8200529c:	eb000d90 	bl	820088e4 <__gettid>
820052a0:	e50b000c 	str	r0, [fp, #-12]
820052a4:	eb000dc2 	bl	820089b4 <__get_task_priority>
820052a8:	e50b0010 	str	r0, [fp, #-16]
820052ac:	e51b3008 	ldr	r3, [fp, #-8]
820052b0:	e51b2010 	ldr	r2, [fp, #-16]
820052b4:	e51b100c 	ldr	r1, [fp, #-12]
820052b8:	e3090844 	movw	r0, #38980	; 0x9844
820052bc:	e3480200 	movt	r0, #33280	; 0x8200
820052c0:	eb00033d 	bl	82005fbc <uprintf>
820052c4:	e51b3008 	ldr	r3, [fp, #-8]
820052c8:	e3530001 	cmp	r3, #1
820052cc:	1a000003 	bne	820052e0 <prio_test7+0x6c>
820052d0:	e3a01000 	mov	r1, #0
820052d4:	e3050308 	movw	r0, #21256	; 0x5308
820052d8:	e3480200 	movt	r0, #33280	; 0x8200
820052dc:	eb000d90 	bl	82008924 <__do_taskCreate>
820052e0:	e51b3008 	ldr	r3, [fp, #-8]
820052e4:	e2833001 	add	r3, r3, #1
820052e8:	e50b3008 	str	r3, [fp, #-8]
820052ec:	e51b3008 	ldr	r3, [fp, #-8]
820052f0:	e3530004 	cmp	r3, #4
820052f4:	daffffe8 	ble	8200529c <prio_test7+0x28>
820052f8:	eb000d7f 	bl	820088fc <__exit>
820052fc:	e320f000 	nop	{0}
82005300:	e24bd004 	sub	sp, fp, #4
82005304:	e8bd8800 	pop	{fp, pc}

82005308 <prio_test8>:
82005308:	e92d4800 	push	{fp, lr}
8200530c:	e28db004 	add	fp, sp, #4
82005310:	e24dd010 	sub	sp, sp, #16
82005314:	e3a03001 	mov	r3, #1
82005318:	e50b3008 	str	r3, [fp, #-8]
8200531c:	e3e03000 	mvn	r3, #0
82005320:	e50b300c 	str	r3, [fp, #-12]
82005324:	e3e03000 	mvn	r3, #0
82005328:	e50b3010 	str	r3, [fp, #-16]
8200532c:	ea00000c 	b	82005364 <prio_test8+0x5c>
82005330:	eb000d6b 	bl	820088e4 <__gettid>
82005334:	e50b000c 	str	r0, [fp, #-12]
82005338:	eb000d9d 	bl	820089b4 <__get_task_priority>
8200533c:	e50b0010 	str	r0, [fp, #-16]
82005340:	e51b3008 	ldr	r3, [fp, #-8]
82005344:	e51b2010 	ldr	r2, [fp, #-16]
82005348:	e51b100c 	ldr	r1, [fp, #-12]
8200534c:	e3090844 	movw	r0, #38980	; 0x9844
82005350:	e3480200 	movt	r0, #33280	; 0x8200
82005354:	eb000318 	bl	82005fbc <uprintf>
82005358:	e51b3008 	ldr	r3, [fp, #-8]
8200535c:	e2833001 	add	r3, r3, #1
82005360:	e50b3008 	str	r3, [fp, #-8]
82005364:	e51b3008 	ldr	r3, [fp, #-8]
82005368:	e3530004 	cmp	r3, #4
8200536c:	daffffef 	ble	82005330 <prio_test8+0x28>
82005370:	eb000d61 	bl	820088fc <__exit>
82005374:	e320f000 	nop	{0}
82005378:	e24bd004 	sub	sp, fp, #4
8200537c:	e8bd8800 	pop	{fp, pc}

82005380 <priority_test_main>:
82005380:	e92d4800 	push	{fp, lr}
82005384:	e28db004 	add	fp, sp, #4
82005388:	e309085c 	movw	r0, #39004	; 0x985c
8200538c:	e3480200 	movt	r0, #33280	; 0x8200
82005390:	eb000309 	bl	82005fbc <uprintf>
82005394:	e3090888 	movw	r0, #39048	; 0x9888
82005398:	e3480200 	movt	r0, #33280	; 0x8200
8200539c:	eb000306 	bl	82005fbc <uprintf>
820053a0:	e3a01003 	mov	r1, #3
820053a4:	e3040f2c 	movw	r0, #20268	; 0x4f2c
820053a8:	e3480200 	movt	r0, #33280	; 0x8200
820053ac:	eb000d5c 	bl	82008924 <__do_taskCreate>
820053b0:	e3a03000 	mov	r3, #0
820053b4:	e1a00003 	mov	r0, r3
820053b8:	e8bd8800 	pop	{fp, pc}

820053bc <kq_init>:
820053bc:	e92d4800 	push	{fp, lr}
820053c0:	e28db004 	add	fp, sp, #4
820053c4:	e24dd008 	sub	sp, sp, #8
820053c8:	e50b0008 	str	r0, [fp, #-8]
820053cc:	e50b100c 	str	r1, [fp, #-12]
820053d0:	e51b3008 	ldr	r3, [fp, #-8]
820053d4:	e3a02000 	mov	r2, #0
820053d8:	e5832004 	str	r2, [r3, #4]
820053dc:	e51b3008 	ldr	r3, [fp, #-8]
820053e0:	e3a02000 	mov	r2, #0
820053e4:	e5832008 	str	r2, [r3, #8]
820053e8:	e51b3008 	ldr	r3, [fp, #-8]
820053ec:	e3a02000 	mov	r2, #0
820053f0:	e583200c 	str	r2, [r3, #12]
820053f4:	e3a00005 	mov	r0, #5
820053f8:	ebfffb4a 	bl	82004128 <kblk_alloc>
820053fc:	e1a02000 	mov	r2, r0
82005400:	e51b3008 	ldr	r3, [fp, #-8]
82005404:	e5832010 	str	r2, [r3, #16]
82005408:	e51b3008 	ldr	r3, [fp, #-8]
8200540c:	e5933010 	ldr	r3, [r3, #16]
82005410:	e3530000 	cmp	r3, #0
82005414:	1a000001 	bne	82005420 <kq_init+0x64>
82005418:	e3e03000 	mvn	r3, #0
8200541c:	ea000009 	b	82005448 <kq_init+0x8c>
82005420:	e51b3008 	ldr	r3, [fp, #-8]
82005424:	e51b200c 	ldr	r2, [fp, #-12]
82005428:	e5832000 	str	r2, [r3]
8200542c:	e51b3008 	ldr	r3, [fp, #-8]
82005430:	e5933010 	ldr	r3, [r3, #16]
82005434:	e51b200c 	ldr	r2, [fp, #-12]
82005438:	e3a01000 	mov	r1, #0
8200543c:	e1a00003 	mov	r0, r3
82005440:	ebfff5dd 	bl	82002bbc <_memset>
82005444:	e3a03000 	mov	r3, #0
82005448:	e1a00003 	mov	r0, r3
8200544c:	e24bd004 	sub	sp, fp, #4
82005450:	e8bd8800 	pop	{fp, pc}

82005454 <kq_delete>:
82005454:	e92d4800 	push	{fp, lr}
82005458:	e28db004 	add	fp, sp, #4
8200545c:	e24dd008 	sub	sp, sp, #8
82005460:	e50b0008 	str	r0, [fp, #-8]
82005464:	e51b3008 	ldr	r3, [fp, #-8]
82005468:	e5933010 	ldr	r3, [r3, #16]
8200546c:	e1a00003 	mov	r0, r3
82005470:	ebfffae3 	bl	82004004 <kblk_free>
82005474:	e320f000 	nop	{0}
82005478:	e24bd004 	sub	sp, fp, #4
8200547c:	e8bd8800 	pop	{fp, pc}

82005480 <queue_is_empty>:
82005480:	e52db004 	push	{fp}		; (str fp, [sp, #-4]!)
82005484:	e28db000 	add	fp, sp, #0
82005488:	e24dd00c 	sub	sp, sp, #12
8200548c:	e50b0008 	str	r0, [fp, #-8]
82005490:	e51b3008 	ldr	r3, [fp, #-8]
82005494:	e593300c 	ldr	r3, [r3, #12]
82005498:	e3530000 	cmp	r3, #0
8200549c:	1a000001 	bne	820054a8 <queue_is_empty+0x28>
820054a0:	e3a03001 	mov	r3, #1
820054a4:	ea000000 	b	820054ac <queue_is_empty+0x2c>
820054a8:	e3a03000 	mov	r3, #0
820054ac:	e1a00003 	mov	r0, r3
820054b0:	e28bd000 	add	sp, fp, #0
820054b4:	e49db004 	pop	{fp}		; (ldr fp, [sp], #4)
820054b8:	e12fff1e 	bx	lr

820054bc <queue_is_full>:
820054bc:	e52db004 	push	{fp}		; (str fp, [sp, #-4]!)
820054c0:	e28db000 	add	fp, sp, #0
820054c4:	e24dd00c 	sub	sp, sp, #12
820054c8:	e50b0008 	str	r0, [fp, #-8]
820054cc:	e51b3008 	ldr	r3, [fp, #-8]
820054d0:	e593200c 	ldr	r2, [r3, #12]
820054d4:	e51b3008 	ldr	r3, [fp, #-8]
820054d8:	e5933000 	ldr	r3, [r3]
820054dc:	e1520003 	cmp	r2, r3
820054e0:	1a000001 	bne	820054ec <queue_is_full+0x30>
820054e4:	e3a03001 	mov	r3, #1
820054e8:	ea000000 	b	820054f0 <queue_is_full+0x34>
820054ec:	e3a03000 	mov	r3, #0
820054f0:	e1a00003 	mov	r0, r3
820054f4:	e28bd000 	add	sp, fp, #0
820054f8:	e49db004 	pop	{fp}		; (ldr fp, [sp], #4)
820054fc:	e12fff1e 	bx	lr

82005500 <enqueue>:
82005500:	e92d4800 	push	{fp, lr}
82005504:	e28db004 	add	fp, sp, #4
82005508:	e24dd008 	sub	sp, sp, #8
8200550c:	e50b0008 	str	r0, [fp, #-8]
82005510:	e1a03001 	mov	r3, r1
82005514:	e54b3009 	strb	r3, [fp, #-9]
82005518:	e51b0008 	ldr	r0, [fp, #-8]
8200551c:	ebffffe6 	bl	820054bc <queue_is_full>
82005520:	e1a03000 	mov	r3, r0
82005524:	e3530001 	cmp	r3, #1
82005528:	1a000004 	bne	82005540 <enqueue+0x40>
8200552c:	e30908b0 	movw	r0, #39088	; 0x98b0
82005530:	e3480200 	movt	r0, #33280	; 0x8200
82005534:	ebfffdc2 	bl	82004c44 <printk>
82005538:	e3e03000 	mvn	r3, #0
8200553c:	ea000018 	b	820055a4 <enqueue+0xa4>
82005540:	e51b3008 	ldr	r3, [fp, #-8]
82005544:	e5933010 	ldr	r3, [r3, #16]
82005548:	e51b2008 	ldr	r2, [fp, #-8]
8200554c:	e5922008 	ldr	r2, [r2, #8]
82005550:	e0833002 	add	r3, r3, r2
82005554:	e55b2009 	ldrb	r2, [fp, #-9]
82005558:	e5c32000 	strb	r2, [r3]
8200555c:	e51b3008 	ldr	r3, [fp, #-8]
82005560:	e5933008 	ldr	r3, [r3, #8]
82005564:	e2832001 	add	r2, r3, #1
82005568:	e51b3008 	ldr	r3, [fp, #-8]
8200556c:	e5933000 	ldr	r3, [r3]
82005570:	e1a01003 	mov	r1, r3
82005574:	e1a00002 	mov	r0, r2
82005578:	eb000e41 	bl	82008e84 <__aeabi_idivmod>
8200557c:	e1a03001 	mov	r3, r1
82005580:	e1a02003 	mov	r2, r3
82005584:	e51b3008 	ldr	r3, [fp, #-8]
82005588:	e5832008 	str	r2, [r3, #8]
8200558c:	e51b3008 	ldr	r3, [fp, #-8]
82005590:	e593300c 	ldr	r3, [r3, #12]
82005594:	e2832001 	add	r2, r3, #1
82005598:	e51b3008 	ldr	r3, [fp, #-8]
8200559c:	e583200c 	str	r2, [r3, #12]
820055a0:	e3a03000 	mov	r3, #0
820055a4:	e1a00003 	mov	r0, r3
820055a8:	e24bd004 	sub	sp, fp, #4
820055ac:	e8bd8800 	pop	{fp, pc}

820055b0 <dequeue>:
820055b0:	e92d4800 	push	{fp, lr}
820055b4:	e28db004 	add	fp, sp, #4
820055b8:	e24dd010 	sub	sp, sp, #16
820055bc:	e50b0010 	str	r0, [fp, #-16]
820055c0:	e51b0010 	ldr	r0, [fp, #-16]
820055c4:	ebffffad 	bl	82005480 <queue_is_empty>
820055c8:	e1a03000 	mov	r3, r0
820055cc:	e3530001 	cmp	r3, #1
820055d0:	1a000004 	bne	820055e8 <dequeue+0x38>
820055d4:	e30908f4 	movw	r0, #39156	; 0x98f4
820055d8:	e3480200 	movt	r0, #33280	; 0x8200
820055dc:	ebfffd98 	bl	82004c44 <printk>
820055e0:	e3a030ff 	mov	r3, #255	; 0xff
820055e4:	ea00001f 	b	82005668 <dequeue+0xb8>
820055e8:	e51b3010 	ldr	r3, [fp, #-16]
820055ec:	e5933010 	ldr	r3, [r3, #16]
820055f0:	e51b2010 	ldr	r2, [fp, #-16]
820055f4:	e5922004 	ldr	r2, [r2, #4]
820055f8:	e0833002 	add	r3, r3, r2
820055fc:	e5d33000 	ldrb	r3, [r3]
82005600:	e54b3005 	strb	r3, [fp, #-5]
82005604:	e51b3010 	ldr	r3, [fp, #-16]
82005608:	e5933010 	ldr	r3, [r3, #16]
8200560c:	e51b2010 	ldr	r2, [fp, #-16]
82005610:	e5922004 	ldr	r2, [r2, #4]
82005614:	e0833002 	add	r3, r3, r2
82005618:	e3a02000 	mov	r2, #0
8200561c:	e5c32000 	strb	r2, [r3]
82005620:	e51b3010 	ldr	r3, [fp, #-16]
82005624:	e593300c 	ldr	r3, [r3, #12]
82005628:	e2432001 	sub	r2, r3, #1
8200562c:	e51b3010 	ldr	r3, [fp, #-16]
82005630:	e583200c 	str	r2, [r3, #12]
82005634:	e51b3010 	ldr	r3, [fp, #-16]
82005638:	e5933004 	ldr	r3, [r3, #4]
8200563c:	e2832001 	add	r2, r3, #1
82005640:	e51b3010 	ldr	r3, [fp, #-16]
82005644:	e5933000 	ldr	r3, [r3]
82005648:	e1a01003 	mov	r1, r3
8200564c:	e1a00002 	mov	r0, r2
82005650:	eb000e0b 	bl	82008e84 <__aeabi_idivmod>
82005654:	e1a03001 	mov	r3, r1
82005658:	e1a02003 	mov	r2, r3
8200565c:	e51b3010 	ldr	r3, [fp, #-16]
82005660:	e5832004 	str	r2, [r3, #4]
82005664:	e55b3005 	ldrb	r3, [fp, #-5]
82005668:	e1a00003 	mov	r0, r3
8200566c:	e24bd004 	sub	sp, fp, #4
82005670:	e8bd8800 	pop	{fp, pc}

82005674 <dump_queue>:
82005674:	e92d4800 	push	{fp, lr}
82005678:	e28db004 	add	fp, sp, #4
8200567c:	e24dd010 	sub	sp, sp, #16
82005680:	e50b0010 	str	r0, [fp, #-16]
82005684:	e51b3010 	ldr	r3, [fp, #-16]
82005688:	e3530000 	cmp	r3, #0
8200568c:	1a000002 	bne	8200569c <dump_queue+0x28>
82005690:	e309093c 	movw	r0, #39228	; 0x993c
82005694:	e3480200 	movt	r0, #33280	; 0x8200
82005698:	ebfffd69 	bl	82004c44 <printk>
8200569c:	e51b3010 	ldr	r3, [fp, #-16]
820056a0:	e5933004 	ldr	r3, [r3, #4]
820056a4:	e50b3008 	str	r3, [fp, #-8]
820056a8:	e309094c 	movw	r0, #39244	; 0x994c
820056ac:	e3480200 	movt	r0, #33280	; 0x8200
820056b0:	ebfffd63 	bl	82004c44 <printk>
820056b4:	e51b0010 	ldr	r0, [fp, #-16]
820056b8:	ebffff70 	bl	82005480 <queue_is_empty>
820056bc:	e1a03000 	mov	r3, r0
820056c0:	e3530001 	cmp	r3, #1
820056c4:	1a000003 	bne	820056d8 <dump_queue+0x64>
820056c8:	e3090974 	movw	r0, #39284	; 0x9974
820056cc:	e3480200 	movt	r0, #33280	; 0x8200
820056d0:	ebfffd5b 	bl	82004c44 <printk>
820056d4:	ea000020 	b	8200575c <dump_queue+0xe8>
820056d8:	e3090988 	movw	r0, #39304	; 0x9988
820056dc:	e3480200 	movt	r0, #33280	; 0x8200
820056e0:	ebfffd57 	bl	82004c44 <printk>
820056e4:	e3a03000 	mov	r3, #0
820056e8:	e50b300c 	str	r3, [fp, #-12]
820056ec:	ea000015 	b	82005748 <dump_queue+0xd4>
820056f0:	e51b3010 	ldr	r3, [fp, #-16]
820056f4:	e5932010 	ldr	r2, [r3, #16]
820056f8:	e51b3008 	ldr	r3, [fp, #-8]
820056fc:	e0823003 	add	r3, r2, r3
82005700:	e5d33000 	ldrb	r3, [r3]
82005704:	e1a02003 	mov	r2, r3
82005708:	e51b1008 	ldr	r1, [fp, #-8]
8200570c:	e30909a0 	movw	r0, #39328	; 0x99a0
82005710:	e3480200 	movt	r0, #33280	; 0x8200
82005714:	ebfffd4a 	bl	82004c44 <printk>
82005718:	e51b3008 	ldr	r3, [fp, #-8]
8200571c:	e2832001 	add	r2, r3, #1
82005720:	e51b3010 	ldr	r3, [fp, #-16]
82005724:	e5933000 	ldr	r3, [r3]
82005728:	e1a01003 	mov	r1, r3
8200572c:	e1a00002 	mov	r0, r2
82005730:	eb000dd3 	bl	82008e84 <__aeabi_idivmod>
82005734:	e1a03001 	mov	r3, r1
82005738:	e50b3008 	str	r3, [fp, #-8]
8200573c:	e51b300c 	ldr	r3, [fp, #-12]
82005740:	e2833001 	add	r3, r3, #1
82005744:	e50b300c 	str	r3, [fp, #-12]
82005748:	e51b3010 	ldr	r3, [fp, #-16]
8200574c:	e593300c 	ldr	r3, [r3, #12]
82005750:	e51b200c 	ldr	r2, [fp, #-12]
82005754:	e1520003 	cmp	r2, r3
82005758:	baffffe4 	blt	820056f0 <dump_queue+0x7c>
8200575c:	e30909b4 	movw	r0, #39348	; 0x99b4
82005760:	e3480200 	movt	r0, #33280	; 0x8200
82005764:	ebfffd36 	bl	82004c44 <printk>
82005768:	e320f000 	nop	{0}
8200576c:	e24bd004 	sub	sp, fp, #4
82005770:	e8bd8800 	pop	{fp, pc}

82005774 <main_shell>:
82005774:	e92d4800 	push	{fp, lr}
82005778:	e28db004 	add	fp, sp, #4
8200577c:	e24dd080 	sub	sp, sp, #128	; 0x80
82005780:	ebffeb1f 	bl	82000404 <draw_console>
82005784:	e30909dc 	movw	r0, #39388	; 0x99dc
82005788:	e3480200 	movt	r0, #33280	; 0x8200
8200578c:	ebfffd2c 	bl	82004c44 <printk>
82005790:	e30909e4 	movw	r0, #39396	; 0x99e4
82005794:	e3480200 	movt	r0, #33280	; 0x8200
82005798:	eb000207 	bl	82005fbc <uprintf>
8200579c:	e3090a08 	movw	r0, #39432	; 0x9a08
820057a0:	e3480200 	movt	r0, #33280	; 0x8200
820057a4:	eb000204 	bl	82005fbc <uprintf>
820057a8:	eb000c4d 	bl	820088e4 <__gettid>
820057ac:	e1a03000 	mov	r3, r0
820057b0:	e1a01003 	mov	r1, r3
820057b4:	e3090a34 	movw	r0, #39476	; 0x9a34
820057b8:	e3480200 	movt	r0, #33280	; 0x8200
820057bc:	eb0001fe 	bl	82005fbc <uprintf>
820057c0:	eb000c7b 	bl	820089b4 <__get_task_priority>
820057c4:	e1a03000 	mov	r3, r0
820057c8:	e1a01003 	mov	r1, r3
820057cc:	e3090a48 	movw	r0, #39496	; 0x9a48
820057d0:	e3480200 	movt	r0, #33280	; 0x8200
820057d4:	eb0001f8 	bl	82005fbc <uprintf>
820057d8:	e24b3064 	sub	r3, fp, #100	; 0x64
820057dc:	e3a02040 	mov	r2, #64	; 0x40
820057e0:	e3a01000 	mov	r1, #0
820057e4:	e1a00003 	mov	r0, r3
820057e8:	ebfff4f3 	bl	82002bbc <_memset>
820057ec:	e24b3064 	sub	r3, fp, #100	; 0x64
820057f0:	e3a01040 	mov	r1, #64	; 0x40
820057f4:	e1a00003 	mov	r0, r3
820057f8:	eb000ca3 	bl	82008a8c <__getcwd>
820057fc:	e3090a60 	movw	r0, #39520	; 0x9a60
82005800:	e3480200 	movt	r0, #33280	; 0x8200
82005804:	eb0001d8 	bl	82005f6c <put_str>
82005808:	e24b3064 	sub	r3, fp, #100	; 0x64
8200580c:	e1a00003 	mov	r0, r3
82005810:	eb0001d5 	bl	82005f6c <put_str>
82005814:	e3090a70 	movw	r0, #39536	; 0x9a70
82005818:	e3480200 	movt	r0, #33280	; 0x8200
8200581c:	eb0001d2 	bl	82005f6c <put_str>
82005820:	e3090a74 	movw	r0, #39540	; 0x9a74
82005824:	e3480200 	movt	r0, #33280	; 0x8200
82005828:	eb0001cf 	bl	82005f6c <put_str>
8200582c:	e24b3064 	sub	r3, fp, #100	; 0x64
82005830:	e1a00003 	mov	r0, r3
82005834:	eb0001cc 	bl	82005f6c <put_str>
82005838:	e3090a80 	movw	r0, #39552	; 0x9a80
8200583c:	e3480200 	movt	r0, #33280	; 0x8200
82005840:	eb0001c9 	bl	82005f6c <put_str>
82005844:	e3a03000 	mov	r3, #0
82005848:	e54b3015 	strb	r3, [fp, #-21]	; 0xffffffeb
8200584c:	e24b3074 	sub	r3, fp, #116	; 0x74
82005850:	e3a02010 	mov	r2, #16
82005854:	e3a01000 	mov	r1, #0
82005858:	e1a00003 	mov	r0, r3
8200585c:	ebfff4d6 	bl	82002bbc <_memset>
82005860:	e24b3074 	sub	r3, fp, #116	; 0x74
82005864:	e50b3008 	str	r3, [fp, #-8]
82005868:	e51b3008 	ldr	r3, [fp, #-8]
8200586c:	e50b300c 	str	r3, [fp, #-12]
82005870:	e3093a84 	movw	r3, #39556	; 0x9a84
82005874:	e3483200 	movt	r3, #33280	; 0x8200
82005878:	e50b301c 	str	r3, [fp, #-28]	; 0xffffffe4
8200587c:	e3a03000 	mov	r3, #0
82005880:	e50b3020 	str	r3, [fp, #-32]	; 0xffffffe0
82005884:	eb00019b 	bl	82005ef8 <get_c>
82005888:	e1a03000 	mov	r3, r0
8200588c:	e54b3015 	strb	r3, [fp, #-21]	; 0xffffffeb
82005890:	e55b3015 	ldrb	r3, [fp, #-21]	; 0xffffffeb
82005894:	e1a01003 	mov	r1, r3
82005898:	e3090a88 	movw	r0, #39560	; 0x9a88
8200589c:	e3480200 	movt	r0, #33280	; 0x8200
820058a0:	eb0001c5 	bl	82005fbc <uprintf>
820058a4:	e51b0008 	ldr	r0, [fp, #-8]
820058a8:	eb000281 	bl	820062b4 <_strlen>
820058ac:	e1a03000 	mov	r3, r0
820058b0:	e353000e 	cmp	r3, #14
820058b4:	1a000006 	bne	820058d4 <main_shell+0x160>
820058b8:	e24b3074 	sub	r3, fp, #116	; 0x74
820058bc:	e3a02010 	mov	r2, #16
820058c0:	e3a01000 	mov	r1, #0
820058c4:	e1a00003 	mov	r0, r3
820058c8:	ebfff4bb 	bl	82002bbc <_memset>
820058cc:	e51b3008 	ldr	r3, [fp, #-8]
820058d0:	e50b300c 	str	r3, [fp, #-12]
820058d4:	e55b3015 	ldrb	r3, [fp, #-21]	; 0xffffffeb
820058d8:	e3530008 	cmp	r3, #8
820058dc:	0a000008 	beq	82005904 <main_shell+0x190>
820058e0:	e55b3015 	ldrb	r3, [fp, #-21]	; 0xffffffeb
820058e4:	e353000d 	cmp	r3, #13
820058e8:	0a000005 	beq	82005904 <main_shell+0x190>
820058ec:	e51b300c 	ldr	r3, [fp, #-12]
820058f0:	e55b2015 	ldrb	r2, [fp, #-21]	; 0xffffffeb
820058f4:	e5c32000 	strb	r2, [r3]
820058f8:	e51b300c 	ldr	r3, [fp, #-12]
820058fc:	e2833001 	add	r3, r3, #1
82005900:	e50b300c 	str	r3, [fp, #-12]
82005904:	e55b3015 	ldrb	r3, [fp, #-21]	; 0xffffffeb
82005908:	e3530008 	cmp	r3, #8
8200590c:	0a000002 	beq	8200591c <main_shell+0x1a8>
82005910:	e353000d 	cmp	r3, #13
82005914:	0a00000f 	beq	82005958 <main_shell+0x1e4>
82005918:	ea000137 	b	82005dfc <main_shell+0x688>
8200591c:	e3a00020 	mov	r0, #32
82005920:	eb000182 	bl	82005f30 <put_c>
82005924:	e3a00008 	mov	r0, #8
82005928:	eb000180 	bl	82005f30 <put_c>
8200592c:	e24b3074 	sub	r3, fp, #116	; 0x74
82005930:	e51b200c 	ldr	r2, [fp, #-12]
82005934:	e1520003 	cmp	r2, r3
82005938:	0a000002 	beq	82005948 <main_shell+0x1d4>
8200593c:	e51b300c 	ldr	r3, [fp, #-12]
82005940:	e2433001 	sub	r3, r3, #1
82005944:	e50b300c 	str	r3, [fp, #-12]
82005948:	e51b300c 	ldr	r3, [fp, #-12]
8200594c:	e3a02000 	mov	r2, #0
82005950:	e5c32000 	strb	r2, [r3]
82005954:	ea000128 	b	82005dfc <main_shell+0x688>
82005958:	e24b3084 	sub	r3, fp, #132	; 0x84
8200595c:	e3a02010 	mov	r2, #16
82005960:	e3a01000 	mov	r1, #0
82005964:	e1a00003 	mov	r0, r3
82005968:	ebfff493 	bl	82002bbc <_memset>
8200596c:	e51b101c 	ldr	r1, [fp, #-28]	; 0xffffffe4
82005970:	e51b0008 	ldr	r0, [fp, #-8]
82005974:	eb000295 	bl	820063d0 <_strcat>
82005978:	e51b001c 	ldr	r0, [fp, #-28]	; 0xffffffe4
8200597c:	eb00024c 	bl	820062b4 <_strlen>
82005980:	e1a02000 	mov	r2, r0
82005984:	e24b3084 	sub	r3, fp, #132	; 0x84
82005988:	e51b101c 	ldr	r1, [fp, #-28]	; 0xffffffe4
8200598c:	e51b0008 	ldr	r0, [fp, #-8]
82005990:	eb0002f7 	bl	82006574 <strtok_fst>
82005994:	e50b0008 	str	r0, [fp, #-8]
82005998:	e24b3084 	sub	r3, fp, #132	; 0x84
8200599c:	e3091a8c 	movw	r1, #39564	; 0x9a8c
820059a0:	e3481200 	movt	r1, #33280	; 0x8200
820059a4:	e1a00003 	mov	r0, r3
820059a8:	eb000257 	bl	8200630c <_strcmp>
820059ac:	e1a03000 	mov	r3, r0
820059b0:	e3530000 	cmp	r3, #0
820059b4:	1a000059 	bne	82005b20 <main_shell+0x3ac>
820059b8:	e3090a94 	movw	r0, #39572	; 0x9a94
820059bc:	e3480200 	movt	r0, #33280	; 0x8200
820059c0:	eb00017d 	bl	82005fbc <uprintf>
820059c4:	e3090a98 	movw	r0, #39576	; 0x9a98
820059c8:	e3480200 	movt	r0, #33280	; 0x8200
820059cc:	eb00017a 	bl	82005fbc <uprintf>
820059d0:	e3090aa8 	movw	r0, #39592	; 0x9aa8
820059d4:	e3480200 	movt	r0, #33280	; 0x8200
820059d8:	eb000177 	bl	82005fbc <uprintf>
820059dc:	e3090ac8 	movw	r0, #39624	; 0x9ac8
820059e0:	e3480200 	movt	r0, #33280	; 0x8200
820059e4:	eb000174 	bl	82005fbc <uprintf>
820059e8:	e3090ae8 	movw	r0, #39656	; 0x9ae8
820059ec:	e3480200 	movt	r0, #33280	; 0x8200
820059f0:	eb000171 	bl	82005fbc <uprintf>
820059f4:	e3090b18 	movw	r0, #39704	; 0x9b18
820059f8:	e3480200 	movt	r0, #33280	; 0x8200
820059fc:	eb00016e 	bl	82005fbc <uprintf>
82005a00:	e3090b34 	movw	r0, #39732	; 0x9b34
82005a04:	e3480200 	movt	r0, #33280	; 0x8200
82005a08:	eb00016b 	bl	82005fbc <uprintf>
82005a0c:	e3090b4c 	movw	r0, #39756	; 0x9b4c
82005a10:	e3480200 	movt	r0, #33280	; 0x8200
82005a14:	eb000168 	bl	82005fbc <uprintf>
82005a18:	eb000136 	bl	82005ef8 <get_c>
82005a1c:	e1a03000 	mov	r3, r0
82005a20:	e54b3021 	strb	r3, [fp, #-33]	; 0xffffffdf
82005a24:	e55b3021 	ldrb	r3, [fp, #-33]	; 0xffffffdf
82005a28:	e1a01003 	mov	r1, r3
82005a2c:	e3090a88 	movw	r0, #39560	; 0x9a88
82005a30:	e3480200 	movt	r0, #33280	; 0x8200
82005a34:	eb000160 	bl	82005fbc <uprintf>
82005a38:	e55b3021 	ldrb	r3, [fp, #-33]	; 0xffffffdf
82005a3c:	e3530031 	cmp	r3, #49	; 0x31
82005a40:	1a000004 	bne	82005a58 <main_shell+0x2e4>
82005a44:	ebfff031 	bl	82001b10 <fork_test>
82005a48:	e3090b5c 	movw	r0, #39772	; 0x9b5c
82005a4c:	e3480200 	movt	r0, #33280	; 0x8200
82005a50:	eb000159 	bl	82005fbc <uprintf>
82005a54:	ea0000cc 	b	82005d8c <main_shell+0x618>
82005a58:	e55b3021 	ldrb	r3, [fp, #-33]	; 0xffffffdf
82005a5c:	e3530032 	cmp	r3, #50	; 0x32
82005a60:	1a000004 	bne	82005a78 <main_shell+0x304>
82005a64:	ebfffc20 	bl	82004aec <multitasking_test_main>
82005a68:	e3090b5c 	movw	r0, #39772	; 0x9b5c
82005a6c:	e3480200 	movt	r0, #33280	; 0x8200
82005a70:	eb000151 	bl	82005fbc <uprintf>
82005a74:	ea0000c4 	b	82005d8c <main_shell+0x618>
82005a78:	e55b3021 	ldrb	r3, [fp, #-33]	; 0xffffffdf
82005a7c:	e3530033 	cmp	r3, #51	; 0x33
82005a80:	1a000004 	bne	82005a98 <main_shell+0x324>
82005a84:	ebfffe3d 	bl	82005380 <priority_test_main>
82005a88:	e3090b5c 	movw	r0, #39772	; 0x9b5c
82005a8c:	e3480200 	movt	r0, #33280	; 0x8200
82005a90:	eb000149 	bl	82005fbc <uprintf>
82005a94:	ea0000bc 	b	82005d8c <main_shell+0x618>
82005a98:	e55b3021 	ldrb	r3, [fp, #-33]	; 0xffffffdf
82005a9c:	e3530034 	cmp	r3, #52	; 0x34
82005aa0:	1a00000b 	bne	82005ad4 <main_shell+0x360>
82005aa4:	ebfffc41 	bl	82004bb0 <tty0_test_main>
82005aa8:	e3a03000 	mov	r3, #0
82005aac:	e50b3010 	str	r3, [fp, #-16]
82005ab0:	ea000002 	b	82005ac0 <main_shell+0x34c>
82005ab4:	e51b3010 	ldr	r3, [fp, #-16]
82005ab8:	e2833001 	add	r3, r3, #1
82005abc:	e50b3010 	str	r3, [fp, #-16]
82005ac0:	e51b3010 	ldr	r3, [fp, #-16]
82005ac4:	e3042e1f 	movw	r2, #19999	; 0x4e1f
82005ac8:	e1530002 	cmp	r3, r2
82005acc:	dafffff8 	ble	82005ab4 <main_shell+0x340>
82005ad0:	ea0000ad 	b	82005d8c <main_shell+0x618>
82005ad4:	e55b3021 	ldrb	r3, [fp, #-33]	; 0xffffffdf
82005ad8:	e3530035 	cmp	r3, #53	; 0x35
82005adc:	1a00000b 	bne	82005b10 <main_shell+0x39c>
82005ae0:	ebfff37b 	bl	820028d4 <ipc_test_main>
82005ae4:	e3a03000 	mov	r3, #0
82005ae8:	e50b3014 	str	r3, [fp, #-20]	; 0xffffffec
82005aec:	ea000002 	b	82005afc <main_shell+0x388>
82005af0:	e51b3014 	ldr	r3, [fp, #-20]	; 0xffffffec
82005af4:	e2833001 	add	r3, r3, #1
82005af8:	e50b3014 	str	r3, [fp, #-20]	; 0xffffffec
82005afc:	e51b3014 	ldr	r3, [fp, #-20]	; 0xffffffec
82005b00:	e3042e1f 	movw	r2, #19999	; 0x4e1f
82005b04:	e1530002 	cmp	r3, r2
82005b08:	dafffff8 	ble	82005af0 <main_shell+0x37c>
82005b0c:	ea00009e 	b	82005d8c <main_shell+0x618>
82005b10:	e55b3021 	ldrb	r3, [fp, #-33]	; 0xffffffdf
82005b14:	e3530030 	cmp	r3, #48	; 0x30
82005b18:	0a00009a 	beq	82005d88 <main_shell+0x614>
82005b1c:	eaffffbd 	b	82005a18 <main_shell+0x2a4>
82005b20:	e24b3084 	sub	r3, fp, #132	; 0x84
82005b24:	e3091b70 	movw	r1, #39792	; 0x9b70
82005b28:	e3481200 	movt	r1, #33280	; 0x8200
82005b2c:	e1a00003 	mov	r0, r3
82005b30:	eb0001f5 	bl	8200630c <_strcmp>
82005b34:	e1a03000 	mov	r3, r0
82005b38:	e3530000 	cmp	r3, #0
82005b3c:	1a000009 	bne	82005b68 <main_shell+0x3f4>
82005b40:	e3090a94 	movw	r0, #39572	; 0x9a94
82005b44:	e3480200 	movt	r0, #33280	; 0x8200
82005b48:	eb00011b 	bl	82005fbc <uprintf>
82005b4c:	e3090b78 	movw	r0, #39800	; 0x9b78
82005b50:	e3480200 	movt	r0, #33280	; 0x8200
82005b54:	eb000118 	bl	82005fbc <uprintf>
82005b58:	e3090b80 	movw	r0, #39808	; 0x9b80
82005b5c:	e3480200 	movt	r0, #33280	; 0x8200
82005b60:	eb000115 	bl	82005fbc <uprintf>
82005b64:	ea000088 	b	82005d8c <main_shell+0x618>
82005b68:	e24b3084 	sub	r3, fp, #132	; 0x84
82005b6c:	e3091bbc 	movw	r1, #39868	; 0x9bbc
82005b70:	e3481200 	movt	r1, #33280	; 0x8200
82005b74:	e1a00003 	mov	r0, r3
82005b78:	eb0001e3 	bl	8200630c <_strcmp>
82005b7c:	e1a03000 	mov	r3, r0
82005b80:	e3530000 	cmp	r3, #0
82005b84:	1a000018 	bne	82005bec <main_shell+0x478>
82005b88:	e3090a94 	movw	r0, #39572	; 0x9a94
82005b8c:	e3480200 	movt	r0, #33280	; 0x8200
82005b90:	eb000109 	bl	82005fbc <uprintf>
82005b94:	e3090bc4 	movw	r0, #39876	; 0x9bc4
82005b98:	e3480200 	movt	r0, #33280	; 0x8200
82005b9c:	eb000106 	bl	82005fbc <uprintf>
82005ba0:	e3090bf0 	movw	r0, #39920	; 0x9bf0
82005ba4:	e3480200 	movt	r0, #33280	; 0x8200
82005ba8:	eb000103 	bl	82005fbc <uprintf>
82005bac:	e3090bfc 	movw	r0, #39932	; 0x9bfc
82005bb0:	e3480200 	movt	r0, #33280	; 0x8200
82005bb4:	eb000100 	bl	82005fbc <uprintf>
82005bb8:	e3090c2c 	movw	r0, #39980	; 0x9c2c
82005bbc:	e3480200 	movt	r0, #33280	; 0x8200
82005bc0:	eb0000fd 	bl	82005fbc <uprintf>
82005bc4:	e3090c40 	movw	r0, #40000	; 0x9c40
82005bc8:	e3480200 	movt	r0, #33280	; 0x8200
82005bcc:	eb0000fa 	bl	82005fbc <uprintf>
82005bd0:	e3090c60 	movw	r0, #40032	; 0x9c60
82005bd4:	e3480200 	movt	r0, #33280	; 0x8200
82005bd8:	eb0000f7 	bl	82005fbc <uprintf>
82005bdc:	e3090c6c 	movw	r0, #40044	; 0x9c6c
82005be0:	e3480200 	movt	r0, #33280	; 0x8200
82005be4:	eb0000f4 	bl	82005fbc <uprintf>
82005be8:	ea000067 	b	82005d8c <main_shell+0x618>
82005bec:	e24b3084 	sub	r3, fp, #132	; 0x84
82005bf0:	e3091c80 	movw	r1, #40064	; 0x9c80
82005bf4:	e3481200 	movt	r1, #33280	; 0x8200
82005bf8:	e1a00003 	mov	r0, r3
82005bfc:	eb0001c2 	bl	8200630c <_strcmp>
82005c00:	e1a03000 	mov	r3, r0
82005c04:	e3530000 	cmp	r3, #0
82005c08:	1a000004 	bne	82005c20 <main_shell+0x4ac>
82005c0c:	ebffe8fb 	bl	82000000 <lsdir>
82005c10:	e3090a70 	movw	r0, #39536	; 0x9a70
82005c14:	e3480200 	movt	r0, #33280	; 0x8200
82005c18:	eb0000d3 	bl	82005f6c <put_str>
82005c1c:	ea00005a 	b	82005d8c <main_shell+0x618>
82005c20:	e24b3084 	sub	r3, fp, #132	; 0x84
82005c24:	e3091c84 	movw	r1, #40068	; 0x9c84
82005c28:	e3481200 	movt	r1, #33280	; 0x8200
82005c2c:	e1a00003 	mov	r0, r3
82005c30:	eb0001b5 	bl	8200630c <_strcmp>
82005c34:	e1a03000 	mov	r3, r0
82005c38:	e3530000 	cmp	r3, #0
82005c3c:	1a000021 	bne	82005cc8 <main_shell+0x554>
82005c40:	e24b3084 	sub	r3, fp, #132	; 0x84
82005c44:	e3a02010 	mov	r2, #16
82005c48:	e3a01000 	mov	r1, #0
82005c4c:	e1a00003 	mov	r0, r3
82005c50:	ebfff3d9 	bl	82002bbc <_memset>
82005c54:	e51b3008 	ldr	r3, [fp, #-8]
82005c58:	e5d33000 	ldrb	r3, [r3]
82005c5c:	e3530000 	cmp	r3, #0
82005c60:	1a000003 	bne	82005c74 <main_shell+0x500>
82005c64:	e3090c88 	movw	r0, #40072	; 0x9c88
82005c68:	e3480200 	movt	r0, #33280	; 0x8200
82005c6c:	eb0000be 	bl	82005f6c <put_str>
82005c70:	ea000007 	b	82005c94 <main_shell+0x520>
82005c74:	e51b001c 	ldr	r0, [fp, #-28]	; 0xffffffe4
82005c78:	eb00018d 	bl	820062b4 <_strlen>
82005c7c:	e1a02000 	mov	r2, r0
82005c80:	e24b3084 	sub	r3, fp, #132	; 0x84
82005c84:	e51b101c 	ldr	r1, [fp, #-28]	; 0xffffffe4
82005c88:	e51b0008 	ldr	r0, [fp, #-8]
82005c8c:	eb000238 	bl	82006574 <strtok_fst>
82005c90:	e50b0008 	str	r0, [fp, #-8]
82005c94:	e24b3084 	sub	r3, fp, #132	; 0x84
82005c98:	e1a00003 	mov	r0, r3
82005c9c:	ebffe937 	bl	82000180 <cd>
82005ca0:	e1a03000 	mov	r3, r0
82005ca4:	e3530000 	cmp	r3, #0
82005ca8:	aa000002 	bge	82005cb8 <main_shell+0x544>
82005cac:	e3090c98 	movw	r0, #40088	; 0x9c98
82005cb0:	e3480200 	movt	r0, #33280	; 0x8200
82005cb4:	eb0000ac 	bl	82005f6c <put_str>
82005cb8:	e3090a70 	movw	r0, #39536	; 0x9a70
82005cbc:	e3480200 	movt	r0, #33280	; 0x8200
82005cc0:	eb0000a9 	bl	82005f6c <put_str>
82005cc4:	ea000030 	b	82005d8c <main_shell+0x618>
82005cc8:	e24b3084 	sub	r3, fp, #132	; 0x84
82005ccc:	e3091ca8 	movw	r1, #40104	; 0x9ca8
82005cd0:	e3481200 	movt	r1, #33280	; 0x8200
82005cd4:	e1a00003 	mov	r0, r3
82005cd8:	eb00018b 	bl	8200630c <_strcmp>
82005cdc:	e1a03000 	mov	r3, r0
82005ce0:	e3530000 	cmp	r3, #0
82005ce4:	1a000012 	bne	82005d34 <main_shell+0x5c0>
82005ce8:	e24b3064 	sub	r3, fp, #100	; 0x64
82005cec:	e3a02040 	mov	r2, #64	; 0x40
82005cf0:	e3a01000 	mov	r1, #0
82005cf4:	e1a00003 	mov	r0, r3
82005cf8:	ebfff3af 	bl	82002bbc <_memset>
82005cfc:	e24b3064 	sub	r3, fp, #100	; 0x64
82005d00:	e3a01040 	mov	r1, #64	; 0x40
82005d04:	e1a00003 	mov	r0, r3
82005d08:	ebffe926 	bl	820001a8 <pwd>
82005d0c:	e3090a70 	movw	r0, #39536	; 0x9a70
82005d10:	e3480200 	movt	r0, #33280	; 0x8200
82005d14:	eb000094 	bl	82005f6c <put_str>
82005d18:	e24b3064 	sub	r3, fp, #100	; 0x64
82005d1c:	e1a00003 	mov	r0, r3
82005d20:	eb000091 	bl	82005f6c <put_str>
82005d24:	e3090a70 	movw	r0, #39536	; 0x9a70
82005d28:	e3480200 	movt	r0, #33280	; 0x8200
82005d2c:	eb00008e 	bl	82005f6c <put_str>
82005d30:	ea000015 	b	82005d8c <main_shell+0x618>
82005d34:	e24b3084 	sub	r3, fp, #132	; 0x84
82005d38:	e3091cb0 	movw	r1, #40112	; 0x9cb0
82005d3c:	e3481200 	movt	r1, #33280	; 0x8200
82005d40:	e1a00003 	mov	r0, r3
82005d44:	eb000170 	bl	8200630c <_strcmp>
82005d48:	e1a03000 	mov	r3, r0
82005d4c:	e3530000 	cmp	r3, #0
82005d50:	1a00000d 	bne	82005d8c <main_shell+0x618>
82005d54:	e24b3064 	sub	r3, fp, #100	; 0x64
82005d58:	e3a02040 	mov	r2, #64	; 0x40
82005d5c:	e3a01000 	mov	r1, #0
82005d60:	e1a00003 	mov	r0, r3
82005d64:	ebfff394 	bl	82002bbc <_memset>
82005d68:	e3090cb8 	movw	r0, #40120	; 0x9cb8
82005d6c:	e3480200 	movt	r0, #33280	; 0x8200
82005d70:	eb000091 	bl	82005fbc <uprintf>
82005d74:	eb000ba5 	bl	82008c10 <__restart>
82005d78:	e3090a70 	movw	r0, #39536	; 0x9a70
82005d7c:	e3480200 	movt	r0, #33280	; 0x8200
82005d80:	eb000079 	bl	82005f6c <put_str>
82005d84:	ea000000 	b	82005d8c <main_shell+0x618>
82005d88:	e320f000 	nop	{0}
82005d8c:	e24b3074 	sub	r3, fp, #116	; 0x74
82005d90:	e3a02010 	mov	r2, #16
82005d94:	e3a01000 	mov	r1, #0
82005d98:	e1a00003 	mov	r0, r3
82005d9c:	ebfff386 	bl	82002bbc <_memset>
82005da0:	e24b3074 	sub	r3, fp, #116	; 0x74
82005da4:	e50b3008 	str	r3, [fp, #-8]
82005da8:	e51b3008 	ldr	r3, [fp, #-8]
82005dac:	e50b300c 	str	r3, [fp, #-12]
82005db0:	e3090a74 	movw	r0, #39540	; 0x9a74
82005db4:	e3480200 	movt	r0, #33280	; 0x8200
82005db8:	eb00006b 	bl	82005f6c <put_str>
82005dbc:	e24b3064 	sub	r3, fp, #100	; 0x64
82005dc0:	e3a02040 	mov	r2, #64	; 0x40
82005dc4:	e3a01000 	mov	r1, #0
82005dc8:	e1a00003 	mov	r0, r3
82005dcc:	ebfff37a 	bl	82002bbc <_memset>
82005dd0:	e24b3064 	sub	r3, fp, #100	; 0x64
82005dd4:	e3a01040 	mov	r1, #64	; 0x40
82005dd8:	e1a00003 	mov	r0, r3
82005ddc:	ebffe8f1 	bl	820001a8 <pwd>
82005de0:	e24b3064 	sub	r3, fp, #100	; 0x64
82005de4:	e1a00003 	mov	r0, r3
82005de8:	eb00005f 	bl	82005f6c <put_str>
82005dec:	e3090a80 	movw	r0, #39552	; 0x9a80
82005df0:	e3480200 	movt	r0, #33280	; 0x8200
82005df4:	eb00005c 	bl	82005f6c <put_str>
82005df8:	e320f000 	nop	{0}
82005dfc:	eafffea0 	b	82005884 <main_shell+0x110>

82005e00 <WRITE_REG32>:
82005e00:	e5801000 	str	r1, [r0]
82005e04:	e12fff1e 	bx	lr

82005e08 <READ_REG32>:
82005e08:	e5900000 	ldr	r0, [r0]
82005e0c:	e12fff1e 	bx	lr

82005e10 <WR_REG16>:
82005e10:	e1c010b0 	strh	r1, [r0]
82005e14:	e12fff1e 	bx	lr

82005e18 <RD_REG16>:
82005e18:	e1d000b0 	ldrh	r0, [r0]
82005e1c:	e12fff1e 	bx	lr

82005e20 <WR_REG8>:
82005e20:	e5c01000 	strb	r1, [r0]
82005e24:	e12fff1e 	bx	lr

82005e28 <RD_REG8>:
82005e28:	e5d00000 	ldrb	r0, [r0]
82005e2c:	e12fff1e 	bx	lr

82005e30 <READ_CPSR>:
82005e30:	e10f0000 	mrs	r0, CPSR
82005e34:	e12fff1e 	bx	lr

82005e38 <READ_SP>:
82005e38:	e1a0000d 	mov	r0, sp
82005e3c:	e12fff1e 	bx	lr

82005e40 <READ_CP15_c1>:
82005e40:	ee110f10 	mrc	15, 0, r0, cr1, cr0, {0}
82005e44:	e12fff1e 	bx	lr

82005e48 <READ_VECTOR_BASE>:
82005e48:	ee1c0f10 	mrc	15, 0, r0, cr12, cr0, {0}
82005e4c:	e12fff1e 	bx	lr

82005e50 <_start>:
82005e50:	e10f0000 	mrs	r0, CPSR
82005e54:	e3c0001f 	bic	r0, r0, #31
82005e58:	e3800013 	orr	r0, r0, #19
82005e5c:	e129f000 	msr	CPSR_fc, r0
82005e60:	ee1c0f10 	mrc	15, 0, r0, cr12, cr0, {0}
82005e64:	e92d000f 	push	{r0, r1, r2, r3}
82005e68:	ebfff141 	bl	82002374 <set_exception_entry>
82005e6c:	e8bd000f 	pop	{r0, r1, r2, r3}
82005e70:	ee1c0f10 	mrc	15, 0, r0, cr12, cr0, {0}
82005e74:	e2800024 	add	r0, r0, #36	; 0x24
82005e78:	e59f1064 	ldr	r1, [pc, #100]	; 82005ee4 <_start+0x94>
82005e7c:	e5801000 	str	r1, [r0]
82005e80:	ee1c0f10 	mrc	15, 0, r0, cr12, cr0, {0}
82005e84:	e2800028 	add	r0, r0, #40	; 0x28
82005e88:	e59f1058 	ldr	r1, [pc, #88]	; 82005ee8 <_start+0x98>
82005e8c:	e5801000 	str	r1, [r0]
82005e90:	ee1c0f10 	mrc	15, 0, r0, cr12, cr0, {0}
82005e94:	e280002c 	add	r0, r0, #44	; 0x2c
82005e98:	e59f104c 	ldr	r1, [pc, #76]	; 82005eec <_start+0x9c>
82005e9c:	e5801000 	str	r1, [r0]
82005ea0:	ee1c0f10 	mrc	15, 0, r0, cr12, cr0, {0}
82005ea4:	e2800034 	add	r0, r0, #52	; 0x34
82005ea8:	e59f1040 	ldr	r1, [pc, #64]	; 82005ef0 <_start+0xa0>
82005eac:	e5801000 	str	r1, [r0]
82005eb0:	e59fd03c 	ldr	sp, [pc, #60]	; 82005ef4 <_start+0xa4>
82005eb4:	e28d1a01 	add	r1, sp, #4096	; 0x1000
82005eb8:	e10f3000 	mrs	r3, CPSR
82005ebc:	e3a02012 	mov	r2, #18
82005ec0:	e12ff002 	msr	CPSR_fsxc, r2
82005ec4:	e1a0d001 	mov	sp, r1
82005ec8:	e28d1a01 	add	r1, sp, #4096	; 0x1000
82005ecc:	e3a02017 	mov	r2, #23
82005ed0:	e12ff002 	msr	CPSR_fsxc, r2
82005ed4:	e1a0d001 	mov	sp, r1
82005ed8:	e28d1a01 	add	r1, sp, #4096	; 0x1000
82005edc:	e12ff003 	msr	CPSR_fsxc, r3
82005ee0:	ebfff2ba 	bl	820029d0 <kernal_entry>
82005ee4:	82000df8 	andhi	r0, r0, #248, 26	; 0x3e00
82005ee8:	82000e64 	andhi	r0, r0, #100, 28	; 0x640
82005eec:	82000e6c 	andhi	r0, r0, #108, 28	; 0x6c0
82005ef0:	82000d98 	andhi	r0, r0, #152, 26	; 0x2600
82005ef4:	9df3fffc 	ldclls	15, cr15, [r3, #1008]!	; 0x3f0

82005ef8 <get_c>:
82005ef8:	e92d4800 	push	{fp, lr}
82005efc:	e28db004 	add	fp, sp, #4
82005f00:	e24dd008 	sub	sp, sp, #8
82005f04:	e3a03000 	mov	r3, #0
82005f08:	e54b3005 	strb	r3, [fp, #-5]
82005f0c:	e24b3005 	sub	r3, fp, #5
82005f10:	e3a02001 	mov	r2, #1
82005f14:	e1a01003 	mov	r1, r3
82005f18:	e3a00000 	mov	r0, #0
82005f1c:	eb000abd 	bl	82008a18 <__read>
82005f20:	e55b3005 	ldrb	r3, [fp, #-5]
82005f24:	e1a00003 	mov	r0, r3
82005f28:	e24bd004 	sub	sp, fp, #4
82005f2c:	e8bd8800 	pop	{fp, pc}

82005f30 <put_c>:
82005f30:	e92d4800 	push	{fp, lr}
82005f34:	e28db004 	add	fp, sp, #4
82005f38:	e24dd010 	sub	sp, sp, #16
82005f3c:	e1a03000 	mov	r3, r0
82005f40:	e54b300d 	strb	r3, [fp, #-13]
82005f44:	e55b300d 	ldrb	r3, [fp, #-13]
82005f48:	e54b3005 	strb	r3, [fp, #-5]
82005f4c:	e24b3005 	sub	r3, fp, #5
82005f50:	e3a02001 	mov	r2, #1
82005f54:	e1a01003 	mov	r1, r3
82005f58:	e3a00001 	mov	r0, #1
82005f5c:	eb000a9a 	bl	820089cc <__write>
82005f60:	e320f000 	nop	{0}
82005f64:	e24bd004 	sub	sp, fp, #4
82005f68:	e8bd8800 	pop	{fp, pc}

82005f6c <put_str>:
82005f6c:	e92d4800 	push	{fp, lr}
82005f70:	e28db004 	add	fp, sp, #4
82005f74:	e24dd008 	sub	sp, sp, #8
82005f78:	e50b0008 	str	r0, [fp, #-8]
82005f7c:	ea000006 	b	82005f9c <put_str+0x30>
82005f80:	e51b3008 	ldr	r3, [fp, #-8]
82005f84:	e5d33000 	ldrb	r3, [r3]
82005f88:	e1a00003 	mov	r0, r3
82005f8c:	ebffffe7 	bl	82005f30 <put_c>
82005f90:	e51b3008 	ldr	r3, [fp, #-8]
82005f94:	e2833001 	add	r3, r3, #1
82005f98:	e50b3008 	str	r3, [fp, #-8]
82005f9c:	e51b3008 	ldr	r3, [fp, #-8]
82005fa0:	e5d33000 	ldrb	r3, [r3]
82005fa4:	e3530000 	cmp	r3, #0
82005fa8:	1afffff4 	bne	82005f80 <put_str+0x14>
82005fac:	e320f000 	nop	{0}
82005fb0:	e320f000 	nop	{0}
82005fb4:	e24bd004 	sub	sp, fp, #4
82005fb8:	e8bd8800 	pop	{fp, pc}

82005fbc <uprintf>:
82005fbc:	e92d000f 	push	{r0, r1, r2, r3}
82005fc0:	e92d4800 	push	{fp, lr}
82005fc4:	e28db004 	add	fp, sp, #4
82005fc8:	e24dd008 	sub	sp, sp, #8
82005fcc:	e28b3008 	add	r3, fp, #8
82005fd0:	e50b300c 	str	r3, [fp, #-12]
82005fd4:	e51b100c 	ldr	r1, [fp, #-12]
82005fd8:	e59b0004 	ldr	r0, [fp, #4]
82005fdc:	eb000006 	bl	82005ffc <uprint>
82005fe0:	e50b0008 	str	r0, [fp, #-8]
82005fe4:	e51b3008 	ldr	r3, [fp, #-8]
82005fe8:	e1a00003 	mov	r0, r3
82005fec:	e24bd004 	sub	sp, fp, #4
82005ff0:	e8bd4800 	pop	{fp, lr}
82005ff4:	e28dd010 	add	sp, sp, #16
82005ff8:	e12fff1e 	bx	lr

82005ffc <uprint>:
82005ffc:	e92d4810 	push	{r4, fp, lr}
82006000:	e28db008 	add	fp, sp, #8
82006004:	e24dd01c 	sub	sp, sp, #28
82006008:	e50b0020 	str	r0, [fp, #-32]	; 0xffffffe0
8200600c:	e50b1024 	str	r1, [fp, #-36]	; 0xffffffdc
82006010:	ea000006 	b	82006030 <uprint+0x34>
82006014:	e3540000 	cmp	r4, #0
82006018:	1a000001 	bne	82006024 <uprint+0x28>
8200601c:	e3a03000 	mov	r3, #0
82006020:	ea000072 	b	820061f0 <uprint+0x1f4>
82006024:	e6ef3074 	uxtb	r3, r4
82006028:	e1a00003 	mov	r0, r3
8200602c:	ebffffbf 	bl	82005f30 <put_c>
82006030:	e51b3020 	ldr	r3, [fp, #-32]	; 0xffffffe0
82006034:	e2832001 	add	r2, r3, #1
82006038:	e50b2020 	str	r2, [fp, #-32]	; 0xffffffe0
8200603c:	e5d33000 	ldrb	r3, [r3]
82006040:	e1a04003 	mov	r4, r3
82006044:	e3540025 	cmp	r4, #37	; 0x25
82006048:	1afffff1 	bne	82006014 <uprint+0x18>
8200604c:	e3a03020 	mov	r3, #32
82006050:	e54b3015 	strb	r3, [fp, #-21]	; 0xffffffeb
82006054:	e3e03000 	mvn	r3, #0
82006058:	e50b301c 	str	r3, [fp, #-28]	; 0xffffffe4
8200605c:	e51b3020 	ldr	r3, [fp, #-32]	; 0xffffffe0
82006060:	e2832001 	add	r2, r3, #1
82006064:	e50b2020 	str	r2, [fp, #-32]	; 0xffffffe0
82006068:	e5d33000 	ldrb	r3, [r3]
8200606c:	e1a04003 	mov	r4, r3
82006070:	e3540078 	cmp	r4, #120	; 0x78
82006074:	caffffed 	bgt	82006030 <uprint+0x34>
82006078:	e3540063 	cmp	r4, #99	; 0x63
8200607c:	aa000004 	bge	82006094 <uprint+0x98>
82006080:	e354002d 	cmp	r4, #45	; 0x2d
82006084:	0a00001c 	beq	820060fc <uprint+0x100>
82006088:	e3540030 	cmp	r4, #48	; 0x30
8200608c:	0a00001d 	beq	82006108 <uprint+0x10c>
82006090:	ea000055 	b	820061ec <uprint+0x1f0>
82006094:	e2443063 	sub	r3, r4, #99	; 0x63
82006098:	e3530015 	cmp	r3, #21
8200609c:	979ff103 	ldrls	pc, [pc, r3, lsl #2]
820060a0:	eaffffe2 	b	82006030 <uprint+0x34>
820060a4:	82006114 	andhi	r6, r0, #20, 2
820060a8:	82006194 	andhi	r6, r0, #148, 2	; 0x25
820060ac:	82006030 	andhi	r6, r0, #48	; 0x30
820060b0:	82006030 	andhi	r6, r0, #48	; 0x30
820060b4:	82006030 	andhi	r6, r0, #48	; 0x30
820060b8:	82006030 	andhi	r6, r0, #48	; 0x30
820060bc:	82006030 	andhi	r6, r0, #48	; 0x30
820060c0:	82006030 	andhi	r6, r0, #48	; 0x30
820060c4:	82006030 	andhi	r6, r0, #48	; 0x30
820060c8:	82006030 	andhi	r6, r0, #48	; 0x30
820060cc:	82006030 	andhi	r6, r0, #48	; 0x30
820060d0:	82006030 	andhi	r6, r0, #48	; 0x30
820060d4:	82006030 	andhi	r6, r0, #48	; 0x30
820060d8:	82006134 	andhi	r6, r0, #52, 2
820060dc:	82006030 	andhi	r6, r0, #48	; 0x30
820060e0:	82006030 	andhi	r6, r0, #48	; 0x30
820060e4:	82006030 	andhi	r6, r0, #48	; 0x30
820060e8:	82006030 	andhi	r6, r0, #48	; 0x30
820060ec:	820061b4 	andhi	r6, r0, #180, 2	; 0x2d
820060f0:	82006030 	andhi	r6, r0, #48	; 0x30
820060f4:	82006030 	andhi	r6, r0, #48	; 0x30
820060f8:	82006164 	andhi	r6, r0, #100, 2
820060fc:	e3a0302d 	mov	r3, #45	; 0x2d
82006100:	e54b3015 	strb	r3, [fp, #-21]	; 0xffffffeb
82006104:	eaffffd4 	b	8200605c <uprint+0x60>
82006108:	e3a03030 	mov	r3, #48	; 0x30
8200610c:	e54b3015 	strb	r3, [fp, #-21]	; 0xffffffeb
82006110:	eaffffd1 	b	8200605c <uprint+0x60>
82006114:	e51b3024 	ldr	r3, [fp, #-36]	; 0xffffffdc
82006118:	e2832004 	add	r2, r3, #4
8200611c:	e50b2024 	str	r2, [fp, #-36]	; 0xffffffdc
82006120:	e5933000 	ldr	r3, [r3]
82006124:	e6ef3073 	uxtb	r3, r3
82006128:	e1a00003 	mov	r0, r3
8200612c:	ebffff7f 	bl	82005f30 <put_c>
82006130:	ea00002d 	b	820061ec <uprint+0x1f0>
82006134:	e3a00030 	mov	r0, #48	; 0x30
82006138:	ebffff7c 	bl	82005f30 <put_c>
8200613c:	e3a00078 	mov	r0, #120	; 0x78
82006140:	ebffff7a 	bl	82005f30 <put_c>
82006144:	e51b3024 	ldr	r3, [fp, #-36]	; 0xffffffdc
82006148:	e2832004 	add	r2, r3, #4
8200614c:	e50b2024 	str	r2, [fp, #-36]	; 0xffffffdc
82006150:	e5933000 	ldr	r3, [r3]
82006154:	e50b3010 	str	r3, [fp, #-16]
82006158:	e3a03010 	mov	r3, #16
8200615c:	e50b3014 	str	r3, [fp, #-20]	; 0xffffffec
82006160:	ea00001b 	b	820061d4 <uprint+0x1d8>
82006164:	e3a00030 	mov	r0, #48	; 0x30
82006168:	ebffff70 	bl	82005f30 <put_c>
8200616c:	e3a00078 	mov	r0, #120	; 0x78
82006170:	ebffff6e 	bl	82005f30 <put_c>
82006174:	e51b3024 	ldr	r3, [fp, #-36]	; 0xffffffdc
82006178:	e2832004 	add	r2, r3, #4
8200617c:	e50b2024 	str	r2, [fp, #-36]	; 0xffffffdc
82006180:	e5933000 	ldr	r3, [r3]
82006184:	e50b3010 	str	r3, [fp, #-16]
82006188:	e3a03010 	mov	r3, #16
8200618c:	e50b3014 	str	r3, [fp, #-20]	; 0xffffffec
82006190:	ea00000f 	b	820061d4 <uprint+0x1d8>
82006194:	e51b3024 	ldr	r3, [fp, #-36]	; 0xffffffdc
82006198:	e2832004 	add	r2, r3, #4
8200619c:	e50b2024 	str	r2, [fp, #-36]	; 0xffffffdc
820061a0:	e5933000 	ldr	r3, [r3]
820061a4:	e50b3010 	str	r3, [fp, #-16]
820061a8:	e3a0300a 	mov	r3, #10
820061ac:	e50b3014 	str	r3, [fp, #-20]	; 0xffffffec
820061b0:	ea000007 	b	820061d4 <uprint+0x1d8>
820061b4:	e51b3024 	ldr	r3, [fp, #-36]	; 0xffffffdc
820061b8:	e2832004 	add	r2, r3, #4
820061bc:	e50b2024 	str	r2, [fp, #-36]	; 0xffffffdc
820061c0:	e5933000 	ldr	r3, [r3]
820061c4:	e50b3010 	str	r3, [fp, #-16]
820061c8:	e3a0300a 	mov	r3, #10
820061cc:	e50b3014 	str	r3, [fp, #-20]	; 0xffffffec
820061d0:	e320f000 	nop	{0}
820061d4:	e55b3015 	ldrb	r3, [fp, #-21]	; 0xffffffeb
820061d8:	e51b201c 	ldr	r2, [fp, #-28]	; 0xffffffe4
820061dc:	e51b1014 	ldr	r1, [fp, #-20]	; 0xffffffec
820061e0:	e51b0010 	ldr	r0, [fp, #-16]
820061e4:	eb000004 	bl	820061fc <put_va>
820061e8:	e320f000 	nop	{0}
820061ec:	eaffff8f 	b	82006030 <uprint+0x34>
820061f0:	e1a00003 	mov	r0, r3
820061f4:	e24bd008 	sub	sp, fp, #8
820061f8:	e8bd8810 	pop	{r4, fp, pc}

820061fc <put_va>:
820061fc:	e92d4800 	push	{fp, lr}
82006200:	e28db004 	add	fp, sp, #4
82006204:	e24dd010 	sub	sp, sp, #16
82006208:	e50b0008 	str	r0, [fp, #-8]
8200620c:	e50b100c 	str	r1, [fp, #-12]
82006210:	e50b2010 	str	r2, [fp, #-16]
82006214:	e50b3014 	str	r3, [fp, #-20]	; 0xffffffec
82006218:	e51b2008 	ldr	r2, [fp, #-8]
8200621c:	e51b300c 	ldr	r3, [fp, #-12]
82006220:	e1520003 	cmp	r2, r3
82006224:	3a00000e 	bcc	82006264 <put_va+0x68>
82006228:	e51b100c 	ldr	r1, [fp, #-12]
8200622c:	e51b0008 	ldr	r0, [fp, #-8]
82006230:	eb000a84 	bl	82008c48 <__udivsi3>
82006234:	e1a03000 	mov	r3, r0
82006238:	e1a00003 	mov	r0, r3
8200623c:	e51b3010 	ldr	r3, [fp, #-16]
82006240:	e2432001 	sub	r2, r3, #1
82006244:	e51b3014 	ldr	r3, [fp, #-20]	; 0xffffffec
82006248:	e51b100c 	ldr	r1, [fp, #-12]
8200624c:	ebffffea 	bl	820061fc <put_va>
82006250:	ea000009 	b	8200627c <put_va+0x80>
82006254:	e51b3014 	ldr	r3, [fp, #-20]	; 0xffffffec
82006258:	e6ef3073 	uxtb	r3, r3
8200625c:	e1a00003 	mov	r0, r3
82006260:	ebffff32 	bl	82005f30 <put_c>
82006264:	e51b3010 	ldr	r3, [fp, #-16]
82006268:	e2433001 	sub	r3, r3, #1
8200626c:	e50b3010 	str	r3, [fp, #-16]
82006270:	e51b3010 	ldr	r3, [fp, #-16]
82006274:	e3530000 	cmp	r3, #0
82006278:	cafffff5 	bgt	82006254 <put_va+0x58>
8200627c:	e51b3008 	ldr	r3, [fp, #-8]
82006280:	e51b100c 	ldr	r1, [fp, #-12]
82006284:	e1a00003 	mov	r0, r3
82006288:	eb000aab 	bl	82008d3c <__aeabi_uidivmod>
8200628c:	e1a03001 	mov	r3, r1
82006290:	e1a02003 	mov	r2, r3
82006294:	e3093cc8 	movw	r3, #40136	; 0x9cc8
82006298:	e3483200 	movt	r3, #33280	; 0x8200
8200629c:	e7d33002 	ldrb	r3, [r3, r2]
820062a0:	e1a00003 	mov	r0, r3
820062a4:	ebffff21 	bl	82005f30 <put_c>
820062a8:	e320f000 	nop	{0}
820062ac:	e24bd004 	sub	sp, fp, #4
820062b0:	e8bd8800 	pop	{fp, pc}

820062b4 <_strlen>:
820062b4:	e52db004 	push	{fp}		; (str fp, [sp, #-4]!)
820062b8:	e28db000 	add	fp, sp, #0
820062bc:	e24dd014 	sub	sp, sp, #20
820062c0:	e50b0010 	str	r0, [fp, #-16]
820062c4:	e3a03000 	mov	r3, #0
820062c8:	e50b3008 	str	r3, [fp, #-8]
820062cc:	ea000005 	b	820062e8 <_strlen+0x34>
820062d0:	e51b3010 	ldr	r3, [fp, #-16]
820062d4:	e2833001 	add	r3, r3, #1
820062d8:	e50b3010 	str	r3, [fp, #-16]
820062dc:	e51b3008 	ldr	r3, [fp, #-8]
820062e0:	e2833001 	add	r3, r3, #1
820062e4:	e50b3008 	str	r3, [fp, #-8]
820062e8:	e51b3010 	ldr	r3, [fp, #-16]
820062ec:	e5d33000 	ldrb	r3, [r3]
820062f0:	e3530000 	cmp	r3, #0
820062f4:	1afffff5 	bne	820062d0 <_strlen+0x1c>
820062f8:	e51b3008 	ldr	r3, [fp, #-8]
820062fc:	e1a00003 	mov	r0, r3
82006300:	e28bd000 	add	sp, fp, #0
82006304:	e49db004 	pop	{fp}		; (ldr fp, [sp], #4)
82006308:	e12fff1e 	bx	lr

8200630c <_strcmp>:
8200630c:	e52db004 	push	{fp}		; (str fp, [sp, #-4]!)
82006310:	e28db000 	add	fp, sp, #0
82006314:	e24dd00c 	sub	sp, sp, #12
82006318:	e50b0008 	str	r0, [fp, #-8]
8200631c:	e50b100c 	str	r1, [fp, #-12]
82006320:	ea00001f 	b	820063a4 <_strcmp+0x98>
82006324:	e51b3008 	ldr	r3, [fp, #-8]
82006328:	e5d33000 	ldrb	r3, [r3]
8200632c:	e3530000 	cmp	r3, #0
82006330:	1a000003 	bne	82006344 <_strcmp+0x38>
82006334:	e51b300c 	ldr	r3, [fp, #-12]
82006338:	e5d33000 	ldrb	r3, [r3]
8200633c:	e3530000 	cmp	r3, #0
82006340:	1a00001d 	bne	820063bc <_strcmp+0xb0>
82006344:	e51b3008 	ldr	r3, [fp, #-8]
82006348:	e5d33000 	ldrb	r3, [r3]
8200634c:	e3530000 	cmp	r3, #0
82006350:	0a000003 	beq	82006364 <_strcmp+0x58>
82006354:	e51b300c 	ldr	r3, [fp, #-12]
82006358:	e5d33000 	ldrb	r3, [r3]
8200635c:	e3530000 	cmp	r3, #0
82006360:	0a000009 	beq	8200638c <_strcmp+0x80>
82006364:	e51b3008 	ldr	r3, [fp, #-8]
82006368:	e5d33000 	ldrb	r3, [r3]
8200636c:	e3530000 	cmp	r3, #0
82006370:	1a000005 	bne	8200638c <_strcmp+0x80>
82006374:	e51b300c 	ldr	r3, [fp, #-12]
82006378:	e5d33000 	ldrb	r3, [r3]
8200637c:	e3530000 	cmp	r3, #0
82006380:	1a000001 	bne	8200638c <_strcmp+0x80>
82006384:	e3a03000 	mov	r3, #0
82006388:	ea00000c 	b	820063c0 <_strcmp+0xb4>
8200638c:	e51b3008 	ldr	r3, [fp, #-8]
82006390:	e2833001 	add	r3, r3, #1
82006394:	e50b3008 	str	r3, [fp, #-8]
82006398:	e51b300c 	ldr	r3, [fp, #-12]
8200639c:	e2833001 	add	r3, r3, #1
820063a0:	e50b300c 	str	r3, [fp, #-12]
820063a4:	e51b3008 	ldr	r3, [fp, #-8]
820063a8:	e5d32000 	ldrb	r2, [r3]
820063ac:	e51b300c 	ldr	r3, [fp, #-12]
820063b0:	e5d33000 	ldrb	r3, [r3]
820063b4:	e1520003 	cmp	r2, r3
820063b8:	0affffd9 	beq	82006324 <_strcmp+0x18>
820063bc:	e3a03001 	mov	r3, #1
820063c0:	e1a00003 	mov	r0, r3
820063c4:	e28bd000 	add	sp, fp, #0
820063c8:	e49db004 	pop	{fp}		; (ldr fp, [sp], #4)
820063cc:	e12fff1e 	bx	lr

820063d0 <_strcat>:
820063d0:	e52db004 	push	{fp}		; (str fp, [sp, #-4]!)
820063d4:	e28db000 	add	fp, sp, #0
820063d8:	e24dd014 	sub	sp, sp, #20
820063dc:	e50b0010 	str	r0, [fp, #-16]
820063e0:	e50b1014 	str	r1, [fp, #-20]	; 0xffffffec
820063e4:	e51b3010 	ldr	r3, [fp, #-16]
820063e8:	e50b3008 	str	r3, [fp, #-8]
820063ec:	e51b3014 	ldr	r3, [fp, #-20]	; 0xffffffec
820063f0:	e50b300c 	str	r3, [fp, #-12]
820063f4:	ea000002 	b	82006404 <_strcat+0x34>
820063f8:	e51b3008 	ldr	r3, [fp, #-8]
820063fc:	e2833001 	add	r3, r3, #1
82006400:	e50b3008 	str	r3, [fp, #-8]
82006404:	e51b3008 	ldr	r3, [fp, #-8]
82006408:	e5d33000 	ldrb	r3, [r3]
8200640c:	e3530000 	cmp	r3, #0
82006410:	1afffff8 	bne	820063f8 <_strcat+0x28>
82006414:	ea000009 	b	82006440 <_strcat+0x70>
82006418:	e51b300c 	ldr	r3, [fp, #-12]
8200641c:	e5d32000 	ldrb	r2, [r3]
82006420:	e51b3008 	ldr	r3, [fp, #-8]
82006424:	e5c32000 	strb	r2, [r3]
82006428:	e51b3008 	ldr	r3, [fp, #-8]
8200642c:	e2833001 	add	r3, r3, #1
82006430:	e50b3008 	str	r3, [fp, #-8]
82006434:	e51b300c 	ldr	r3, [fp, #-12]
82006438:	e2833001 	add	r3, r3, #1
8200643c:	e50b300c 	str	r3, [fp, #-12]
82006440:	e51b300c 	ldr	r3, [fp, #-12]
82006444:	e5d33000 	ldrb	r3, [r3]
82006448:	e3530000 	cmp	r3, #0
8200644c:	1afffff1 	bne	82006418 <_strcat+0x48>
82006450:	e51b3008 	ldr	r3, [fp, #-8]
82006454:	e3a02000 	mov	r2, #0
82006458:	e5c32000 	strb	r2, [r3]
8200645c:	e3a03000 	mov	r3, #0
82006460:	e1a00003 	mov	r0, r3
82006464:	e28bd000 	add	sp, fp, #0
82006468:	e49db004 	pop	{fp}		; (ldr fp, [sp], #4)
8200646c:	e12fff1e 	bx	lr

82006470 <_strcpy>:
82006470:	e52db004 	push	{fp}		; (str fp, [sp, #-4]!)
82006474:	e28db000 	add	fp, sp, #0
82006478:	e24dd014 	sub	sp, sp, #20
8200647c:	e50b0010 	str	r0, [fp, #-16]
82006480:	e50b1014 	str	r1, [fp, #-20]	; 0xffffffec
82006484:	e51b3014 	ldr	r3, [fp, #-20]	; 0xffffffec
82006488:	e50b3008 	str	r3, [fp, #-8]
8200648c:	e51b3010 	ldr	r3, [fp, #-16]
82006490:	e50b300c 	str	r3, [fp, #-12]
82006494:	ea000009 	b	820064c0 <_strcpy+0x50>
82006498:	e51b3008 	ldr	r3, [fp, #-8]
8200649c:	e5d32000 	ldrb	r2, [r3]
820064a0:	e51b300c 	ldr	r3, [fp, #-12]
820064a4:	e5c32000 	strb	r2, [r3]
820064a8:	e51b300c 	ldr	r3, [fp, #-12]
820064ac:	e2833001 	add	r3, r3, #1
820064b0:	e50b300c 	str	r3, [fp, #-12]
820064b4:	e51b3008 	ldr	r3, [fp, #-8]
820064b8:	e2833001 	add	r3, r3, #1
820064bc:	e50b3008 	str	r3, [fp, #-8]
820064c0:	e51b3008 	ldr	r3, [fp, #-8]
820064c4:	e5d33000 	ldrb	r3, [r3]
820064c8:	e3530000 	cmp	r3, #0
820064cc:	1afffff1 	bne	82006498 <_strcpy+0x28>
820064d0:	e51b300c 	ldr	r3, [fp, #-12]
820064d4:	e3a02000 	mov	r2, #0
820064d8:	e5c32000 	strb	r2, [r3]
820064dc:	e320f000 	nop	{0}
820064e0:	e28bd000 	add	sp, fp, #0
820064e4:	e49db004 	pop	{fp}		; (ldr fp, [sp], #4)
820064e8:	e12fff1e 	bx	lr

820064ec <_strncpy>:
820064ec:	e52db004 	push	{fp}		; (str fp, [sp, #-4]!)
820064f0:	e28db000 	add	fp, sp, #0
820064f4:	e24dd01c 	sub	sp, sp, #28
820064f8:	e50b0010 	str	r0, [fp, #-16]
820064fc:	e50b1014 	str	r1, [fp, #-20]	; 0xffffffec
82006500:	e50b2018 	str	r2, [fp, #-24]	; 0xffffffe8
82006504:	e51b3014 	ldr	r3, [fp, #-20]	; 0xffffffec
82006508:	e50b3008 	str	r3, [fp, #-8]
8200650c:	e51b3010 	ldr	r3, [fp, #-16]
82006510:	e50b300c 	str	r3, [fp, #-12]
82006514:	ea00000c 	b	8200654c <_strncpy+0x60>
82006518:	e51b3008 	ldr	r3, [fp, #-8]
8200651c:	e5d32000 	ldrb	r2, [r3]
82006520:	e51b300c 	ldr	r3, [fp, #-12]
82006524:	e5c32000 	strb	r2, [r3]
82006528:	e51b300c 	ldr	r3, [fp, #-12]
8200652c:	e2833001 	add	r3, r3, #1
82006530:	e50b300c 	str	r3, [fp, #-12]
82006534:	e51b3008 	ldr	r3, [fp, #-8]
82006538:	e2833001 	add	r3, r3, #1
8200653c:	e50b3008 	str	r3, [fp, #-8]
82006540:	e51b3018 	ldr	r3, [fp, #-24]	; 0xffffffe8
82006544:	e2433001 	sub	r3, r3, #1
82006548:	e50b3018 	str	r3, [fp, #-24]	; 0xffffffe8
8200654c:	e51b3018 	ldr	r3, [fp, #-24]	; 0xffffffe8
82006550:	e3530000 	cmp	r3, #0
82006554:	1affffef 	bne	82006518 <_strncpy+0x2c>
82006558:	e51b300c 	ldr	r3, [fp, #-12]
8200655c:	e3a02000 	mov	r2, #0
82006560:	e5c32000 	strb	r2, [r3]
82006564:	e320f000 	nop	{0}
82006568:	e28bd000 	add	sp, fp, #0
8200656c:	e49db004 	pop	{fp}		; (ldr fp, [sp], #4)
82006570:	e12fff1e 	bx	lr

82006574 <strtok_fst>:
82006574:	e92d4810 	push	{r4, fp, lr}
82006578:	e28db008 	add	fp, sp, #8
8200657c:	e24dd024 	sub	sp, sp, #36	; 0x24
82006580:	e50b0020 	str	r0, [fp, #-32]	; 0xffffffe0
82006584:	e50b1024 	str	r1, [fp, #-36]	; 0xffffffdc
82006588:	e50b2028 	str	r2, [fp, #-40]	; 0xffffffd8
8200658c:	e50b302c 	str	r3, [fp, #-44]	; 0xffffffd4
82006590:	e1a0300d 	mov	r3, sp
82006594:	e1a04003 	mov	r4, r3
82006598:	e51b3020 	ldr	r3, [fp, #-32]	; 0xffffffe0
8200659c:	e50b3010 	str	r3, [fp, #-16]
820065a0:	e51b3024 	ldr	r3, [fp, #-36]	; 0xffffffdc
820065a4:	e50b3014 	str	r3, [fp, #-20]	; 0xffffffec
820065a8:	e51b3028 	ldr	r3, [fp, #-40]	; 0xffffffd8
820065ac:	e283c001 	add	ip, r3, #1
820065b0:	e24c3001 	sub	r3, ip, #1
820065b4:	e50b3018 	str	r3, [fp, #-24]	; 0xffffffe8
820065b8:	e1a0300c 	mov	r3, ip
820065bc:	e1a00003 	mov	r0, r3
820065c0:	e3a01000 	mov	r1, #0
820065c4:	e3a02000 	mov	r2, #0
820065c8:	e3a03000 	mov	r3, #0
820065cc:	e1a03181 	lsl	r3, r1, #3
820065d0:	e1833ea0 	orr	r3, r3, r0, lsr #29
820065d4:	e1a02180 	lsl	r2, r0, #3
820065d8:	e1a0300c 	mov	r3, ip
820065dc:	e1a00003 	mov	r0, r3
820065e0:	e3a01000 	mov	r1, #0
820065e4:	e3a02000 	mov	r2, #0
820065e8:	e3a03000 	mov	r3, #0
820065ec:	e1a03181 	lsl	r3, r1, #3
820065f0:	e1833ea0 	orr	r3, r3, r0, lsr #29
820065f4:	e1a02180 	lsl	r2, r0, #3
820065f8:	e1a0300c 	mov	r3, ip
820065fc:	e2833007 	add	r3, r3, #7
82006600:	e1a031a3 	lsr	r3, r3, #3
82006604:	e1a03183 	lsl	r3, r3, #3
82006608:	e04dd003 	sub	sp, sp, r3
8200660c:	e1a0300d 	mov	r3, sp
82006610:	e2833000 	add	r3, r3, #0
82006614:	e50b301c 	str	r3, [fp, #-28]	; 0xffffffe4
82006618:	e51b301c 	ldr	r3, [fp, #-28]	; 0xffffffe4
8200661c:	e1a0200c 	mov	r2, ip
82006620:	e3a01000 	mov	r1, #0
82006624:	e1a00003 	mov	r0, r3
82006628:	ebfff163 	bl	82002bbc <_memset>
8200662c:	e51b301c 	ldr	r3, [fp, #-28]	; 0xffffffe4
82006630:	e51b2028 	ldr	r2, [fp, #-40]	; 0xffffffd8
82006634:	e51b1010 	ldr	r1, [fp, #-16]
82006638:	e1a00003 	mov	r0, r3
8200663c:	ebffffaa 	bl	820064ec <_strncpy>
82006640:	ea00000b 	b	82006674 <strtok_fst+0x100>
82006644:	e51b3010 	ldr	r3, [fp, #-16]
82006648:	e2833001 	add	r3, r3, #1
8200664c:	e50b3010 	str	r3, [fp, #-16]
82006650:	e51b3010 	ldr	r3, [fp, #-16]
82006654:	e5d33000 	ldrb	r3, [r3]
82006658:	e3530000 	cmp	r3, #0
8200665c:	0a00000c 	beq	82006694 <strtok_fst+0x120>
82006660:	e51b301c 	ldr	r3, [fp, #-28]	; 0xffffffe4
82006664:	e51b2028 	ldr	r2, [fp, #-40]	; 0xffffffd8
82006668:	e51b1010 	ldr	r1, [fp, #-16]
8200666c:	e1a00003 	mov	r0, r3
82006670:	ebffff9d 	bl	820064ec <_strncpy>
82006674:	e51b301c 	ldr	r3, [fp, #-28]	; 0xffffffe4
82006678:	e51b1024 	ldr	r1, [fp, #-36]	; 0xffffffdc
8200667c:	e1a00003 	mov	r0, r3
82006680:	ebffff21 	bl	8200630c <_strcmp>
82006684:	e1a03000 	mov	r3, r0
82006688:	e3530000 	cmp	r3, #0
8200668c:	1affffec 	bne	82006644 <strtok_fst+0xd0>
82006690:	ea000000 	b	82006698 <strtok_fst+0x124>
82006694:	e320f000 	nop	{0}
82006698:	e51b2010 	ldr	r2, [fp, #-16]
8200669c:	e51b3020 	ldr	r3, [fp, #-32]	; 0xffffffe0
820066a0:	e0423003 	sub	r3, r2, r3
820066a4:	e1a02003 	mov	r2, r3
820066a8:	e51b1020 	ldr	r1, [fp, #-32]	; 0xffffffe0
820066ac:	e51b002c 	ldr	r0, [fp, #-44]	; 0xffffffd4
820066b0:	ebffff8d 	bl	820064ec <_strncpy>
820066b4:	e51b3010 	ldr	r3, [fp, #-16]
820066b8:	e5d33000 	ldrb	r3, [r3]
820066bc:	e3530000 	cmp	r3, #0
820066c0:	0a000005 	beq	820066dc <strtok_fst+0x168>
820066c4:	e51b3028 	ldr	r3, [fp, #-40]	; 0xffffffd8
820066c8:	e51b2010 	ldr	r2, [fp, #-16]
820066cc:	e0823003 	add	r3, r2, r3
820066d0:	e50b3010 	str	r3, [fp, #-16]
820066d4:	e51b3010 	ldr	r3, [fp, #-16]
820066d8:	ea000000 	b	820066e0 <strtok_fst+0x16c>
820066dc:	e3a03000 	mov	r3, #0
820066e0:	e1a0d004 	mov	sp, r4
820066e4:	e1a00003 	mov	r0, r3
820066e8:	e24bd008 	sub	sp, fp, #8
820066ec:	e8bd8810 	pop	{r4, fp, pc}

820066f0 <syscall_handler>:
820066f0:	e92d4800 	push	{fp, lr}
820066f4:	e28db004 	add	fp, sp, #4
820066f8:	e24dd018 	sub	sp, sp, #24
820066fc:	e50b0010 	str	r0, [fp, #-16]
82006700:	e50b1014 	str	r1, [fp, #-20]	; 0xffffffec
82006704:	e50b2018 	str	r2, [fp, #-24]	; 0xffffffe8
82006708:	e3a03801 	mov	r3, #65536	; 0x10000
8200670c:	e50b3008 	str	r3, [fp, #-8]
82006710:	e3093e74 	movw	r3, #40564	; 0x9e74
82006714:	e3483200 	movt	r3, #33280	; 0x8200
82006718:	e5933000 	ldr	r3, [r3]
8200671c:	e1a02003 	mov	r2, r3
82006720:	e51b3008 	ldr	r3, [fp, #-8]
82006724:	e0823003 	add	r3, r2, r3
82006728:	e2433001 	sub	r3, r3, #1
8200672c:	e50b300c 	str	r3, [fp, #-12]
82006730:	e51b300c 	ldr	r3, [fp, #-12]
82006734:	e51b1008 	ldr	r1, [fp, #-8]
82006738:	e1a00003 	mov	r0, r3
8200673c:	eb00097e 	bl	82008d3c <__aeabi_uidivmod>
82006740:	e1a03001 	mov	r3, r1
82006744:	e1a02003 	mov	r2, r3
82006748:	e51b300c 	ldr	r3, [fp, #-12]
8200674c:	e0433002 	sub	r3, r3, r2
82006750:	e1a00003 	mov	r0, r3
82006754:	ebfff83e 	bl	82004854 <switch_mm>
82006758:	e3093e78 	movw	r3, #40568	; 0x9e78
8200675c:	e3483200 	movt	r3, #33280	; 0x8200
82006760:	e51b2010 	ldr	r2, [fp, #-16]
82006764:	e7933102 	ldr	r3, [r3, r2, lsl #2]
82006768:	e51b1018 	ldr	r1, [fp, #-24]	; 0xffffffe8
8200676c:	e51b0014 	ldr	r0, [fp, #-20]	; 0xffffffec
82006770:	e12fff33 	blx	r3
82006774:	e30a30e8 	movw	r3, #41192	; 0xa0e8
82006778:	e3483200 	movt	r3, #33280	; 0x8200
8200677c:	e5933000 	ldr	r3, [r3]
82006780:	e5933048 	ldr	r3, [r3, #72]	; 0x48
82006784:	e1a00003 	mov	r0, r3
82006788:	ebfff831 	bl	82004854 <switch_mm>
8200678c:	e320f000 	nop	{0}
82006790:	e24bd004 	sub	sp, fp, #4
82006794:	e8bd8800 	pop	{fp, pc}

82006798 <print_hello_handler>:
82006798:	e92d4800 	push	{fp, lr}
8200679c:	e28db004 	add	fp, sp, #4
820067a0:	e24dd010 	sub	sp, sp, #16
820067a4:	e50b0010 	str	r0, [fp, #-16]
820067a8:	e50b1014 	str	r1, [fp, #-20]	; 0xffffffec
820067ac:	e51b3014 	ldr	r3, [fp, #-20]	; 0xffffffec
820067b0:	e50b3008 	str	r3, [fp, #-8]
820067b4:	e51b1008 	ldr	r1, [fp, #-8]
820067b8:	e3090cdc 	movw	r0, #40156	; 0x9cdc
820067bc:	e3480200 	movt	r0, #33280	; 0x8200
820067c0:	ebfff91f 	bl	82004c44 <printk>
820067c4:	e320f000 	nop	{0}
820067c8:	e24bd004 	sub	sp, fp, #4
820067cc:	e8bd8800 	pop	{fp, pc}

820067d0 <yield_handler>:
820067d0:	e92d4800 	push	{fp, lr}
820067d4:	e28db004 	add	fp, sp, #4
820067d8:	e24dd008 	sub	sp, sp, #8
820067dc:	e50b0008 	str	r0, [fp, #-8]
820067e0:	e50b100c 	str	r1, [fp, #-12]
820067e4:	e30a30e8 	movw	r3, #41192	; 0xa0e8
820067e8:	e3483200 	movt	r3, #33280	; 0x8200
820067ec:	e5933000 	ldr	r3, [r3]
820067f0:	e51b2008 	ldr	r2, [fp, #-8]
820067f4:	e583201c 	str	r2, [r3, #28]
820067f8:	e30a30e8 	movw	r3, #41192	; 0xa0e8
820067fc:	e3483200 	movt	r3, #33280	; 0x8200
82006800:	e5933000 	ldr	r3, [r3]
82006804:	e3a02001 	mov	r2, #1
82006808:	e5832018 	str	r2, [r3, #24]
8200680c:	e30a30e8 	movw	r3, #41192	; 0xa0e8
82006810:	e3483200 	movt	r3, #33280	; 0x8200
82006814:	e3a02000 	mov	r2, #0
82006818:	e5832000 	str	r2, [r3]
8200681c:	eb0003f3 	bl	820077f0 <set_sched_context>
82006820:	e3093ec8 	movw	r3, #40648	; 0x9ec8
82006824:	e3483200 	movt	r3, #33280	; 0x8200
82006828:	e5933000 	ldr	r3, [r3]
8200682c:	e1a00003 	mov	r0, r3
82006830:	eb0005ed 	bl	82007fec <call_sched>
82006834:	e320f000 	nop	{0}
82006838:	e24bd004 	sub	sp, fp, #4
8200683c:	e8bd8800 	pop	{fp, pc}

82006840 <get_tid_handler>:
82006840:	e52db004 	push	{fp}		; (str fp, [sp, #-4]!)
82006844:	e28db000 	add	fp, sp, #0
82006848:	e24dd014 	sub	sp, sp, #20
8200684c:	e50b0010 	str	r0, [fp, #-16]
82006850:	e50b1014 	str	r1, [fp, #-20]	; 0xffffffec
82006854:	e51b3010 	ldr	r3, [fp, #-16]
82006858:	e50b3008 	str	r3, [fp, #-8]
8200685c:	e30a30e8 	movw	r3, #41192	; 0xa0e8
82006860:	e3483200 	movt	r3, #33280	; 0x8200
82006864:	e5933000 	ldr	r3, [r3]
82006868:	e5933014 	ldr	r3, [r3, #20]
8200686c:	e1a02003 	mov	r2, r3
82006870:	e51b3008 	ldr	r3, [fp, #-8]
82006874:	e5832000 	str	r2, [r3]
82006878:	e320f000 	nop	{0}
8200687c:	e28bd000 	add	sp, fp, #0
82006880:	e49db004 	pop	{fp}		; (ldr fp, [sp], #4)
82006884:	e12fff1e 	bx	lr

82006888 <exit_handler>:
82006888:	e92d4800 	push	{fp, lr}
8200688c:	e28db004 	add	fp, sp, #4
82006890:	e24dd010 	sub	sp, sp, #16
82006894:	e50b0010 	str	r0, [fp, #-16]
82006898:	e50b1014 	str	r1, [fp, #-20]	; 0xffffffec
8200689c:	e30a30e8 	movw	r3, #41192	; 0xa0e8
820068a0:	e3483200 	movt	r3, #33280	; 0x8200
820068a4:	e5933000 	ldr	r3, [r3]
820068a8:	e5933014 	ldr	r3, [r3, #20]
820068ac:	e1a01003 	mov	r1, r3
820068b0:	e3090d14 	movw	r0, #40212	; 0x9d14
820068b4:	e3480200 	movt	r0, #33280	; 0x8200
820068b8:	ebfff8e1 	bl	82004c44 <printk>
820068bc:	e30a30e8 	movw	r3, #41192	; 0xa0e8
820068c0:	e3483200 	movt	r3, #33280	; 0x8200
820068c4:	e5933000 	ldr	r3, [r3]
820068c8:	e3a02002 	mov	r2, #2
820068cc:	e5832018 	str	r2, [r3, #24]
820068d0:	e30a30e8 	movw	r3, #41192	; 0xa0e8
820068d4:	e3483200 	movt	r3, #33280	; 0x8200
820068d8:	e5933000 	ldr	r3, [r3]
820068dc:	e5933008 	ldr	r3, [r3, #8]
820068e0:	e1a00003 	mov	r0, r3
820068e4:	ebfff3ae 	bl	820037a4 <which_page>
820068e8:	e50b0008 	str	r0, [fp, #-8]
820068ec:	e30a30e8 	movw	r3, #41192	; 0xa0e8
820068f0:	e3483200 	movt	r3, #33280	; 0x8200
820068f4:	e5933000 	ldr	r3, [r3]
820068f8:	e1a00003 	mov	r0, r3
820068fc:	eb000501 	bl	82007d08 <task_pop>
82006900:	e51b0008 	ldr	r0, [fp, #-8]
82006904:	ebfff1e2 	bl	82003094 <page_free>
82006908:	e30a30e8 	movw	r3, #41192	; 0xa0e8
8200690c:	e3483200 	movt	r3, #33280	; 0x8200
82006910:	e5933000 	ldr	r3, [r3]
82006914:	e5933048 	ldr	r3, [r3, #72]	; 0x48
82006918:	e1a00003 	mov	r0, r3
8200691c:	ebfff634 	bl	820041f4 <free_pgt>
82006920:	e320f000 	nop	{0}
82006924:	e24bd004 	sub	sp, fp, #4
82006928:	e8bd8800 	pop	{fp, pc}

8200692c <fork_handler>:
8200692c:	e92d4800 	push	{fp, lr}
82006930:	e28db004 	add	fp, sp, #4
82006934:	e24dd018 	sub	sp, sp, #24
82006938:	e50b0018 	str	r0, [fp, #-24]	; 0xffffffe8
8200693c:	e50b101c 	str	r1, [fp, #-28]	; 0xffffffe4
82006940:	ebfff1b6 	bl	82003020 <page_alloc>
82006944:	e50b0008 	str	r0, [fp, #-8]
82006948:	e51b3008 	ldr	r3, [fp, #-8]
8200694c:	e3a02003 	mov	r2, #3
82006950:	e5832008 	str	r2, [r3, #8]
82006954:	e51b3008 	ldr	r3, [fp, #-8]
82006958:	e5933010 	ldr	r3, [r3, #16]
8200695c:	e3a02a01 	mov	r2, #4096	; 0x1000
82006960:	e3a01000 	mov	r1, #0
82006964:	e1a00003 	mov	r0, r3
82006968:	ebfff093 	bl	82002bbc <_memset>
8200696c:	e51b3008 	ldr	r3, [fp, #-8]
82006970:	e5933010 	ldr	r3, [r3, #16]
82006974:	e50b300c 	str	r3, [fp, #-12]
82006978:	e30a30e8 	movw	r3, #41192	; 0xa0e8
8200697c:	e3483200 	movt	r3, #33280	; 0x8200
82006980:	e5933000 	ldr	r3, [r3]
82006984:	e5933008 	ldr	r3, [r3, #8]
82006988:	e1a00003 	mov	r0, r3
8200698c:	ebfff384 	bl	820037a4 <which_page>
82006990:	e50b0010 	str	r0, [fp, #-16]
82006994:	e51b3008 	ldr	r3, [fp, #-8]
82006998:	e5930010 	ldr	r0, [r3, #16]
8200699c:	e51b3010 	ldr	r3, [fp, #-16]
820069a0:	e5933010 	ldr	r3, [r3, #16]
820069a4:	e3a02a01 	mov	r2, #4096	; 0x1000
820069a8:	e1a01003 	mov	r1, r3
820069ac:	ebfff0cc 	bl	82002ce4 <_memcpy>
820069b0:	e30a30e8 	movw	r3, #41192	; 0xa0e8
820069b4:	e3483200 	movt	r3, #33280	; 0x8200
820069b8:	e5933000 	ldr	r3, [r3]
820069bc:	e3a0204c 	mov	r2, #76	; 0x4c
820069c0:	e1a01003 	mov	r1, r3
820069c4:	e51b000c 	ldr	r0, [fp, #-12]
820069c8:	ebfff0c5 	bl	82002ce4 <_memcpy>
820069cc:	e51b3008 	ldr	r3, [fp, #-8]
820069d0:	e5933014 	ldr	r3, [r3, #20]
820069d4:	e2433eff 	sub	r3, r3, #4080	; 0xff0
820069d8:	e243300c 	sub	r3, r3, #12
820069dc:	e51b200c 	ldr	r2, [fp, #-12]
820069e0:	e5823008 	str	r3, [r2, #8]
820069e4:	e51b3008 	ldr	r3, [fp, #-8]
820069e8:	e5932014 	ldr	r2, [r3, #20]
820069ec:	e51b300c 	ldr	r3, [fp, #-12]
820069f0:	e583200c 	str	r2, [r3, #12]
820069f4:	e51b300c 	ldr	r3, [fp, #-12]
820069f8:	e593200c 	ldr	r2, [r3, #12]
820069fc:	e30a30e8 	movw	r3, #41192	; 0xa0e8
82006a00:	e3483200 	movt	r3, #33280	; 0x8200
82006a04:	e5933000 	ldr	r3, [r3]
82006a08:	e593100c 	ldr	r1, [r3, #12]
82006a0c:	e51b3018 	ldr	r3, [fp, #-24]	; 0xffffffe8
82006a10:	e0413003 	sub	r3, r1, r3
82006a14:	e2633000 	rsb	r3, r3, #0
82006a18:	e0822003 	add	r2, r2, r3
82006a1c:	e51b300c 	ldr	r3, [fp, #-12]
82006a20:	e583201c 	str	r2, [r3, #28]
82006a24:	e51b300c 	ldr	r3, [fp, #-12]
82006a28:	e3a02000 	mov	r2, #0
82006a2c:	e5832000 	str	r2, [r3]
82006a30:	e51b300c 	ldr	r3, [fp, #-12]
82006a34:	e3a02000 	mov	r2, #0
82006a38:	e5832004 	str	r2, [r3, #4]
82006a3c:	e51b300c 	ldr	r3, [fp, #-12]
82006a40:	e3a02001 	mov	r2, #1
82006a44:	e5832018 	str	r2, [r3, #24]
82006a48:	e30a30e8 	movw	r3, #41192	; 0xa0e8
82006a4c:	e3483200 	movt	r3, #33280	; 0x8200
82006a50:	e5933000 	ldr	r3, [r3]
82006a54:	e5932010 	ldr	r2, [r3, #16]
82006a58:	e51b300c 	ldr	r3, [fp, #-12]
82006a5c:	e5832010 	str	r2, [r3, #16]
82006a60:	e30a30e8 	movw	r3, #41192	; 0xa0e8
82006a64:	e3483200 	movt	r3, #33280	; 0x8200
82006a68:	e5933000 	ldr	r3, [r3]
82006a6c:	e5932020 	ldr	r2, [r3, #32]
82006a70:	e51b300c 	ldr	r3, [fp, #-12]
82006a74:	e5832020 	str	r2, [r3, #32]
82006a78:	e3093ecc 	movw	r3, #40652	; 0x9ecc
82006a7c:	e3483200 	movt	r3, #33280	; 0x8200
82006a80:	e5933000 	ldr	r3, [r3]
82006a84:	e2832001 	add	r2, r3, #1
82006a88:	e3093ecc 	movw	r3, #40652	; 0x9ecc
82006a8c:	e3483200 	movt	r3, #33280	; 0x8200
82006a90:	e5832000 	str	r2, [r3]
82006a94:	e3093ecc 	movw	r3, #40652	; 0x9ecc
82006a98:	e3483200 	movt	r3, #33280	; 0x8200
82006a9c:	e5932000 	ldr	r2, [r3]
82006aa0:	e51b300c 	ldr	r3, [fp, #-12]
82006aa4:	e5832014 	str	r2, [r3, #20]
82006aa8:	e51b0008 	ldr	r0, [fp, #-8]
82006aac:	ebfff263 	bl	82003440 <blks_init>
82006ab0:	e51b000c 	ldr	r0, [fp, #-12]
82006ab4:	eb000426 	bl	82007b54 <task_enqueue>
82006ab8:	e51b300c 	ldr	r3, [fp, #-12]
82006abc:	e593301c 	ldr	r3, [r3, #28]
82006ac0:	e3a02000 	mov	r2, #0
82006ac4:	e5832000 	str	r2, [r3]
82006ac8:	e51b3018 	ldr	r3, [fp, #-24]	; 0xffffffe8
82006acc:	e50b3014 	str	r3, [fp, #-20]	; 0xffffffec
82006ad0:	e51b300c 	ldr	r3, [fp, #-12]
82006ad4:	e5933014 	ldr	r3, [r3, #20]
82006ad8:	e1a02003 	mov	r2, r3
82006adc:	e51b3014 	ldr	r3, [fp, #-20]	; 0xffffffec
82006ae0:	e5832000 	str	r2, [r3]
82006ae4:	e51b3008 	ldr	r3, [fp, #-8]
82006ae8:	e5932010 	ldr	r2, [r3, #16]
82006aec:	e51b3008 	ldr	r3, [fp, #-8]
82006af0:	e5933018 	ldr	r3, [r3, #24]
82006af4:	e1a01003 	mov	r1, r3
82006af8:	e1a00002 	mov	r0, r2
82006afc:	ebfff717 	bl	82004760 <task_pgt_setup>
82006b00:	e1a02000 	mov	r2, r0
82006b04:	e51b300c 	ldr	r3, [fp, #-12]
82006b08:	e5832048 	str	r2, [r3, #72]	; 0x48
82006b0c:	e51b3010 	ldr	r3, [fp, #-16]
82006b10:	e5930010 	ldr	r0, [r3, #16]
82006b14:	e51b3010 	ldr	r3, [fp, #-16]
82006b18:	e5931018 	ldr	r1, [r3, #24]
82006b1c:	e51b300c 	ldr	r3, [fp, #-12]
82006b20:	e5933048 	ldr	r3, [r3, #72]	; 0x48
82006b24:	e1a02003 	mov	r2, r3
82006b28:	ebfff738 	bl	82004810 <set_pte>
82006b2c:	e320f000 	nop	{0}
82006b30:	e24bd004 	sub	sp, fp, #4
82006b34:	e8bd8800 	pop	{fp, pc}

82006b38 <do_taskCreate_handler>:
82006b38:	e92d4800 	push	{fp, lr}
82006b3c:	e28db004 	add	fp, sp, #4
82006b40:	e24dd018 	sub	sp, sp, #24
82006b44:	e50b0018 	str	r0, [fp, #-24]	; 0xffffffe8
82006b48:	e50b101c 	str	r1, [fp, #-28]	; 0xffffffe4
82006b4c:	e51b301c 	ldr	r3, [fp, #-28]	; 0xffffffe4
82006b50:	e50b3008 	str	r3, [fp, #-8]
82006b54:	ebfff131 	bl	82003020 <page_alloc>
82006b58:	e50b000c 	str	r0, [fp, #-12]
82006b5c:	e51b300c 	ldr	r3, [fp, #-12]
82006b60:	e3a02003 	mov	r2, #3
82006b64:	e5832008 	str	r2, [r3, #8]
82006b68:	e51b300c 	ldr	r3, [fp, #-12]
82006b6c:	e5933010 	ldr	r3, [r3, #16]
82006b70:	e3a02a01 	mov	r2, #4096	; 0x1000
82006b74:	e3a01000 	mov	r1, #0
82006b78:	e1a00003 	mov	r0, r3
82006b7c:	ebfff00e 	bl	82002bbc <_memset>
82006b80:	e51b300c 	ldr	r3, [fp, #-12]
82006b84:	e5933010 	ldr	r3, [r3, #16]
82006b88:	e50b3010 	str	r3, [fp, #-16]
82006b8c:	e51b3008 	ldr	r3, [fp, #-8]
82006b90:	e5931000 	ldr	r1, [r3]
82006b94:	e51b300c 	ldr	r3, [fp, #-12]
82006b98:	e5933014 	ldr	r3, [r3, #20]
82006b9c:	e2432eff 	sub	r2, r3, #4080	; 0xff0
82006ba0:	e242200c 	sub	r2, r2, #12
82006ba4:	e51b3008 	ldr	r3, [fp, #-8]
82006ba8:	e5933004 	ldr	r3, [r3, #4]
82006bac:	e51b0010 	ldr	r0, [fp, #-16]
82006bb0:	eb00033c 	bl	820078a8 <taskCreate>
82006bb4:	e51b3018 	ldr	r3, [fp, #-24]	; 0xffffffe8
82006bb8:	e50b3014 	str	r3, [fp, #-20]	; 0xffffffec
82006bbc:	e51b3010 	ldr	r3, [fp, #-16]
82006bc0:	e5933014 	ldr	r3, [r3, #20]
82006bc4:	e1a02003 	mov	r2, r3
82006bc8:	e51b3014 	ldr	r3, [fp, #-20]	; 0xffffffec
82006bcc:	e5832000 	str	r2, [r3]
82006bd0:	e51b000c 	ldr	r0, [fp, #-12]
82006bd4:	ebfff219 	bl	82003440 <blks_init>
82006bd8:	e51b0010 	ldr	r0, [fp, #-16]
82006bdc:	eb0003c1 	bl	82007ae8 <open_console_in_out>
82006be0:	e30a30e8 	movw	r3, #41192	; 0xa0e8
82006be4:	e3483200 	movt	r3, #33280	; 0x8200
82006be8:	e5933000 	ldr	r3, [r3]
82006bec:	e5932044 	ldr	r2, [r3, #68]	; 0x44
82006bf0:	e51b3010 	ldr	r3, [fp, #-16]
82006bf4:	e5832044 	str	r2, [r3, #68]	; 0x44
82006bf8:	e51b0010 	ldr	r0, [fp, #-16]
82006bfc:	eb0003d4 	bl	82007b54 <task_enqueue>
82006c00:	e51b300c 	ldr	r3, [fp, #-12]
82006c04:	e5932010 	ldr	r2, [r3, #16]
82006c08:	e51b300c 	ldr	r3, [fp, #-12]
82006c0c:	e5933018 	ldr	r3, [r3, #24]
82006c10:	e1a01003 	mov	r1, r3
82006c14:	e1a00002 	mov	r0, r2
82006c18:	ebfff6d0 	bl	82004760 <task_pgt_setup>
82006c1c:	e1a02000 	mov	r2, r0
82006c20:	e51b3010 	ldr	r3, [fp, #-16]
82006c24:	e5832048 	str	r2, [r3, #72]	; 0x48
82006c28:	e320f000 	nop	{0}
82006c2c:	e24bd004 	sub	sp, fp, #4
82006c30:	e8bd8800 	pop	{fp, pc}

82006c34 <malloc_blk_handler>:
82006c34:	e92d4800 	push	{fp, lr}
82006c38:	e28db004 	add	fp, sp, #4
82006c3c:	e24dd010 	sub	sp, sp, #16
82006c40:	e50b0010 	str	r0, [fp, #-16]
82006c44:	e50b1014 	str	r1, [fp, #-20]	; 0xffffffec
82006c48:	e51b3010 	ldr	r3, [fp, #-16]
82006c4c:	e50b3008 	str	r3, [fp, #-8]
82006c50:	e30a30e8 	movw	r3, #41192	; 0xa0e8
82006c54:	e3483200 	movt	r3, #33280	; 0x8200
82006c58:	e5933000 	ldr	r3, [r3]
82006c5c:	e5933008 	ldr	r3, [r3, #8]
82006c60:	e1a00003 	mov	r0, r3
82006c64:	ebfff2ce 	bl	820037a4 <which_page>
82006c68:	e50b000c 	str	r0, [fp, #-12]
82006c6c:	e51b000c 	ldr	r0, [fp, #-12]
82006c70:	ebfff29c 	bl	820036e8 <blk_alloc>
82006c74:	e1a03000 	mov	r3, r0
82006c78:	e1a02003 	mov	r2, r3
82006c7c:	e51b3008 	ldr	r3, [fp, #-8]
82006c80:	e5832000 	str	r2, [r3]
82006c84:	e320f000 	nop	{0}
82006c88:	e24bd004 	sub	sp, fp, #4
82006c8c:	e8bd8800 	pop	{fp, pc}

82006c90 <malloc_mfree_blk_handler>:
82006c90:	e92d4800 	push	{fp, lr}
82006c94:	e28db004 	add	fp, sp, #4
82006c98:	e24dd008 	sub	sp, sp, #8
82006c9c:	e50b0008 	str	r0, [fp, #-8]
82006ca0:	e50b100c 	str	r1, [fp, #-12]
82006ca4:	e51b000c 	ldr	r0, [fp, #-12]
82006ca8:	ebfff33f 	bl	820039ac <free_blk>
82006cac:	e320f000 	nop	{0}
82006cb0:	e24bd004 	sub	sp, fp, #4
82006cb4:	e8bd8800 	pop	{fp, pc}

82006cb8 <get_mblk_list_handler>:
82006cb8:	e92d4800 	push	{fp, lr}
82006cbc:	e28db004 	add	fp, sp, #4
82006cc0:	e24dd010 	sub	sp, sp, #16
82006cc4:	e50b0010 	str	r0, [fp, #-16]
82006cc8:	e50b1014 	str	r1, [fp, #-20]	; 0xffffffec
82006ccc:	e30a30e8 	movw	r3, #41192	; 0xa0e8
82006cd0:	e3483200 	movt	r3, #33280	; 0x8200
82006cd4:	e5933000 	ldr	r3, [r3]
82006cd8:	e5933008 	ldr	r3, [r3, #8]
82006cdc:	e1a00003 	mov	r0, r3
82006ce0:	ebfff2af 	bl	820037a4 <which_page>
82006ce4:	e50b000c 	str	r0, [fp, #-12]
82006ce8:	e51b300c 	ldr	r3, [fp, #-12]
82006cec:	e5933020 	ldr	r3, [r3, #32]
82006cf0:	e50b3008 	str	r3, [fp, #-8]
82006cf4:	ea000009 	b	82006d20 <get_mblk_list_handler+0x68>
82006cf8:	e51b3008 	ldr	r3, [fp, #-8]
82006cfc:	e593300c 	ldr	r3, [r3, #12]
82006d00:	e1a02003 	mov	r2, r3
82006d04:	e51b1008 	ldr	r1, [fp, #-8]
82006d08:	e3090d28 	movw	r0, #40232	; 0x9d28
82006d0c:	e3480200 	movt	r0, #33280	; 0x8200
82006d10:	ebfff7cb 	bl	82004c44 <printk>
82006d14:	e51b3008 	ldr	r3, [fp, #-8]
82006d18:	e5933004 	ldr	r3, [r3, #4]
82006d1c:	e50b3008 	str	r3, [fp, #-8]
82006d20:	e51b3008 	ldr	r3, [fp, #-8]
82006d24:	e5933004 	ldr	r3, [r3, #4]
82006d28:	e3530000 	cmp	r3, #0
82006d2c:	1afffff1 	bne	82006cf8 <get_mblk_list_handler+0x40>
82006d30:	e51b3008 	ldr	r3, [fp, #-8]
82006d34:	e593300c 	ldr	r3, [r3, #12]
82006d38:	e1a02003 	mov	r2, r3
82006d3c:	e51b1008 	ldr	r1, [fp, #-8]
82006d40:	e3090d28 	movw	r0, #40232	; 0x9d28
82006d44:	e3480200 	movt	r0, #33280	; 0x8200
82006d48:	ebfff7bd 	bl	82004c44 <printk>
82006d4c:	e320f000 	nop	{0}
82006d50:	e24bd004 	sub	sp, fp, #4
82006d54:	e8bd8800 	pop	{fp, pc}

82006d58 <get_task_priority_handler>:
82006d58:	e52db004 	push	{fp}		; (str fp, [sp, #-4]!)
82006d5c:	e28db000 	add	fp, sp, #0
82006d60:	e24dd014 	sub	sp, sp, #20
82006d64:	e50b0010 	str	r0, [fp, #-16]
82006d68:	e50b1014 	str	r1, [fp, #-20]	; 0xffffffec
82006d6c:	e51b3010 	ldr	r3, [fp, #-16]
82006d70:	e50b3008 	str	r3, [fp, #-8]
82006d74:	e30a30e8 	movw	r3, #41192	; 0xa0e8
82006d78:	e3483200 	movt	r3, #33280	; 0x8200
82006d7c:	e5933000 	ldr	r3, [r3]
82006d80:	e5933020 	ldr	r3, [r3, #32]
82006d84:	e1a02003 	mov	r2, r3
82006d88:	e51b3008 	ldr	r3, [fp, #-8]
82006d8c:	e5832000 	str	r2, [r3]
82006d90:	e320f000 	nop	{0}
82006d94:	e28bd000 	add	sp, fp, #0
82006d98:	e49db004 	pop	{fp}		; (ldr fp, [sp], #4)
82006d9c:	e12fff1e 	bx	lr

82006da0 <write_handler>:
82006da0:	e92d4800 	push	{fp, lr}
82006da4:	e28db004 	add	fp, sp, #4
82006da8:	e24dd020 	sub	sp, sp, #32
82006dac:	e50b0020 	str	r0, [fp, #-32]	; 0xffffffe0
82006db0:	e50b1024 	str	r1, [fp, #-36]	; 0xffffffdc
82006db4:	e51b3024 	ldr	r3, [fp, #-36]	; 0xffffffdc
82006db8:	e50b3008 	str	r3, [fp, #-8]
82006dbc:	e51b3008 	ldr	r3, [fp, #-8]
82006dc0:	e5933000 	ldr	r3, [r3]
82006dc4:	e50b300c 	str	r3, [fp, #-12]
82006dc8:	e51b3008 	ldr	r3, [fp, #-8]
82006dcc:	e5933004 	ldr	r3, [r3, #4]
82006dd0:	e50b3010 	str	r3, [fp, #-16]
82006dd4:	e51b3008 	ldr	r3, [fp, #-8]
82006dd8:	e5933008 	ldr	r3, [r3, #8]
82006ddc:	e50b3014 	str	r3, [fp, #-20]	; 0xffffffec
82006de0:	e30a30e8 	movw	r3, #41192	; 0xa0e8
82006de4:	e3483200 	movt	r3, #33280	; 0x8200
82006de8:	e5932000 	ldr	r2, [r3]
82006dec:	e51b300c 	ldr	r3, [fp, #-12]
82006df0:	e2833008 	add	r3, r3, #8
82006df4:	e1a03103 	lsl	r3, r3, #2
82006df8:	e0823003 	add	r3, r2, r3
82006dfc:	e5933004 	ldr	r3, [r3, #4]
82006e00:	e593302c 	ldr	r3, [r3, #44]	; 0x2c
82006e04:	e51b1014 	ldr	r1, [fp, #-20]	; 0xffffffec
82006e08:	e51b0010 	ldr	r0, [fp, #-16]
82006e0c:	e12fff33 	blx	r3
82006e10:	e50b0018 	str	r0, [fp, #-24]	; 0xffffffe8
82006e14:	e51b3020 	ldr	r3, [fp, #-32]	; 0xffffffe0
82006e18:	e50b301c 	str	r3, [fp, #-28]	; 0xffffffe4
82006e1c:	e51b2018 	ldr	r2, [fp, #-24]	; 0xffffffe8
82006e20:	e51b301c 	ldr	r3, [fp, #-28]	; 0xffffffe4
82006e24:	e5832000 	str	r2, [r3]
82006e28:	e320f000 	nop	{0}
82006e2c:	e24bd004 	sub	sp, fp, #4
82006e30:	e8bd8800 	pop	{fp, pc}

82006e34 <read_handler>:
82006e34:	e92d4800 	push	{fp, lr}
82006e38:	e28db004 	add	fp, sp, #4
82006e3c:	e24dd020 	sub	sp, sp, #32
82006e40:	e50b0020 	str	r0, [fp, #-32]	; 0xffffffe0
82006e44:	e50b1024 	str	r1, [fp, #-36]	; 0xffffffdc
82006e48:	e51b3024 	ldr	r3, [fp, #-36]	; 0xffffffdc
82006e4c:	e50b3008 	str	r3, [fp, #-8]
82006e50:	e51b3008 	ldr	r3, [fp, #-8]
82006e54:	e5933000 	ldr	r3, [r3]
82006e58:	e50b300c 	str	r3, [fp, #-12]
82006e5c:	e51b3008 	ldr	r3, [fp, #-8]
82006e60:	e5933004 	ldr	r3, [r3, #4]
82006e64:	e50b3010 	str	r3, [fp, #-16]
82006e68:	e51b3008 	ldr	r3, [fp, #-8]
82006e6c:	e5933008 	ldr	r3, [r3, #8]
82006e70:	e50b3014 	str	r3, [fp, #-20]	; 0xffffffec
82006e74:	e30a30e8 	movw	r3, #41192	; 0xa0e8
82006e78:	e3483200 	movt	r3, #33280	; 0x8200
82006e7c:	e5932000 	ldr	r2, [r3]
82006e80:	e51b300c 	ldr	r3, [fp, #-12]
82006e84:	e2833008 	add	r3, r3, #8
82006e88:	e1a03103 	lsl	r3, r3, #2
82006e8c:	e0823003 	add	r3, r2, r3
82006e90:	e5933004 	ldr	r3, [r3, #4]
82006e94:	e5933028 	ldr	r3, [r3, #40]	; 0x28
82006e98:	e51b1014 	ldr	r1, [fp, #-20]	; 0xffffffec
82006e9c:	e51b0010 	ldr	r0, [fp, #-16]
82006ea0:	e12fff33 	blx	r3
82006ea4:	e50b0018 	str	r0, [fp, #-24]	; 0xffffffe8
82006ea8:	e51b3020 	ldr	r3, [fp, #-32]	; 0xffffffe0
82006eac:	e50b301c 	str	r3, [fp, #-28]	; 0xffffffe4
82006eb0:	e51b2018 	ldr	r2, [fp, #-24]	; 0xffffffe8
82006eb4:	e51b301c 	ldr	r3, [fp, #-28]	; 0xffffffe4
82006eb8:	e5832000 	str	r2, [r3]
82006ebc:	e320f000 	nop	{0}
82006ec0:	e24bd004 	sub	sp, fp, #4
82006ec4:	e8bd8800 	pop	{fp, pc}

82006ec8 <open_handler>:
82006ec8:	e92d4800 	push	{fp, lr}
82006ecc:	e28db004 	add	fp, sp, #4
82006ed0:	e24dd018 	sub	sp, sp, #24
82006ed4:	e50b0018 	str	r0, [fp, #-24]	; 0xffffffe8
82006ed8:	e50b101c 	str	r1, [fp, #-28]	; 0xffffffe4
82006edc:	e51b301c 	ldr	r3, [fp, #-28]	; 0xffffffe4
82006ee0:	e50b3008 	str	r3, [fp, #-8]
82006ee4:	e3e03000 	mvn	r3, #0
82006ee8:	e50b300c 	str	r3, [fp, #-12]
82006eec:	e30a30e8 	movw	r3, #41192	; 0xa0e8
82006ef0:	e3483200 	movt	r3, #33280	; 0x8200
82006ef4:	e5933000 	ldr	r3, [r3]
82006ef8:	e1a01003 	mov	r1, r3
82006efc:	e51b0008 	ldr	r0, [fp, #-8]
82006f00:	ebffea7c 	bl	820018f8 <file_open>
82006f04:	e50b000c 	str	r0, [fp, #-12]
82006f08:	e51b300c 	ldr	r3, [fp, #-12]
82006f0c:	e3530000 	cmp	r3, #0
82006f10:	aa000002 	bge	82006f20 <open_handler+0x58>
82006f14:	e3090d44 	movw	r0, #40260	; 0x9d44
82006f18:	e3480200 	movt	r0, #33280	; 0x8200
82006f1c:	ebfff748 	bl	82004c44 <printk>
82006f20:	e51b3018 	ldr	r3, [fp, #-24]	; 0xffffffe8
82006f24:	e50b3010 	str	r3, [fp, #-16]
82006f28:	e51b200c 	ldr	r2, [fp, #-12]
82006f2c:	e51b3010 	ldr	r3, [fp, #-16]
82006f30:	e5832000 	str	r2, [r3]
82006f34:	e320f000 	nop	{0}
82006f38:	e24bd004 	sub	sp, fp, #4
82006f3c:	e8bd8800 	pop	{fp, pc}

82006f40 <getcwd_handler>:
82006f40:	e92d4800 	push	{fp, lr}
82006f44:	e28db004 	add	fp, sp, #4
82006f48:	e24dd010 	sub	sp, sp, #16
82006f4c:	e50b0010 	str	r0, [fp, #-16]
82006f50:	e50b1014 	str	r1, [fp, #-20]	; 0xffffffec
82006f54:	e51b3014 	ldr	r3, [fp, #-20]	; 0xffffffec
82006f58:	e50b3008 	str	r3, [fp, #-8]
82006f5c:	e30a30e8 	movw	r3, #41192	; 0xa0e8
82006f60:	e3483200 	movt	r3, #33280	; 0x8200
82006f64:	e5933000 	ldr	r3, [r3]
82006f68:	e5933044 	ldr	r3, [r3, #68]	; 0x44
82006f6c:	e2833010 	add	r3, r3, #16
82006f70:	e1a00003 	mov	r0, r3
82006f74:	ebfffcce 	bl	820062b4 <_strlen>
82006f78:	e1a03000 	mov	r3, r0
82006f7c:	e1a02003 	mov	r2, r3
82006f80:	e51b3008 	ldr	r3, [fp, #-8]
82006f84:	e5933004 	ldr	r3, [r3, #4]
82006f88:	e1520003 	cmp	r2, r3
82006f8c:	9a000002 	bls	82006f9c <getcwd_handler+0x5c>
82006f90:	e51b3008 	ldr	r3, [fp, #-8]
82006f94:	e3a02000 	mov	r2, #0
82006f98:	e5832000 	str	r2, [r3]
82006f9c:	e51b3008 	ldr	r3, [fp, #-8]
82006fa0:	e5932000 	ldr	r2, [r3]
82006fa4:	e30a30e8 	movw	r3, #41192	; 0xa0e8
82006fa8:	e3483200 	movt	r3, #33280	; 0x8200
82006fac:	e5933000 	ldr	r3, [r3]
82006fb0:	e5933044 	ldr	r3, [r3, #68]	; 0x44
82006fb4:	e5933020 	ldr	r3, [r3, #32]
82006fb8:	e1a01003 	mov	r1, r3
82006fbc:	e1a00002 	mov	r0, r2
82006fc0:	ebfffd02 	bl	820063d0 <_strcat>
82006fc4:	e320f000 	nop	{0}
82006fc8:	e24bd004 	sub	sp, fp, #4
82006fcc:	e8bd8800 	pop	{fp, pc}

82006fd0 <getsubdir_handler>:
82006fd0:	e92d4810 	push	{r4, fp, lr}
82006fd4:	e28db008 	add	fp, sp, #8
82006fd8:	e24dd024 	sub	sp, sp, #36	; 0x24
82006fdc:	e50b0028 	str	r0, [fp, #-40]	; 0xffffffd8
82006fe0:	e50b102c 	str	r1, [fp, #-44]	; 0xffffffd4
82006fe4:	e51b302c 	ldr	r3, [fp, #-44]	; 0xffffffd4
82006fe8:	e50b3014 	str	r3, [fp, #-20]	; 0xffffffec
82006fec:	e51b3014 	ldr	r3, [fp, #-20]	; 0xffffffec
82006ff0:	e5933000 	ldr	r3, [r3]
82006ff4:	e50b3018 	str	r3, [fp, #-24]	; 0xffffffe8
82006ff8:	e51b3014 	ldr	r3, [fp, #-20]	; 0xffffffec
82006ffc:	e5933004 	ldr	r3, [r3, #4]
82007000:	e50b301c 	str	r3, [fp, #-28]	; 0xffffffe4
82007004:	e51b301c 	ldr	r3, [fp, #-28]	; 0xffffffe4
82007008:	e1a02003 	mov	r2, r3
8200700c:	e3a01000 	mov	r1, #0
82007010:	e51b0018 	ldr	r0, [fp, #-24]	; 0xffffffe8
82007014:	ebffeee8 	bl	82002bbc <_memset>
82007018:	e30a30e8 	movw	r3, #41192	; 0xa0e8
8200701c:	e3483200 	movt	r3, #33280	; 0x8200
82007020:	e5933000 	ldr	r3, [r3]
82007024:	e5933044 	ldr	r3, [r3, #68]	; 0x44
82007028:	e50b3020 	str	r3, [fp, #-32]	; 0xffffffe0
8200702c:	e51b3020 	ldr	r3, [fp, #-32]	; 0xffffffe0
82007030:	e5933000 	ldr	r3, [r3]
82007034:	e50b3010 	str	r3, [fp, #-16]
82007038:	e3093d60 	movw	r3, #40288	; 0x9d60
8200703c:	e3483200 	movt	r3, #33280	; 0x8200
82007040:	e50b3024 	str	r3, [fp, #-36]	; 0xffffffdc
82007044:	ea00001b 	b	820070b8 <getsubdir_handler+0xe8>
82007048:	e51b0018 	ldr	r0, [fp, #-24]	; 0xffffffe8
8200704c:	ebfffc98 	bl	820062b4 <_strlen>
82007050:	e1a02000 	mov	r2, r0
82007054:	e51b301c 	ldr	r3, [fp, #-28]	; 0xffffffe4
82007058:	e0433002 	sub	r3, r3, r2
8200705c:	e1a04003 	mov	r4, r3
82007060:	e51b3010 	ldr	r3, [fp, #-16]
82007064:	e5933020 	ldr	r3, [r3, #32]
82007068:	e1a00003 	mov	r0, r3
8200706c:	ebfffc90 	bl	820062b4 <_strlen>
82007070:	e1a03000 	mov	r3, r0
82007074:	e2833004 	add	r3, r3, #4
82007078:	e1540003 	cmp	r4, r3
8200707c:	2a000002 	bcs	8200708c <getsubdir_handler+0xbc>
82007080:	e3a03000 	mov	r3, #0
82007084:	e50b3018 	str	r3, [fp, #-24]	; 0xffffffe8
82007088:	ea00000e 	b	820070c8 <getsubdir_handler+0xf8>
8200708c:	e51b3010 	ldr	r3, [fp, #-16]
82007090:	e5933020 	ldr	r3, [r3, #32]
82007094:	e1a01003 	mov	r1, r3
82007098:	e51b0018 	ldr	r0, [fp, #-24]	; 0xffffffe8
8200709c:	ebfffccb 	bl	820063d0 <_strcat>
820070a0:	e51b1024 	ldr	r1, [fp, #-36]	; 0xffffffdc
820070a4:	e51b0018 	ldr	r0, [fp, #-24]	; 0xffffffe8
820070a8:	ebfffcc8 	bl	820063d0 <_strcat>
820070ac:	e51b3010 	ldr	r3, [fp, #-16]
820070b0:	e5933008 	ldr	r3, [r3, #8]
820070b4:	e50b3010 	str	r3, [fp, #-16]
820070b8:	e51b3010 	ldr	r3, [fp, #-16]
820070bc:	e3530000 	cmp	r3, #0
820070c0:	1affffe0 	bne	82007048 <getsubdir_handler+0x78>
820070c4:	e320f000 	nop	{0}
820070c8:	e320f000 	nop	{0}
820070cc:	e24bd008 	sub	sp, fp, #8
820070d0:	e8bd8810 	pop	{r4, fp, pc}

820070d4 <getfdir_handler>:
820070d4:	e92d4810 	push	{r4, fp, lr}
820070d8:	e28db008 	add	fp, sp, #8
820070dc:	e24dd024 	sub	sp, sp, #36	; 0x24
820070e0:	e50b0028 	str	r0, [fp, #-40]	; 0xffffffd8
820070e4:	e50b102c 	str	r1, [fp, #-44]	; 0xffffffd4
820070e8:	e51b302c 	ldr	r3, [fp, #-44]	; 0xffffffd4
820070ec:	e50b3014 	str	r3, [fp, #-20]	; 0xffffffec
820070f0:	e51b3014 	ldr	r3, [fp, #-20]	; 0xffffffec
820070f4:	e5933000 	ldr	r3, [r3]
820070f8:	e50b3018 	str	r3, [fp, #-24]	; 0xffffffe8
820070fc:	e51b3014 	ldr	r3, [fp, #-20]	; 0xffffffec
82007100:	e5933004 	ldr	r3, [r3, #4]
82007104:	e50b301c 	str	r3, [fp, #-28]	; 0xffffffe4
82007108:	e51b301c 	ldr	r3, [fp, #-28]	; 0xffffffe4
8200710c:	e1a02003 	mov	r2, r3
82007110:	e3a01000 	mov	r1, #0
82007114:	e51b0018 	ldr	r0, [fp, #-24]	; 0xffffffe8
82007118:	ebffeea7 	bl	82002bbc <_memset>
8200711c:	e30a30e8 	movw	r3, #41192	; 0xa0e8
82007120:	e3483200 	movt	r3, #33280	; 0x8200
82007124:	e5933000 	ldr	r3, [r3]
82007128:	e5933044 	ldr	r3, [r3, #68]	; 0x44
8200712c:	e50b3020 	str	r3, [fp, #-32]	; 0xffffffe0
82007130:	e51b3020 	ldr	r3, [fp, #-32]	; 0xffffffe0
82007134:	e593300c 	ldr	r3, [r3, #12]
82007138:	e50b3010 	str	r3, [fp, #-16]
8200713c:	e3093d60 	movw	r3, #40288	; 0x9d60
82007140:	e3483200 	movt	r3, #33280	; 0x8200
82007144:	e50b3024 	str	r3, [fp, #-36]	; 0xffffffdc
82007148:	ea00001b 	b	820071bc <getfdir_handler+0xe8>
8200714c:	e51b0018 	ldr	r0, [fp, #-24]	; 0xffffffe8
82007150:	ebfffc57 	bl	820062b4 <_strlen>
82007154:	e1a02000 	mov	r2, r0
82007158:	e51b301c 	ldr	r3, [fp, #-28]	; 0xffffffe4
8200715c:	e0433002 	sub	r3, r3, r2
82007160:	e1a04003 	mov	r4, r3
82007164:	e51b3010 	ldr	r3, [fp, #-16]
82007168:	e5933024 	ldr	r3, [r3, #36]	; 0x24
8200716c:	e1a00003 	mov	r0, r3
82007170:	ebfffc4f 	bl	820062b4 <_strlen>
82007174:	e1a03000 	mov	r3, r0
82007178:	e2833004 	add	r3, r3, #4
8200717c:	e1540003 	cmp	r4, r3
82007180:	2a000002 	bcs	82007190 <getfdir_handler+0xbc>
82007184:	e3a03000 	mov	r3, #0
82007188:	e50b3018 	str	r3, [fp, #-24]	; 0xffffffe8
8200718c:	ea00000e 	b	820071cc <getfdir_handler+0xf8>
82007190:	e51b3010 	ldr	r3, [fp, #-16]
82007194:	e5933024 	ldr	r3, [r3, #36]	; 0x24
82007198:	e1a01003 	mov	r1, r3
8200719c:	e51b0018 	ldr	r0, [fp, #-24]	; 0xffffffe8
820071a0:	ebfffc8a 	bl	820063d0 <_strcat>
820071a4:	e51b1024 	ldr	r1, [fp, #-36]	; 0xffffffdc
820071a8:	e51b0018 	ldr	r0, [fp, #-24]	; 0xffffffe8
820071ac:	ebfffc87 	bl	820063d0 <_strcat>
820071b0:	e51b3010 	ldr	r3, [fp, #-16]
820071b4:	e5933004 	ldr	r3, [r3, #4]
820071b8:	e50b3010 	str	r3, [fp, #-16]
820071bc:	e51b3010 	ldr	r3, [fp, #-16]
820071c0:	e3530000 	cmp	r3, #0
820071c4:	1affffe0 	bne	8200714c <getfdir_handler+0x78>
820071c8:	e320f000 	nop	{0}
820071cc:	e320f000 	nop	{0}
820071d0:	e24bd008 	sub	sp, fp, #8
820071d4:	e8bd8810 	pop	{r4, fp, pc}

820071d8 <chdir_handler>:
820071d8:	e92d4800 	push	{fp, lr}
820071dc:	e28db004 	add	fp, sp, #4
820071e0:	e24dd018 	sub	sp, sp, #24
820071e4:	e50b0018 	str	r0, [fp, #-24]	; 0xffffffe8
820071e8:	e50b101c 	str	r1, [fp, #-28]	; 0xffffffe4
820071ec:	e51b301c 	ldr	r3, [fp, #-28]	; 0xffffffe4
820071f0:	e50b3008 	str	r3, [fp, #-8]
820071f4:	e30a30e8 	movw	r3, #41192	; 0xa0e8
820071f8:	e3483200 	movt	r3, #33280	; 0x8200
820071fc:	e5933000 	ldr	r3, [r3]
82007200:	e5933044 	ldr	r3, [r3, #68]	; 0x44
82007204:	e50b300c 	str	r3, [fp, #-12]
82007208:	e51b1008 	ldr	r1, [fp, #-8]
8200720c:	e51b000c 	ldr	r0, [fp, #-12]
82007210:	ebffe985 	bl	8200182c <find_target_subdir>
82007214:	e50b0010 	str	r0, [fp, #-16]
82007218:	e51b3018 	ldr	r3, [fp, #-24]	; 0xffffffe8
8200721c:	e50b3014 	str	r3, [fp, #-20]	; 0xffffffec
82007220:	e51b3010 	ldr	r3, [fp, #-16]
82007224:	e3530000 	cmp	r3, #0
82007228:	0a000008 	beq	82007250 <chdir_handler+0x78>
8200722c:	e30a30e8 	movw	r3, #41192	; 0xa0e8
82007230:	e3483200 	movt	r3, #33280	; 0x8200
82007234:	e5933000 	ldr	r3, [r3]
82007238:	e51b2010 	ldr	r2, [fp, #-16]
8200723c:	e5832044 	str	r2, [r3, #68]	; 0x44
82007240:	e51b3014 	ldr	r3, [fp, #-20]	; 0xffffffec
82007244:	e3a02000 	mov	r2, #0
82007248:	e5832000 	str	r2, [r3]
8200724c:	ea000002 	b	8200725c <chdir_handler+0x84>
82007250:	e51b3014 	ldr	r3, [fp, #-20]	; 0xffffffec
82007254:	e3e02000 	mvn	r2, #0
82007258:	e5832000 	str	r2, [r3]
8200725c:	e320f000 	nop	{0}
82007260:	e24bd004 	sub	sp, fp, #4
82007264:	e8bd8800 	pop	{fp, pc}

82007268 <getfullpath_handler>:
82007268:	e92d4810 	push	{r4, fp, lr}
8200726c:	e28db008 	add	fp, sp, #8
82007270:	e24dd06c 	sub	sp, sp, #108	; 0x6c
82007274:	e50b0070 	str	r0, [fp, #-112]	; 0xffffff90
82007278:	e50b1074 	str	r1, [fp, #-116]	; 0xffffff8c
8200727c:	e51b3074 	ldr	r3, [fp, #-116]	; 0xffffff8c
82007280:	e50b301c 	str	r3, [fp, #-28]	; 0xffffffe4
82007284:	e51b301c 	ldr	r3, [fp, #-28]	; 0xffffffe4
82007288:	e5933000 	ldr	r3, [r3]
8200728c:	e50b3020 	str	r3, [fp, #-32]	; 0xffffffe0
82007290:	e51b301c 	ldr	r3, [fp, #-28]	; 0xffffffe4
82007294:	e5933004 	ldr	r3, [r3, #4]
82007298:	e50b3024 	str	r3, [fp, #-36]	; 0xffffffdc
8200729c:	e30a30e8 	movw	r3, #41192	; 0xa0e8
820072a0:	e3483200 	movt	r3, #33280	; 0x8200
820072a4:	e5933000 	ldr	r3, [r3]
820072a8:	e5933044 	ldr	r3, [r3, #68]	; 0x44
820072ac:	e50b3010 	str	r3, [fp, #-16]
820072b0:	e3a03000 	mov	r3, #0
820072b4:	e50b3014 	str	r3, [fp, #-20]	; 0xffffffec
820072b8:	ea000008 	b	820072e0 <getfullpath_handler+0x78>
820072bc:	e51b3014 	ldr	r3, [fp, #-20]	; 0xffffffec
820072c0:	e1a03103 	lsl	r3, r3, #2
820072c4:	e24b200c 	sub	r2, fp, #12
820072c8:	e0823003 	add	r3, r2, r3
820072cc:	e3a02000 	mov	r2, #0
820072d0:	e503205c 	str	r2, [r3, #-92]	; 0xffffffa4
820072d4:	e51b3014 	ldr	r3, [fp, #-20]	; 0xffffffec
820072d8:	e2833001 	add	r3, r3, #1
820072dc:	e50b3014 	str	r3, [fp, #-20]	; 0xffffffec
820072e0:	e51b3014 	ldr	r3, [fp, #-20]	; 0xffffffec
820072e4:	e353000f 	cmp	r3, #15
820072e8:	dafffff3 	ble	820072bc <getfullpath_handler+0x54>
820072ec:	e3a03000 	mov	r3, #0
820072f0:	e50b3018 	str	r3, [fp, #-24]	; 0xffffffe8
820072f4:	ea00000b 	b	82007328 <getfullpath_handler+0xc0>
820072f8:	e51b3018 	ldr	r3, [fp, #-24]	; 0xffffffe8
820072fc:	e1a03103 	lsl	r3, r3, #2
82007300:	e24b200c 	sub	r2, fp, #12
82007304:	e0823003 	add	r3, r2, r3
82007308:	e51b2010 	ldr	r2, [fp, #-16]
8200730c:	e503205c 	str	r2, [r3, #-92]	; 0xffffffa4
82007310:	e51b3010 	ldr	r3, [fp, #-16]
82007314:	e5933004 	ldr	r3, [r3, #4]
82007318:	e50b3010 	str	r3, [fp, #-16]
8200731c:	e51b3018 	ldr	r3, [fp, #-24]	; 0xffffffe8
82007320:	e2833001 	add	r3, r3, #1
82007324:	e50b3018 	str	r3, [fp, #-24]	; 0xffffffe8
82007328:	e51b3010 	ldr	r3, [fp, #-16]
8200732c:	e3530000 	cmp	r3, #0
82007330:	1afffff0 	bne	820072f8 <getfullpath_handler+0x90>
82007334:	e51b3018 	ldr	r3, [fp, #-24]	; 0xffffffe8
82007338:	e50b3028 	str	r3, [fp, #-40]	; 0xffffffd8
8200733c:	e51b3018 	ldr	r3, [fp, #-24]	; 0xffffffe8
82007340:	e2433001 	sub	r3, r3, #1
82007344:	e50b3018 	str	r3, [fp, #-24]	; 0xffffffe8
82007348:	ea00001e 	b	820073c8 <getfullpath_handler+0x160>
8200734c:	e51b0020 	ldr	r0, [fp, #-32]	; 0xffffffe0
82007350:	ebfffbd7 	bl	820062b4 <_strlen>
82007354:	e1a02000 	mov	r2, r0
82007358:	e51b3024 	ldr	r3, [fp, #-36]	; 0xffffffdc
8200735c:	e0434002 	sub	r4, r3, r2
82007360:	e51b3018 	ldr	r3, [fp, #-24]	; 0xffffffe8
82007364:	e1a03103 	lsl	r3, r3, #2
82007368:	e24b200c 	sub	r2, fp, #12
8200736c:	e0823003 	add	r3, r2, r3
82007370:	e513305c 	ldr	r3, [r3, #-92]	; 0xffffffa4
82007374:	e5933020 	ldr	r3, [r3, #32]
82007378:	e1a00003 	mov	r0, r3
8200737c:	ebfffbcc 	bl	820062b4 <_strlen>
82007380:	e1a03000 	mov	r3, r0
82007384:	e1540003 	cmp	r4, r3
82007388:	aa000002 	bge	82007398 <getfullpath_handler+0x130>
8200738c:	e3090d64 	movw	r0, #40292	; 0x9d64
82007390:	e3480200 	movt	r0, #33280	; 0x8200
82007394:	ebfff62a 	bl	82004c44 <printk>
82007398:	e51b3018 	ldr	r3, [fp, #-24]	; 0xffffffe8
8200739c:	e1a03103 	lsl	r3, r3, #2
820073a0:	e24b200c 	sub	r2, fp, #12
820073a4:	e0823003 	add	r3, r2, r3
820073a8:	e513305c 	ldr	r3, [r3, #-92]	; 0xffffffa4
820073ac:	e5933020 	ldr	r3, [r3, #32]
820073b0:	e1a01003 	mov	r1, r3
820073b4:	e51b0020 	ldr	r0, [fp, #-32]	; 0xffffffe0
820073b8:	ebfffc04 	bl	820063d0 <_strcat>
820073bc:	e51b3018 	ldr	r3, [fp, #-24]	; 0xffffffe8
820073c0:	e2433001 	sub	r3, r3, #1
820073c4:	e50b3018 	str	r3, [fp, #-24]	; 0xffffffe8
820073c8:	e51b3018 	ldr	r3, [fp, #-24]	; 0xffffffe8
820073cc:	e3530000 	cmp	r3, #0
820073d0:	aaffffdd 	bge	8200734c <getfullpath_handler+0xe4>
820073d4:	e320f000 	nop	{0}
820073d8:	e320f000 	nop	{0}
820073dc:	e24bd008 	sub	sp, fp, #8
820073e0:	e8bd8810 	pop	{r4, fp, pc}

820073e4 <restart_handler>:
820073e4:	e92d4800 	push	{fp, lr}
820073e8:	e28db004 	add	fp, sp, #4
820073ec:	e24dd008 	sub	sp, sp, #8
820073f0:	e50b0008 	str	r0, [fp, #-8]
820073f4:	e50b100c 	str	r1, [fp, #-12]
820073f8:	e3e0100f 	mvn	r1, #15
820073fc:	e3a00a05 	mov	r0, #20480	; 0x5000
82007400:	e34404e3 	movt	r0, #17635	; 0x44e3
82007404:	eb000404 	bl	8200841c <set_wdt_count>
82007408:	e3a00a05 	mov	r0, #20480	; 0x5000
8200740c:	e34404e3 	movt	r0, #17635	; 0x44e3
82007410:	eb0003e0 	bl	82008398 <enable_watchdog>
82007414:	e320f000 	nop	{0}
82007418:	e24bd004 	sub	sp, fp, #4
8200741c:	e8bd8800 	pop	{fp, pc}

82007420 <close_handler>:
82007420:	e92d4800 	push	{fp, lr}
82007424:	e28db004 	add	fp, sp, #4
82007428:	e24dd010 	sub	sp, sp, #16
8200742c:	e50b0010 	str	r0, [fp, #-16]
82007430:	e50b1014 	str	r1, [fp, #-20]	; 0xffffffec
82007434:	e51b3014 	ldr	r3, [fp, #-20]	; 0xffffffec
82007438:	e50b3008 	str	r3, [fp, #-8]
8200743c:	e30a30e8 	movw	r3, #41192	; 0xa0e8
82007440:	e3483200 	movt	r3, #33280	; 0x8200
82007444:	e5933000 	ldr	r3, [r3]
82007448:	e1a01003 	mov	r1, r3
8200744c:	e51b0008 	ldr	r0, [fp, #-8]
82007450:	ebffe95b 	bl	820019c4 <file_close>
82007454:	e320f000 	nop	{0}
82007458:	e24bd004 	sub	sp, fp, #4
8200745c:	e8bd8800 	pop	{fp, pc}

82007460 <syscall_print_hello>:
82007460:	e92d4005 	push	{r0, r2, lr}
82007464:	e1a02000 	mov	r2, r0
82007468:	e3a00000 	mov	r0, #0
8200746c:	ef000000 	svc	0x00000000
82007470:	e8bd4005 	pop	{r0, r2, lr}
82007474:	e321f010 	msr	CPSR_c, #16
82007478:	e12fff1e 	bx	lr

8200747c <syscall_yield>:
8200747c:	e92d4001 	push	{r0, lr}
82007480:	e3a00001 	mov	r0, #1
82007484:	e92d5fff 	push	{r0, r1, r2, r3, r4, r5, r6, r7, r8, r9, sl, fp, ip, lr}
82007488:	e3a00005 	mov	r0, #5
8200748c:	eb00031f 	bl	82008110 <reloadOsTick>
82007490:	e8bd5fff 	pop	{r0, r1, r2, r3, r4, r5, r6, r7, r8, r9, sl, fp, ip, lr}
82007494:	ef000000 	svc	0x00000000
82007498:	e8bd4001 	pop	{r0, lr}
8200749c:	e321f010 	msr	CPSR_c, #16
820074a0:	e12fff1e 	bx	lr

820074a4 <syscall_get_tid>:
820074a4:	e92d4004 	push	{r2, lr}
820074a8:	e1a02000 	mov	r2, r0
820074ac:	e3a00002 	mov	r0, #2
820074b0:	ef000000 	svc	0x00000000
820074b4:	e8bd4004 	pop	{r2, lr}
820074b8:	e321f010 	msr	CPSR_c, #16
820074bc:	e12fff1e 	bx	lr

820074c0 <syscall_exit>:
820074c0:	e92d4004 	push	{r2, lr}
820074c4:	e1a02000 	mov	r2, r0
820074c8:	e3a00003 	mov	r0, #3
820074cc:	ef000000 	svc	0x00000000
820074d0:	e8bd4004 	pop	{r2, lr}
820074d4:	e321f010 	msr	CPSR_c, #16
820074d8:	e12fff1e 	bx	lr

820074dc <syscall_fork>:
820074dc:	e92d4004 	push	{r2, lr}
820074e0:	e1a02000 	mov	r2, r0
820074e4:	e3a00004 	mov	r0, #4
820074e8:	ef000000 	svc	0x00000000
820074ec:	e8bd4004 	pop	{r2, lr}
820074f0:	e321f010 	msr	CPSR_c, #16
820074f4:	e12fff1e 	bx	lr

820074f8 <syscall_do_taskCreate>:
820074f8:	e92d4004 	push	{r2, lr}
820074fc:	e1a02000 	mov	r2, r0
82007500:	e3a00005 	mov	r0, #5
82007504:	ef000000 	svc	0x00000000
82007508:	e8bd4004 	pop	{r2, lr}
8200750c:	e321f010 	msr	CPSR_c, #16
82007510:	e12fff1e 	bx	lr

82007514 <syscall_malloc_blk>:
82007514:	e92d4004 	push	{r2, lr}
82007518:	e1a02000 	mov	r2, r0
8200751c:	e3a00006 	mov	r0, #6
82007520:	ef000000 	svc	0x00000000
82007524:	e8bd4004 	pop	{r2, lr}
82007528:	e321f010 	msr	CPSR_c, #16
8200752c:	e12fff1e 	bx	lr

82007530 <syscall_mfree_blk>:
82007530:	e92d4004 	push	{r2, lr}
82007534:	e1a02000 	mov	r2, r0
82007538:	e3a00007 	mov	r0, #7
8200753c:	ef000000 	svc	0x00000000
82007540:	e8bd4004 	pop	{r2, lr}
82007544:	e321f010 	msr	CPSR_c, #16
82007548:	e12fff1e 	bx	lr

8200754c <syscall_get_mblk_list>:
8200754c:	e92d4004 	push	{r2, lr}
82007550:	e1a02000 	mov	r2, r0
82007554:	e3a00008 	mov	r0, #8
82007558:	ef000000 	svc	0x00000000
8200755c:	e8bd4004 	pop	{r2, lr}
82007560:	e321f010 	msr	CPSR_c, #16
82007564:	e12fff1e 	bx	lr

82007568 <syscall_get_task_priority>:
82007568:	e92d4004 	push	{r2, lr}
8200756c:	e1a02000 	mov	r2, r0
82007570:	e3a00009 	mov	r0, #9
82007574:	ef000000 	svc	0x00000000
82007578:	e8bd4004 	pop	{r2, lr}
8200757c:	e321f010 	msr	CPSR_c, #16
82007580:	e12fff1e 	bx	lr

82007584 <syscall_write>:
82007584:	e92d4004 	push	{r2, lr}
82007588:	e1a02000 	mov	r2, r0
8200758c:	e3a0000a 	mov	r0, #10
82007590:	ef000000 	svc	0x00000000
82007594:	e8bd4004 	pop	{r2, lr}
82007598:	e321f010 	msr	CPSR_c, #16
8200759c:	e12fff1e 	bx	lr

820075a0 <syscall_read>:
820075a0:	e92d4004 	push	{r2, lr}
820075a4:	e1a02000 	mov	r2, r0
820075a8:	e3a0000b 	mov	r0, #11
820075ac:	ef000000 	svc	0x00000000
820075b0:	e8bd4004 	pop	{r2, lr}
820075b4:	e321f010 	msr	CPSR_c, #16
820075b8:	e12fff1e 	bx	lr

820075bc <syscall_open>:
820075bc:	e92d4004 	push	{r2, lr}
820075c0:	e1a02000 	mov	r2, r0
820075c4:	e3a0000c 	mov	r0, #12
820075c8:	ef000000 	svc	0x00000000
820075cc:	e8bd4004 	pop	{r2, lr}
820075d0:	e321f010 	msr	CPSR_c, #16
820075d4:	e12fff1e 	bx	lr

820075d8 <syscall_getcwd>:
820075d8:	e92d4004 	push	{r2, lr}
820075dc:	e1a02000 	mov	r2, r0
820075e0:	e3a0000d 	mov	r0, #13
820075e4:	ef000000 	svc	0x00000000
820075e8:	e8bd4004 	pop	{r2, lr}
820075ec:	e321f010 	msr	CPSR_c, #16
820075f0:	e12fff1e 	bx	lr

820075f4 <syscall_getsubdir>:
820075f4:	e92d4004 	push	{r2, lr}
820075f8:	e1a02000 	mov	r2, r0
820075fc:	e3a0000e 	mov	r0, #14
82007600:	ef000000 	svc	0x00000000
82007604:	e8bd4004 	pop	{r2, lr}
82007608:	e321f010 	msr	CPSR_c, #16
8200760c:	e12fff1e 	bx	lr

82007610 <syscall_getfdir>:
82007610:	e92d4004 	push	{r2, lr}
82007614:	e1a02000 	mov	r2, r0
82007618:	e3a0000f 	mov	r0, #15
8200761c:	ef000000 	svc	0x00000000
82007620:	e8bd4004 	pop	{r2, lr}
82007624:	e321f010 	msr	CPSR_c, #16
82007628:	e12fff1e 	bx	lr

8200762c <syscall_chdir>:
8200762c:	e92d4004 	push	{r2, lr}
82007630:	e1a02000 	mov	r2, r0
82007634:	e3a00010 	mov	r0, #16
82007638:	ef000000 	svc	0x00000000
8200763c:	e8bd4004 	pop	{r2, lr}
82007640:	e321f010 	msr	CPSR_c, #16
82007644:	e12fff1e 	bx	lr

82007648 <syscall_getfullpath>:
82007648:	e92d4004 	push	{r2, lr}
8200764c:	e1a02000 	mov	r2, r0
82007650:	e3a00011 	mov	r0, #17
82007654:	ef000000 	svc	0x00000000
82007658:	e8bd4004 	pop	{r2, lr}
8200765c:	e321f010 	msr	CPSR_c, #16
82007660:	e12fff1e 	bx	lr

82007664 <syscall_restart>:
82007664:	e92d4004 	push	{r2, lr}
82007668:	e1a02000 	mov	r2, r0
8200766c:	e3a00012 	mov	r0, #18
82007670:	ef000000 	svc	0x00000000
82007674:	e8bd4004 	pop	{r2, lr}
82007678:	e321f010 	msr	CPSR_c, #16
8200767c:	e12fff1e 	bx	lr

82007680 <syscall_close>:
82007680:	e92d4004 	push	{r2, lr}
82007684:	e1a02000 	mov	r2, r0
82007688:	e3a00013 	mov	r0, #19
8200768c:	ef000000 	svc	0x00000000
82007690:	e8bd4004 	pop	{r2, lr}
82007694:	e321f010 	msr	CPSR_c, #16
82007698:	e12fff1e 	bx	lr

8200769c <choose_task>:
8200769c:	e92d4800 	push	{fp, lr}
820076a0:	e28db004 	add	fp, sp, #4
820076a4:	e24dd010 	sub	sp, sp, #16
820076a8:	e3a03000 	mov	r3, #0
820076ac:	e50b3008 	str	r3, [fp, #-8]
820076b0:	ea00001e 	b	82007730 <choose_task+0x94>
820076b4:	e30a3834 	movw	r3, #43060	; 0xa834
820076b8:	e3483200 	movt	r3, #33280	; 0x8200
820076bc:	e51b2008 	ldr	r2, [fp, #-8]
820076c0:	e7933102 	ldr	r3, [r3, r2, lsl #2]
820076c4:	e3530000 	cmp	r3, #0
820076c8:	0a000015 	beq	82007724 <choose_task+0x88>
820076cc:	e30a3834 	movw	r3, #43060	; 0xa834
820076d0:	e3483200 	movt	r3, #33280	; 0x8200
820076d4:	e51b2008 	ldr	r2, [fp, #-8]
820076d8:	e7933102 	ldr	r3, [r3, r2, lsl #2]
820076dc:	e5933018 	ldr	r3, [r3, #24]
820076e0:	e3530001 	cmp	r3, #1
820076e4:	1a00000e 	bne	82007724 <choose_task+0x88>
820076e8:	e30a3834 	movw	r3, #43060	; 0xa834
820076ec:	e3483200 	movt	r3, #33280	; 0x8200
820076f0:	e51b2008 	ldr	r2, [fp, #-8]
820076f4:	e7933102 	ldr	r3, [r3, r2, lsl #2]
820076f8:	e50b300c 	str	r3, [fp, #-12]
820076fc:	e51b0008 	ldr	r0, [fp, #-8]
82007700:	eb000147 	bl	82007c24 <task_dequeue>
82007704:	e50b0010 	str	r0, [fp, #-16]
82007708:	e51b300c 	ldr	r3, [fp, #-12]
8200770c:	e3a02000 	mov	r2, #0
82007710:	e5832018 	str	r2, [r3, #24]
82007714:	e51b000c 	ldr	r0, [fp, #-12]
82007718:	eb00010d 	bl	82007b54 <task_enqueue>
8200771c:	e51b300c 	ldr	r3, [fp, #-12]
82007720:	ea000005 	b	8200773c <choose_task+0xa0>
82007724:	e51b3008 	ldr	r3, [fp, #-8]
82007728:	e2833001 	add	r3, r3, #1
8200772c:	e50b3008 	str	r3, [fp, #-8]
82007730:	e51b3008 	ldr	r3, [fp, #-8]
82007734:	e3530004 	cmp	r3, #4
82007738:	daffffdd 	ble	820076b4 <choose_task+0x18>
8200773c:	e1a00003 	mov	r0, r3
82007740:	e24bd004 	sub	sp, fp, #4
82007744:	e8bd8800 	pop	{fp, pc}

82007748 <sched_first_run>:
82007748:	e92d4800 	push	{fp, lr}
8200774c:	e28db004 	add	fp, sp, #4
82007750:	ebffffd1 	bl	8200769c <choose_task>
82007754:	e1a02000 	mov	r2, r0
82007758:	e30a30e8 	movw	r3, #41192	; 0xa0e8
8200775c:	e3483200 	movt	r3, #33280	; 0x8200
82007760:	e5832000 	str	r2, [r3]
82007764:	e30a30e8 	movw	r3, #41192	; 0xa0e8
82007768:	e3483200 	movt	r3, #33280	; 0x8200
8200776c:	e5933000 	ldr	r3, [r3]
82007770:	e5933048 	ldr	r3, [r3, #72]	; 0x48
82007774:	e1a00003 	mov	r0, r3
82007778:	ebfff435 	bl	82004854 <switch_mm>
8200777c:	e30a30e8 	movw	r3, #41192	; 0xa0e8
82007780:	e3483200 	movt	r3, #33280	; 0x8200
82007784:	e5933000 	ldr	r3, [r3]
82007788:	e593301c 	ldr	r3, [r3, #28]
8200778c:	e1a00003 	mov	r0, r3
82007790:	eb0001eb 	bl	82007f44 <first_run>
82007794:	e320f000 	nop	{0}
82007798:	e8bd8800 	pop	{fp, pc}

8200779c <sched>:
8200779c:	e92d4800 	push	{fp, lr}
820077a0:	e28db004 	add	fp, sp, #4
820077a4:	ebffffbc 	bl	8200769c <choose_task>
820077a8:	e1a02000 	mov	r2, r0
820077ac:	e30a30e8 	movw	r3, #41192	; 0xa0e8
820077b0:	e3483200 	movt	r3, #33280	; 0x8200
820077b4:	e5832000 	str	r2, [r3]
820077b8:	e30a30e8 	movw	r3, #41192	; 0xa0e8
820077bc:	e3483200 	movt	r3, #33280	; 0x8200
820077c0:	e5933000 	ldr	r3, [r3]
820077c4:	e5933048 	ldr	r3, [r3, #72]	; 0x48
820077c8:	e1a00003 	mov	r0, r3
820077cc:	ebfff420 	bl	82004854 <switch_mm>
820077d0:	e30a30e8 	movw	r3, #41192	; 0xa0e8
820077d4:	e3483200 	movt	r3, #33280	; 0x8200
820077d8:	e5933000 	ldr	r3, [r3]
820077dc:	e593301c 	ldr	r3, [r3, #28]
820077e0:	e1a00003 	mov	r0, r3
820077e4:	eb0001e3 	bl	82007f78 <switch_task>
820077e8:	e320f000 	nop	{0}
820077ec:	e8bd8800 	pop	{fp, pc}

820077f0 <set_sched_context>:
820077f0:	e52db004 	push	{fp}		; (str fp, [sp, #-4]!)
820077f4:	e28db000 	add	fp, sp, #0
820077f8:	e3093ec8 	movw	r3, #40648	; 0x9ec8
820077fc:	e3483200 	movt	r3, #33280	; 0x8200
82007800:	e5932000 	ldr	r2, [r3]
82007804:	e307379c 	movw	r3, #30620	; 0x779c
82007808:	e3483200 	movt	r3, #33280	; 0x8200
8200780c:	e5823034 	str	r3, [r2, #52]	; 0x34
82007810:	e320f000 	nop	{0}
82007814:	e28bd000 	add	sp, fp, #0
82007818:	e49db004 	pop	{fp}		; (ldr fp, [sp], #4)
8200781c:	e12fff1e 	bx	lr

82007820 <set_first_sched>:
82007820:	e52db004 	push	{fp}		; (str fp, [sp, #-4]!)
82007824:	e28db000 	add	fp, sp, #0
82007828:	e3093ec8 	movw	r3, #40648	; 0x9ec8
8200782c:	e3483200 	movt	r3, #33280	; 0x8200
82007830:	e5932000 	ldr	r2, [r3]
82007834:	e3073748 	movw	r3, #30536	; 0x7748
82007838:	e3483200 	movt	r3, #33280	; 0x8200
8200783c:	e5823034 	str	r3, [r2, #52]	; 0x34
82007840:	e320f000 	nop	{0}
82007844:	e28bd000 	add	sp, fp, #0
82007848:	e49db004 	pop	{fp}		; (ldr fp, [sp], #4)
8200784c:	e12fff1e 	bx	lr

82007850 <task_init>:
82007850:	e52db004 	push	{fp}		; (str fp, [sp, #-4]!)
82007854:	e28db000 	add	fp, sp, #0
82007858:	e24dd00c 	sub	sp, sp, #12
8200785c:	e3a03000 	mov	r3, #0
82007860:	e50b3008 	str	r3, [fp, #-8]
82007864:	ea000007 	b	82007888 <task_init+0x38>
82007868:	e30a3834 	movw	r3, #43060	; 0xa834
8200786c:	e3483200 	movt	r3, #33280	; 0x8200
82007870:	e51b2008 	ldr	r2, [fp, #-8]
82007874:	e3a01000 	mov	r1, #0
82007878:	e7831102 	str	r1, [r3, r2, lsl #2]
8200787c:	e51b3008 	ldr	r3, [fp, #-8]
82007880:	e2833001 	add	r3, r3, #1
82007884:	e50b3008 	str	r3, [fp, #-8]
82007888:	e51b3008 	ldr	r3, [fp, #-8]
8200788c:	e3530004 	cmp	r3, #4
82007890:	dafffff4 	ble	82007868 <task_init+0x18>
82007894:	e320f000 	nop	{0}
82007898:	e320f000 	nop	{0}
8200789c:	e28bd000 	add	sp, fp, #0
820078a0:	e49db004 	pop	{fp}		; (ldr fp, [sp], #4)
820078a4:	e12fff1e 	bx	lr

820078a8 <taskCreate>:
820078a8:	e52db004 	push	{fp}		; (str fp, [sp, #-4]!)
820078ac:	e28db000 	add	fp, sp, #0
820078b0:	e24dd01c 	sub	sp, sp, #28
820078b4:	e50b0010 	str	r0, [fp, #-16]
820078b8:	e50b1014 	str	r1, [fp, #-20]	; 0xffffffec
820078bc:	e50b2018 	str	r2, [fp, #-24]	; 0xffffffe8
820078c0:	e50b301c 	str	r3, [fp, #-28]	; 0xffffffe4
820078c4:	e51b3018 	ldr	r3, [fp, #-24]	; 0xffffffe8
820078c8:	e50b300c 	str	r3, [fp, #-12]
820078cc:	e3093ecc 	movw	r3, #40652	; 0x9ecc
820078d0:	e3483200 	movt	r3, #33280	; 0x8200
820078d4:	e5933000 	ldr	r3, [r3]
820078d8:	e2832001 	add	r2, r3, #1
820078dc:	e3093ecc 	movw	r3, #40652	; 0x9ecc
820078e0:	e3483200 	movt	r3, #33280	; 0x8200
820078e4:	e5832000 	str	r2, [r3]
820078e8:	e3093ecc 	movw	r3, #40652	; 0x9ecc
820078ec:	e3483200 	movt	r3, #33280	; 0x8200
820078f0:	e5932000 	ldr	r2, [r3]
820078f4:	e51b3010 	ldr	r3, [fp, #-16]
820078f8:	e5832014 	str	r2, [r3, #20]
820078fc:	e51b3010 	ldr	r3, [fp, #-16]
82007900:	e51b201c 	ldr	r2, [fp, #-28]	; 0xffffffe4
82007904:	e5832020 	str	r2, [r3, #32]
82007908:	e51b3010 	ldr	r3, [fp, #-16]
8200790c:	e51b200c 	ldr	r2, [fp, #-12]
82007910:	e5832008 	str	r2, [r3, #8]
82007914:	e51b3010 	ldr	r3, [fp, #-16]
82007918:	e5933008 	ldr	r3, [r3, #8]
8200791c:	e2833eff 	add	r3, r3, #4080	; 0xff0
82007920:	e283300c 	add	r3, r3, #12
82007924:	e51b2010 	ldr	r2, [fp, #-16]
82007928:	e582300c 	str	r3, [r2, #12]
8200792c:	e51b3010 	ldr	r3, [fp, #-16]
82007930:	e593300c 	ldr	r3, [r3, #12]
82007934:	e243203c 	sub	r2, r3, #60	; 0x3c
82007938:	e51b3010 	ldr	r3, [fp, #-16]
8200793c:	e583201c 	str	r2, [r3, #28]
82007940:	e51b3010 	ldr	r3, [fp, #-16]
82007944:	e593301c 	ldr	r3, [r3, #28]
82007948:	e51b2014 	ldr	r2, [fp, #-20]	; 0xffffffec
8200794c:	e5832024 	str	r2, [r3, #36]	; 0x24
82007950:	e51b3010 	ldr	r3, [fp, #-16]
82007954:	e51b2014 	ldr	r2, [fp, #-20]	; 0xffffffec
82007958:	e5832010 	str	r2, [r3, #16]
8200795c:	e51b3010 	ldr	r3, [fp, #-16]
82007960:	e3a02001 	mov	r2, #1
82007964:	e5832018 	str	r2, [r3, #24]
82007968:	e3a03000 	mov	r3, #0
8200796c:	e50b3008 	str	r3, [fp, #-8]
82007970:	ea000009 	b	8200799c <taskCreate+0xf4>
82007974:	e51b2010 	ldr	r2, [fp, #-16]
82007978:	e51b3008 	ldr	r3, [fp, #-8]
8200797c:	e2833008 	add	r3, r3, #8
82007980:	e1a03103 	lsl	r3, r3, #2
82007984:	e0823003 	add	r3, r2, r3
82007988:	e3a02000 	mov	r2, #0
8200798c:	e5832004 	str	r2, [r3, #4]
82007990:	e51b3008 	ldr	r3, [fp, #-8]
82007994:	e2833001 	add	r3, r3, #1
82007998:	e50b3008 	str	r3, [fp, #-8]
8200799c:	e51b3008 	ldr	r3, [fp, #-8]
820079a0:	e3530007 	cmp	r3, #7
820079a4:	dafffff2 	ble	82007974 <taskCreate+0xcc>
820079a8:	e51b3010 	ldr	r3, [fp, #-16]
820079ac:	e3a02000 	mov	r2, #0
820079b0:	e5832044 	str	r2, [r3, #68]	; 0x44
820079b4:	e51b3010 	ldr	r3, [fp, #-16]
820079b8:	e5933014 	ldr	r3, [r3, #20]
820079bc:	e1a00003 	mov	r0, r3
820079c0:	e28bd000 	add	sp, fp, #0
820079c4:	e49db004 	pop	{fp}		; (ldr fp, [sp], #4)
820079c8:	e12fff1e 	bx	lr

820079cc <do_ktaskCreate>:
820079cc:	e92d4800 	push	{fp, lr}
820079d0:	e28db004 	add	fp, sp, #4
820079d4:	e24dd010 	sub	sp, sp, #16
820079d8:	e50b0010 	str	r0, [fp, #-16]
820079dc:	e50b1014 	str	r1, [fp, #-20]	; 0xffffffec
820079e0:	ebffed8e 	bl	82003020 <page_alloc>
820079e4:	e50b0008 	str	r0, [fp, #-8]
820079e8:	e51b3008 	ldr	r3, [fp, #-8]
820079ec:	e3a02003 	mov	r2, #3
820079f0:	e5832008 	str	r2, [r3, #8]
820079f4:	e51b3008 	ldr	r3, [fp, #-8]
820079f8:	e5933010 	ldr	r3, [r3, #16]
820079fc:	e3a02a01 	mov	r2, #4096	; 0x1000
82007a00:	e3a01000 	mov	r1, #0
82007a04:	e1a00003 	mov	r0, r3
82007a08:	ebffec6b 	bl	82002bbc <_memset>
82007a0c:	e51b3008 	ldr	r3, [fp, #-8]
82007a10:	e5933010 	ldr	r3, [r3, #16]
82007a14:	e50b300c 	str	r3, [fp, #-12]
82007a18:	e51b3008 	ldr	r3, [fp, #-8]
82007a1c:	e5932010 	ldr	r2, [r3, #16]
82007a20:	e51b3010 	ldr	r3, [fp, #-16]
82007a24:	e51b1014 	ldr	r1, [fp, #-20]	; 0xffffffec
82007a28:	e51b000c 	ldr	r0, [fp, #-12]
82007a2c:	ebffff9d 	bl	820078a8 <taskCreate>
82007a30:	e51b0008 	ldr	r0, [fp, #-8]
82007a34:	ebffee81 	bl	82003440 <blks_init>
82007a38:	e51b000c 	ldr	r0, [fp, #-12]
82007a3c:	eb000029 	bl	82007ae8 <open_console_in_out>
82007a40:	e3093ed4 	movw	r3, #40660	; 0x9ed4
82007a44:	e3483200 	movt	r3, #33280	; 0x8200
82007a48:	e5932000 	ldr	r2, [r3]
82007a4c:	e51b300c 	ldr	r3, [fp, #-12]
82007a50:	e5832044 	str	r2, [r3, #68]	; 0x44
82007a54:	e51b000c 	ldr	r0, [fp, #-12]
82007a58:	eb00003d 	bl	82007b54 <task_enqueue>
82007a5c:	e51b3008 	ldr	r3, [fp, #-8]
82007a60:	e5932010 	ldr	r2, [r3, #16]
82007a64:	e51b3008 	ldr	r3, [fp, #-8]
82007a68:	e5933018 	ldr	r3, [r3, #24]
82007a6c:	e1a01003 	mov	r1, r3
82007a70:	e1a00002 	mov	r0, r2
82007a74:	ebfff339 	bl	82004760 <task_pgt_setup>
82007a78:	e1a02000 	mov	r2, r0
82007a7c:	e51b300c 	ldr	r3, [fp, #-12]
82007a80:	e5832048 	str	r2, [r3, #72]	; 0x48
82007a84:	e320f000 	nop	{0}
82007a88:	e1a00003 	mov	r0, r3
82007a8c:	e24bd004 	sub	sp, fp, #4
82007a90:	e8bd8800 	pop	{fp, pc}

82007a94 <set_page_free_start>:
82007a94:	e52db004 	push	{fp}		; (str fp, [sp, #-4]!)
82007a98:	e28db000 	add	fp, sp, #0
82007a9c:	e24dd00c 	sub	sp, sp, #12
82007aa0:	e50b0008 	str	r0, [fp, #-8]
82007aa4:	e50b100c 	str	r1, [fp, #-12]
82007aa8:	e51b300c 	ldr	r3, [fp, #-12]
82007aac:	e593301c 	ldr	r3, [r3, #28]
82007ab0:	e1a02003 	mov	r2, r3
82007ab4:	e51b3008 	ldr	r3, [fp, #-8]
82007ab8:	e0823003 	add	r3, r2, r3
82007abc:	e1a02003 	mov	r2, r3
82007ac0:	e51b300c 	ldr	r3, [fp, #-12]
82007ac4:	e583201c 	str	r2, [r3, #28]
82007ac8:	e51b300c 	ldr	r3, [fp, #-12]
82007acc:	e593201c 	ldr	r2, [r3, #28]
82007ad0:	e51b300c 	ldr	r3, [fp, #-12]
82007ad4:	e5832020 	str	r2, [r3, #32]
82007ad8:	e320f000 	nop	{0}
82007adc:	e28bd000 	add	sp, fp, #0
82007ae0:	e49db004 	pop	{fp}		; (ldr fp, [sp], #4)
82007ae4:	e12fff1e 	bx	lr

82007ae8 <open_console_in_out>:
82007ae8:	e92d4800 	push	{fp, lr}
82007aec:	e28db004 	add	fp, sp, #4
82007af0:	e24dd008 	sub	sp, sp, #8
82007af4:	e50b0008 	str	r0, [fp, #-8]
82007af8:	e51b1008 	ldr	r1, [fp, #-8]
82007afc:	e3090d78 	movw	r0, #40312	; 0x9d78
82007b00:	e3480200 	movt	r0, #33280	; 0x8200
82007b04:	ebffe77b 	bl	820018f8 <file_open>
82007b08:	e1a03000 	mov	r3, r0
82007b0c:	e3530000 	cmp	r3, #0
82007b10:	aa000002 	bge	82007b20 <open_console_in_out+0x38>
82007b14:	e3090d88 	movw	r0, #40328	; 0x9d88
82007b18:	e3480200 	movt	r0, #33280	; 0x8200
82007b1c:	ebfff448 	bl	82004c44 <printk>
82007b20:	e51b1008 	ldr	r1, [fp, #-8]
82007b24:	e3090da8 	movw	r0, #40360	; 0x9da8
82007b28:	e3480200 	movt	r0, #33280	; 0x8200
82007b2c:	ebffe771 	bl	820018f8 <file_open>
82007b30:	e1a03000 	mov	r3, r0
82007b34:	e3530000 	cmp	r3, #0
82007b38:	aa000002 	bge	82007b48 <open_console_in_out+0x60>
82007b3c:	e3090db8 	movw	r0, #40376	; 0x9db8
82007b40:	e3480200 	movt	r0, #33280	; 0x8200
82007b44:	ebfff43e 	bl	82004c44 <printk>
82007b48:	e320f000 	nop	{0}
82007b4c:	e24bd004 	sub	sp, fp, #4
82007b50:	e8bd8800 	pop	{fp, pc}

82007b54 <task_enqueue>:
82007b54:	e52db004 	push	{fp}		; (str fp, [sp, #-4]!)
82007b58:	e28db000 	add	fp, sp, #0
82007b5c:	e24dd014 	sub	sp, sp, #20
82007b60:	e50b0010 	str	r0, [fp, #-16]
82007b64:	e51b3010 	ldr	r3, [fp, #-16]
82007b68:	e5932020 	ldr	r2, [r3, #32]
82007b6c:	e30a3834 	movw	r3, #43060	; 0xa834
82007b70:	e3483200 	movt	r3, #33280	; 0x8200
82007b74:	e7933102 	ldr	r3, [r3, r2, lsl #2]
82007b78:	e3530000 	cmp	r3, #0
82007b7c:	1a00000c 	bne	82007bb4 <task_enqueue+0x60>
82007b80:	e51b3010 	ldr	r3, [fp, #-16]
82007b84:	e3a02000 	mov	r2, #0
82007b88:	e5832000 	str	r2, [r3]
82007b8c:	e51b3010 	ldr	r3, [fp, #-16]
82007b90:	e3a02000 	mov	r2, #0
82007b94:	e5832004 	str	r2, [r3, #4]
82007b98:	e51b3010 	ldr	r3, [fp, #-16]
82007b9c:	e5932020 	ldr	r2, [r3, #32]
82007ba0:	e30a3834 	movw	r3, #43060	; 0xa834
82007ba4:	e3483200 	movt	r3, #33280	; 0x8200
82007ba8:	e51b1010 	ldr	r1, [fp, #-16]
82007bac:	e7831102 	str	r1, [r3, r2, lsl #2]
82007bb0:	ea000018 	b	82007c18 <task_enqueue+0xc4>
82007bb4:	e51b3010 	ldr	r3, [fp, #-16]
82007bb8:	e5932020 	ldr	r2, [r3, #32]
82007bbc:	e30a3834 	movw	r3, #43060	; 0xa834
82007bc0:	e3483200 	movt	r3, #33280	; 0x8200
82007bc4:	e7933102 	ldr	r3, [r3, r2, lsl #2]
82007bc8:	e50b3008 	str	r3, [fp, #-8]
82007bcc:	ea000002 	b	82007bdc <task_enqueue+0x88>
82007bd0:	e51b3008 	ldr	r3, [fp, #-8]
82007bd4:	e5933000 	ldr	r3, [r3]
82007bd8:	e50b3008 	str	r3, [fp, #-8]
82007bdc:	e51b3008 	ldr	r3, [fp, #-8]
82007be0:	e5933000 	ldr	r3, [r3]
82007be4:	e3530000 	cmp	r3, #0
82007be8:	1afffff8 	bne	82007bd0 <task_enqueue+0x7c>
82007bec:	e51b3008 	ldr	r3, [fp, #-8]
82007bf0:	e50b300c 	str	r3, [fp, #-12]
82007bf4:	e51b300c 	ldr	r3, [fp, #-12]
82007bf8:	e51b2010 	ldr	r2, [fp, #-16]
82007bfc:	e5832000 	str	r2, [r3]
82007c00:	e51b3010 	ldr	r3, [fp, #-16]
82007c04:	e51b200c 	ldr	r2, [fp, #-12]
82007c08:	e5832004 	str	r2, [r3, #4]
82007c0c:	e51b3010 	ldr	r3, [fp, #-16]
82007c10:	e3a02000 	mov	r2, #0
82007c14:	e5832000 	str	r2, [r3]
82007c18:	e28bd000 	add	sp, fp, #0
82007c1c:	e49db004 	pop	{fp}		; (ldr fp, [sp], #4)
82007c20:	e12fff1e 	bx	lr

82007c24 <task_dequeue>:
82007c24:	e92d4800 	push	{fp, lr}
82007c28:	e28db004 	add	fp, sp, #4
82007c2c:	e24dd018 	sub	sp, sp, #24
82007c30:	e50b0018 	str	r0, [fp, #-24]	; 0xffffffe8
82007c34:	e30a3834 	movw	r3, #43060	; 0xa834
82007c38:	e3483200 	movt	r3, #33280	; 0x8200
82007c3c:	e51b2018 	ldr	r2, [fp, #-24]	; 0xffffffe8
82007c40:	e7933102 	ldr	r3, [r3, r2, lsl #2]
82007c44:	e3530000 	cmp	r3, #0
82007c48:	1a000004 	bne	82007c60 <task_dequeue+0x3c>
82007c4c:	e3090dd8 	movw	r0, #40408	; 0x9dd8
82007c50:	e3480200 	movt	r0, #33280	; 0x8200
82007c54:	ebfff3fa 	bl	82004c44 <printk>
82007c58:	e3a03000 	mov	r3, #0
82007c5c:	ea000026 	b	82007cfc <task_dequeue+0xd8>
82007c60:	e30a3834 	movw	r3, #43060	; 0xa834
82007c64:	e3483200 	movt	r3, #33280	; 0x8200
82007c68:	e51b2018 	ldr	r2, [fp, #-24]	; 0xffffffe8
82007c6c:	e7933102 	ldr	r3, [r3, r2, lsl #2]
82007c70:	e5933000 	ldr	r3, [r3]
82007c74:	e3530000 	cmp	r3, #0
82007c78:	1a00000b 	bne	82007cac <task_dequeue+0x88>
82007c7c:	e30a3834 	movw	r3, #43060	; 0xa834
82007c80:	e3483200 	movt	r3, #33280	; 0x8200
82007c84:	e51b2018 	ldr	r2, [fp, #-24]	; 0xffffffe8
82007c88:	e7933102 	ldr	r3, [r3, r2, lsl #2]
82007c8c:	e50b3010 	str	r3, [fp, #-16]
82007c90:	e30a3834 	movw	r3, #43060	; 0xa834
82007c94:	e3483200 	movt	r3, #33280	; 0x8200
82007c98:	e51b2018 	ldr	r2, [fp, #-24]	; 0xffffffe8
82007c9c:	e3a01000 	mov	r1, #0
82007ca0:	e7831102 	str	r1, [r3, r2, lsl #2]
82007ca4:	e51b3010 	ldr	r3, [fp, #-16]
82007ca8:	ea000013 	b	82007cfc <task_dequeue+0xd8>
82007cac:	e30a3834 	movw	r3, #43060	; 0xa834
82007cb0:	e3483200 	movt	r3, #33280	; 0x8200
82007cb4:	e51b2018 	ldr	r2, [fp, #-24]	; 0xffffffe8
82007cb8:	e7933102 	ldr	r3, [r3, r2, lsl #2]
82007cbc:	e50b3008 	str	r3, [fp, #-8]
82007cc0:	e51b3008 	ldr	r3, [fp, #-8]
82007cc4:	e5933000 	ldr	r3, [r3]
82007cc8:	e50b300c 	str	r3, [fp, #-12]
82007ccc:	e51b300c 	ldr	r3, [fp, #-12]
82007cd0:	e3a02000 	mov	r2, #0
82007cd4:	e5832004 	str	r2, [r3, #4]
82007cd8:	e30a3834 	movw	r3, #43060	; 0xa834
82007cdc:	e3483200 	movt	r3, #33280	; 0x8200
82007ce0:	e51b2018 	ldr	r2, [fp, #-24]	; 0xffffffe8
82007ce4:	e51b100c 	ldr	r1, [fp, #-12]
82007ce8:	e7831102 	str	r1, [r3, r2, lsl #2]
82007cec:	e51b3008 	ldr	r3, [fp, #-8]
82007cf0:	e3a02000 	mov	r2, #0
82007cf4:	e5832000 	str	r2, [r3]
82007cf8:	e51b3008 	ldr	r3, [fp, #-8]
82007cfc:	e1a00003 	mov	r0, r3
82007d00:	e24bd004 	sub	sp, fp, #4
82007d04:	e8bd8800 	pop	{fp, pc}

82007d08 <task_pop>:
82007d08:	e92d4800 	push	{fp, lr}
82007d0c:	e28db004 	add	fp, sp, #4
82007d10:	e24dd010 	sub	sp, sp, #16
82007d14:	e50b0010 	str	r0, [fp, #-16]
82007d18:	e51b3010 	ldr	r3, [fp, #-16]
82007d1c:	e3530000 	cmp	r3, #0
82007d20:	0a00002d 	beq	82007ddc <task_pop+0xd4>
82007d24:	e51b3010 	ldr	r3, [fp, #-16]
82007d28:	e5933000 	ldr	r3, [r3]
82007d2c:	e3530000 	cmp	r3, #0
82007d30:	1a000029 	bne	82007ddc <task_pop+0xd4>
82007d34:	e51b3010 	ldr	r3, [fp, #-16]
82007d38:	e5932020 	ldr	r2, [r3, #32]
82007d3c:	e30a3834 	movw	r3, #43060	; 0xa834
82007d40:	e3483200 	movt	r3, #33280	; 0x8200
82007d44:	e7933102 	ldr	r3, [r3, r2, lsl #2]
82007d48:	e3530000 	cmp	r3, #0
82007d4c:	1a000003 	bne	82007d60 <task_pop+0x58>
82007d50:	e3090dd8 	movw	r0, #40408	; 0x9dd8
82007d54:	e3480200 	movt	r0, #33280	; 0x8200
82007d58:	ebfff3b9 	bl	82004c44 <printk>
82007d5c:	ea00001f 	b	82007de0 <task_pop+0xd8>
82007d60:	e51b3010 	ldr	r3, [fp, #-16]
82007d64:	e5932020 	ldr	r2, [r3, #32]
82007d68:	e30a3834 	movw	r3, #43060	; 0xa834
82007d6c:	e3483200 	movt	r3, #33280	; 0x8200
82007d70:	e7933102 	ldr	r3, [r3, r2, lsl #2]
82007d74:	e5933000 	ldr	r3, [r3]
82007d78:	e3530000 	cmp	r3, #0
82007d7c:	1a000009 	bne	82007da8 <task_pop+0xa0>
82007d80:	e3090df0 	movw	r0, #40432	; 0x9df0
82007d84:	e3480200 	movt	r0, #33280	; 0x8200
82007d88:	ebfff3ad 	bl	82004c44 <printk>
82007d8c:	e51b3010 	ldr	r3, [fp, #-16]
82007d90:	e5932020 	ldr	r2, [r3, #32]
82007d94:	e30a3834 	movw	r3, #43060	; 0xa834
82007d98:	e3483200 	movt	r3, #33280	; 0x8200
82007d9c:	e3a01000 	mov	r1, #0
82007da0:	e7831102 	str	r1, [r3, r2, lsl #2]
82007da4:	ea00000d 	b	82007de0 <task_pop+0xd8>
82007da8:	e51b3010 	ldr	r3, [fp, #-16]
82007dac:	e5933004 	ldr	r3, [r3, #4]
82007db0:	e50b3008 	str	r3, [fp, #-8]
82007db4:	e51b3008 	ldr	r3, [fp, #-8]
82007db8:	e3a02000 	mov	r2, #0
82007dbc:	e5832000 	str	r2, [r3]
82007dc0:	e51b3010 	ldr	r3, [fp, #-16]
82007dc4:	e3a02000 	mov	r2, #0
82007dc8:	e5832000 	str	r2, [r3]
82007dcc:	e51b3010 	ldr	r3, [fp, #-16]
82007dd0:	e3a02000 	mov	r2, #0
82007dd4:	e5832004 	str	r2, [r3, #4]
82007dd8:	ea000000 	b	82007de0 <task_pop+0xd8>
82007ddc:	e320f000 	nop	{0}
82007de0:	e24bd004 	sub	sp, fp, #4
82007de4:	e8bd8800 	pop	{fp, pc}

82007de8 <print_task_id_from_head>:
82007de8:	e92d4800 	push	{fp, lr}
82007dec:	e28db004 	add	fp, sp, #4
82007df0:	e24dd010 	sub	sp, sp, #16
82007df4:	e50b0010 	str	r0, [fp, #-16]
82007df8:	e30a3834 	movw	r3, #43060	; 0xa834
82007dfc:	e3483200 	movt	r3, #33280	; 0x8200
82007e00:	e51b2010 	ldr	r2, [fp, #-16]
82007e04:	e7933102 	ldr	r3, [r3, r2, lsl #2]
82007e08:	e3530000 	cmp	r3, #0
82007e0c:	1a000003 	bne	82007e20 <print_task_id_from_head+0x38>
82007e10:	e3090dd8 	movw	r0, #40408	; 0x9dd8
82007e14:	e3480200 	movt	r0, #33280	; 0x8200
82007e18:	ebfff389 	bl	82004c44 <printk>
82007e1c:	ea000018 	b	82007e84 <print_task_id_from_head+0x9c>
82007e20:	e30a3834 	movw	r3, #43060	; 0xa834
82007e24:	e3483200 	movt	r3, #33280	; 0x8200
82007e28:	e51b2010 	ldr	r2, [fp, #-16]
82007e2c:	e7933102 	ldr	r3, [r3, r2, lsl #2]
82007e30:	e50b3008 	str	r3, [fp, #-8]
82007e34:	ea000008 	b	82007e5c <print_task_id_from_head+0x74>
82007e38:	e51b3008 	ldr	r3, [fp, #-8]
82007e3c:	e5933014 	ldr	r3, [r3, #20]
82007e40:	e1a01003 	mov	r1, r3
82007e44:	e3090e00 	movw	r0, #40448	; 0x9e00
82007e48:	e3480200 	movt	r0, #33280	; 0x8200
82007e4c:	ebfff37c 	bl	82004c44 <printk>
82007e50:	e51b3008 	ldr	r3, [fp, #-8]
82007e54:	e5933000 	ldr	r3, [r3]
82007e58:	e50b3008 	str	r3, [fp, #-8]
82007e5c:	e51b3008 	ldr	r3, [fp, #-8]
82007e60:	e5933000 	ldr	r3, [r3]
82007e64:	e3530000 	cmp	r3, #0
82007e68:	1afffff2 	bne	82007e38 <print_task_id_from_head+0x50>
82007e6c:	e51b3008 	ldr	r3, [fp, #-8]
82007e70:	e5933014 	ldr	r3, [r3, #20]
82007e74:	e1a01003 	mov	r1, r3
82007e78:	e3090e10 	movw	r0, #40464	; 0x9e10
82007e7c:	e3480200 	movt	r0, #33280	; 0x8200
82007e80:	ebfff36f 	bl	82004c44 <printk>
82007e84:	e24bd004 	sub	sp, fp, #4
82007e88:	e8bd8800 	pop	{fp, pc}

82007e8c <print_task_addr_from_head>:
82007e8c:	e92d4800 	push	{fp, lr}
82007e90:	e28db004 	add	fp, sp, #4
82007e94:	e24dd010 	sub	sp, sp, #16
82007e98:	e50b0010 	str	r0, [fp, #-16]
82007e9c:	e30a3834 	movw	r3, #43060	; 0xa834
82007ea0:	e3483200 	movt	r3, #33280	; 0x8200
82007ea4:	e51b2010 	ldr	r2, [fp, #-16]
82007ea8:	e7933102 	ldr	r3, [r3, r2, lsl #2]
82007eac:	e3530000 	cmp	r3, #0
82007eb0:	1a000003 	bne	82007ec4 <print_task_addr_from_head+0x38>
82007eb4:	e3090dd8 	movw	r0, #40408	; 0x9dd8
82007eb8:	e3480200 	movt	r0, #33280	; 0x8200
82007ebc:	ebfff360 	bl	82004c44 <printk>
82007ec0:	ea00001d 	b	82007f3c <print_task_addr_from_head+0xb0>
82007ec4:	e30a3834 	movw	r3, #43060	; 0xa834
82007ec8:	e3483200 	movt	r3, #33280	; 0x8200
82007ecc:	e51b2010 	ldr	r2, [fp, #-16]
82007ed0:	e7933102 	ldr	r3, [r3, r2, lsl #2]
82007ed4:	e50b3008 	str	r3, [fp, #-8]
82007ed8:	e51b3010 	ldr	r3, [fp, #-16]
82007edc:	e1a02103 	lsl	r2, r3, #2
82007ee0:	e30a3834 	movw	r3, #43060	; 0xa834
82007ee4:	e3483200 	movt	r3, #33280	; 0x8200
82007ee8:	e0823003 	add	r3, r2, r3
82007eec:	e1a01003 	mov	r1, r3
82007ef0:	e3090e24 	movw	r0, #40484	; 0x9e24
82007ef4:	e3480200 	movt	r0, #33280	; 0x8200
82007ef8:	ebfff351 	bl	82004c44 <printk>
82007efc:	ea000006 	b	82007f1c <print_task_addr_from_head+0x90>
82007f00:	e51b1008 	ldr	r1, [fp, #-8]
82007f04:	e3090e4c 	movw	r0, #40524	; 0x9e4c
82007f08:	e3480200 	movt	r0, #33280	; 0x8200
82007f0c:	ebfff34c 	bl	82004c44 <printk>
82007f10:	e51b3008 	ldr	r3, [fp, #-8]
82007f14:	e5933000 	ldr	r3, [r3]
82007f18:	e50b3008 	str	r3, [fp, #-8]
82007f1c:	e51b3008 	ldr	r3, [fp, #-8]
82007f20:	e5933000 	ldr	r3, [r3]
82007f24:	e3530000 	cmp	r3, #0
82007f28:	1afffff4 	bne	82007f00 <print_task_addr_from_head+0x74>
82007f2c:	e51b1008 	ldr	r1, [fp, #-8]
82007f30:	e3090e60 	movw	r0, #40544	; 0x9e60
82007f34:	e3480200 	movt	r0, #33280	; 0x8200
82007f38:	ebfff341 	bl	82004c44 <printk>
82007f3c:	e24bd004 	sub	sp, fp, #4
82007f40:	e8bd8800 	pop	{fp, pc}

82007f44 <first_run>:
82007f44:	e10fa000 	mrs	sl, CPSR
82007f48:	e3caa01f 	bic	sl, sl, #31
82007f4c:	e38aa01f 	orr	sl, sl, #31
82007f50:	e38aa0c0 	orr	sl, sl, #192	; 0xc0
82007f54:	e129f00a 	msr	CPSR_fc, sl
82007f58:	e1a0d000 	mov	sp, r0
82007f5c:	e8bd5fff 	pop	{r0, r1, r2, r3, r4, r5, r6, r7, r8, r9, sl, fp, ip, lr}
82007f60:	e92d5fff 	push	{r0, r1, r2, r3, r4, r5, r6, r7, r8, r9, sl, fp, ip, lr}
82007f64:	e3a00005 	mov	r0, #5
82007f68:	eb000068 	bl	82008110 <reloadOsTick>
82007f6c:	e8bd5fff 	pop	{r0, r1, r2, r3, r4, r5, r6, r7, r8, r9, sl, fp, ip, lr}
82007f70:	e321f010 	msr	CPSR_c, #16
82007f74:	e12fff19 	bx	r9

82007f78 <switch_task>:
82007f78:	e14fc000 	mrs	ip, SPSR
82007f7c:	e92d5ff0 	push	{r4, r5, r6, r7, r8, r9, sl, fp, ip, lr}
82007f80:	e10fa000 	mrs	sl, CPSR
82007f84:	e3caa01f 	bic	sl, sl, #31
82007f88:	e38aa01f 	orr	sl, sl, #31
82007f8c:	e38aa0c0 	orr	sl, sl, #192	; 0xc0
82007f90:	e129f00a 	msr	CPSR_fc, sl
82007f94:	e1a0d000 	mov	sp, r0
82007f98:	e8bd5fff 	pop	{r0, r1, r2, r3, r4, r5, r6, r7, r8, r9, sl, fp, ip, lr}
82007f9c:	e92d5fff 	push	{r0, r1, r2, r3, r4, r5, r6, r7, r8, r9, sl, fp, ip, lr}
82007fa0:	e3a00005 	mov	r0, #5
82007fa4:	eb000059 	bl	82008110 <reloadOsTick>
82007fa8:	e8bd5fff 	pop	{r0, r1, r2, r3, r4, r5, r6, r7, r8, r9, sl, fp, ip, lr}
82007fac:	e129f00c 	msr	CPSR_fc, ip
82007fb0:	e12fff19 	bx	r9

82007fb4 <set_context_sp>:
82007fb4:	e92d5ffe 	push	{r1, r2, r3, r4, r5, r6, r7, r8, r9, sl, fp, ip, lr}
82007fb8:	e10fa000 	mrs	sl, CPSR
82007fbc:	e3caa01f 	bic	sl, sl, #31
82007fc0:	e38aa01f 	orr	sl, sl, #31
82007fc4:	e38aa0c0 	orr	sl, sl, #192	; 0xc0
82007fc8:	e129f00a 	msr	CPSR_fc, sl
82007fcc:	e1a0d000 	mov	sp, r0
82007fd0:	e10fa000 	mrs	sl, CPSR
82007fd4:	e3caa01f 	bic	sl, sl, #31
82007fd8:	e38aa013 	orr	sl, sl, #19
82007fdc:	e38aa0c0 	orr	sl, sl, #192	; 0xc0
82007fe0:	e129f00a 	msr	CPSR_fc, sl
82007fe4:	e8bd5ffe 	pop	{r1, r2, r3, r4, r5, r6, r7, r8, r9, sl, fp, ip, lr}
82007fe8:	e1a0f00e 	mov	pc, lr

82007fec <call_sched>:
82007fec:	e1a0d000 	mov	sp, r0
82007ff0:	e8bd5fff 	pop	{r0, r1, r2, r3, r4, r5, r6, r7, r8, r9, sl, fp, ip, lr}
82007ff4:	e12fff1e 	bx	lr

82007ff8 <timer_init>:
82007ff8:	e92d4800 	push	{fp, lr}
82007ffc:	e28db004 	add	fp, sp, #4
82008000:	e24dd008 	sub	sp, sp, #8
82008004:	e50b0008 	str	r0, [fp, #-8]
82008008:	e50b100c 	str	r1, [fp, #-12]
8200800c:	e3a03000 	mov	r3, #0
82008010:	e34434e0 	movt	r3, #17632	; 0x44e0
82008014:	e5932080 	ldr	r2, [r3, #128]	; 0x80
82008018:	e3a03000 	mov	r3, #0
8200801c:	e34434e0 	movt	r3, #17632	; 0x44e0
82008020:	e3822002 	orr	r2, r2, #2
82008024:	e5832080 	str	r2, [r3, #128]	; 0x80
82008028:	e51b3008 	ldr	r3, [fp, #-8]
8200802c:	e3a02002 	mov	r2, #2
82008030:	e583202c 	str	r2, [r3, #44]	; 0x2c
82008034:	e51b3008 	ldr	r3, [fp, #-8]
82008038:	e3a02002 	mov	r2, #2
8200803c:	e5832038 	str	r2, [r3, #56]	; 0x38
82008040:	e51b300c 	ldr	r3, [fp, #-12]
82008044:	e1a02783 	lsl	r2, r3, #15
82008048:	e3043dd3 	movw	r3, #19923	; 0x4dd3
8200804c:	e3413062 	movt	r3, #4194	; 0x1062
82008050:	e0832293 	umull	r2, r3, r3, r2
82008054:	e1a03323 	lsr	r3, r3, #6
82008058:	e1e02003 	mvn	r2, r3
8200805c:	e51b3008 	ldr	r3, [fp, #-8]
82008060:	e5832040 	str	r2, [r3, #64]	; 0x40
82008064:	e51b300c 	ldr	r3, [fp, #-12]
82008068:	e1a02783 	lsl	r2, r3, #15
8200806c:	e3043dd3 	movw	r3, #19923	; 0x4dd3
82008070:	e3413062 	movt	r3, #4194	; 0x1062
82008074:	e0832293 	umull	r2, r3, r3, r2
82008078:	e1a03323 	lsr	r3, r3, #6
8200807c:	e1e02003 	mvn	r2, r3
82008080:	e51b3008 	ldr	r3, [fp, #-8]
82008084:	e583203c 	str	r2, [r3, #60]	; 0x3c
82008088:	e3a00ffa 	mov	r0, #1000	; 0x3e8
8200808c:	eb000078 	bl	82008274 <delay>
82008090:	e51b3008 	ldr	r3, [fp, #-8]
82008094:	e5933038 	ldr	r3, [r3, #56]	; 0x38
82008098:	e3832001 	orr	r2, r3, #1
8200809c:	e51b3008 	ldr	r3, [fp, #-8]
820080a0:	e5832038 	str	r2, [r3, #56]	; 0x38
820080a4:	e320f000 	nop	{0}
820080a8:	e24bd004 	sub	sp, fp, #4
820080ac:	e8bd8800 	pop	{fp, pc}

820080b0 <OsTickInit>:
820080b0:	e92d4800 	push	{fp, lr}
820080b4:	e28db004 	add	fp, sp, #4
820080b8:	e24dd008 	sub	sp, sp, #8
820080bc:	e50b0008 	str	r0, [fp, #-8]
820080c0:	e51b3008 	ldr	r3, [fp, #-8]
820080c4:	e3a02002 	mov	r2, #2
820080c8:	e583202c 	str	r2, [r3, #44]	; 0x2c
820080cc:	e51b3008 	ldr	r3, [fp, #-8]
820080d0:	e3a02002 	mov	r2, #2
820080d4:	e5832038 	str	r2, [r3, #56]	; 0x38
820080d8:	e51b2008 	ldr	r2, [fp, #-8]
820080dc:	e30f3333 	movw	r3, #62259	; 0xf333
820080e0:	e34f3fff 	movt	r3, #65535	; 0xffff
820080e4:	e5823040 	str	r3, [r2, #64]	; 0x40
820080e8:	e3a00ffa 	mov	r0, #1000	; 0x3e8
820080ec:	eb000060 	bl	82008274 <delay>
820080f0:	e51b3008 	ldr	r3, [fp, #-8]
820080f4:	e5933038 	ldr	r3, [r3, #56]	; 0x38
820080f8:	e3832001 	orr	r2, r3, #1
820080fc:	e51b3008 	ldr	r3, [fp, #-8]
82008100:	e5832038 	str	r2, [r3, #56]	; 0x38
82008104:	e320f000 	nop	{0}
82008108:	e24bd004 	sub	sp, fp, #4
8200810c:	e8bd8800 	pop	{fp, pc}

82008110 <reloadOsTick>:
82008110:	e52db004 	push	{fp}		; (str fp, [sp, #-4]!)
82008114:	e28db000 	add	fp, sp, #0
82008118:	e24dd00c 	sub	sp, sp, #12
8200811c:	e50b0008 	str	r0, [fp, #-8]
82008120:	e51b3008 	ldr	r3, [fp, #-8]
82008124:	e1a02783 	lsl	r2, r3, #15
82008128:	e3043dd3 	movw	r3, #19923	; 0x4dd3
8200812c:	e3413062 	movt	r3, #4194	; 0x1062
82008130:	e0832293 	umull	r2, r3, r3, r2
82008134:	e1a02323 	lsr	r2, r3, #6
82008138:	e3a03a05 	mov	r3, #20480	; 0x5000
8200813c:	e34434e0 	movt	r3, #17632	; 0x44e0
82008140:	e1e02002 	mvn	r2, r2
82008144:	e583203c 	str	r2, [r3, #60]	; 0x3c
82008148:	e320f000 	nop	{0}
8200814c:	e28bd000 	add	sp, fp, #0
82008150:	e49db004 	pop	{fp}		; (ldr fp, [sp], #4)
82008154:	e12fff1e 	bx	lr

82008158 <timer_start>:
82008158:	e52db004 	push	{fp}		; (str fp, [sp, #-4]!)
8200815c:	e28db000 	add	fp, sp, #0
82008160:	e24dd00c 	sub	sp, sp, #12
82008164:	e50b0008 	str	r0, [fp, #-8]
82008168:	e51b3008 	ldr	r3, [fp, #-8]
8200816c:	e5933038 	ldr	r3, [r3, #56]	; 0x38
82008170:	e3832001 	orr	r2, r3, #1
82008174:	e51b3008 	ldr	r3, [fp, #-8]
82008178:	e5832038 	str	r2, [r3, #56]	; 0x38
8200817c:	e320f000 	nop	{0}
82008180:	e28bd000 	add	sp, fp, #0
82008184:	e49db004 	pop	{fp}		; (ldr fp, [sp], #4)
82008188:	e12fff1e 	bx	lr

8200818c <timerDisable>:
8200818c:	e52db004 	push	{fp}		; (str fp, [sp, #-4]!)
82008190:	e28db000 	add	fp, sp, #0
82008194:	e24dd00c 	sub	sp, sp, #12
82008198:	e50b0008 	str	r0, [fp, #-8]
8200819c:	e51b3008 	ldr	r3, [fp, #-8]
820081a0:	e3a02000 	mov	r2, #0
820081a4:	e5832038 	str	r2, [r3, #56]	; 0x38
820081a8:	e51b3008 	ldr	r3, [fp, #-8]
820081ac:	e3a02000 	mov	r2, #0
820081b0:	e5832040 	str	r2, [r3, #64]	; 0x40
820081b4:	e51b3008 	ldr	r3, [fp, #-8]
820081b8:	e3a02002 	mov	r2, #2
820081bc:	e5832030 	str	r2, [r3, #48]	; 0x30
820081c0:	e320f000 	nop	{0}
820081c4:	e28bd000 	add	sp, fp, #0
820081c8:	e49db004 	pop	{fp}		; (ldr fp, [sp], #4)
820081cc:	e12fff1e 	bx	lr

820081d0 <enableTimerAndBindISR>:
820081d0:	e92d4800 	push	{fp, lr}
820081d4:	e28db004 	add	fp, sp, #4
820081d8:	e24dd008 	sub	sp, sp, #8
820081dc:	e50b0008 	str	r0, [fp, #-8]
820081e0:	e50b100c 	str	r1, [fp, #-12]
820081e4:	e51b3008 	ldr	r3, [fp, #-8]
820081e8:	e6ef3073 	uxtb	r3, r3
820081ec:	e51b100c 	ldr	r1, [fp, #-12]
820081f0:	e1a00003 	mov	r0, r3
820081f4:	ebffe7e3 	bl	82002188 <irq_isr_bind>
820081f8:	e320f000 	nop	{0}
820081fc:	e24bd004 	sub	sp, fp, #4
82008200:	e8bd8800 	pop	{fp, pc}

82008204 <enableOsTick>:
82008204:	e92d4800 	push	{fp, lr}
82008208:	e28db004 	add	fp, sp, #4
8200820c:	e24dd008 	sub	sp, sp, #8
82008210:	e1a03000 	mov	r3, r0
82008214:	e54b3005 	strb	r3, [fp, #-5]
82008218:	e55b2005 	ldrb	r2, [fp, #-5]
8200821c:	e3a03c01 	mov	r3, #256	; 0x100
82008220:	e3443820 	movt	r3, #18464	; 0x4820
82008224:	e0823003 	add	r3, r2, r3
82008228:	e3a02000 	mov	r2, #0
8200822c:	e5c32000 	strb	r2, [r3]
82008230:	e55b3005 	ldrb	r3, [fp, #-5]
82008234:	e1a00003 	mov	r0, r3
82008238:	ebffe764 	bl	82001fd0 <eableINT_NUM>
8200823c:	e320f000 	nop	{0}
82008240:	e24bd004 	sub	sp, fp, #4
82008244:	e8bd8800 	pop	{fp, pc}

82008248 <disnableTimerAndUnbindISR>:
82008248:	e92d4800 	push	{fp, lr}
8200824c:	e28db004 	add	fp, sp, #4
82008250:	e24dd008 	sub	sp, sp, #8
82008254:	e50b0008 	str	r0, [fp, #-8]
82008258:	e51b3008 	ldr	r3, [fp, #-8]
8200825c:	e6ef3073 	uxtb	r3, r3
82008260:	e1a00003 	mov	r0, r3
82008264:	ebffe7de 	bl	820021e4 <irq_isr_unbind>
82008268:	e320f000 	nop	{0}
8200826c:	e24bd004 	sub	sp, fp, #4
82008270:	e8bd8800 	pop	{fp, pc}

82008274 <delay>:
82008274:	e52db004 	push	{fp}		; (str fp, [sp, #-4]!)
82008278:	e28db000 	add	fp, sp, #0
8200827c:	e24dd014 	sub	sp, sp, #20
82008280:	e50b0010 	str	r0, [fp, #-16]
82008284:	e3a03000 	mov	r3, #0
82008288:	e50b3008 	str	r3, [fp, #-8]
8200828c:	ea000002 	b	8200829c <delay+0x28>
82008290:	e51b3008 	ldr	r3, [fp, #-8]
82008294:	e2833001 	add	r3, r3, #1
82008298:	e50b3008 	str	r3, [fp, #-8]
8200829c:	e51b2008 	ldr	r2, [fp, #-8]
820082a0:	e51b3010 	ldr	r3, [fp, #-16]
820082a4:	e1520003 	cmp	r2, r3
820082a8:	3afffff8 	bcc	82008290 <delay+0x1c>
820082ac:	e320f000 	nop	{0}
820082b0:	e320f000 	nop	{0}
820082b4:	e28bd000 	add	sp, fp, #0
820082b8:	e49db004 	pop	{fp}		; (ldr fp, [sp], #4)
820082bc:	e12fff1e 	bx	lr

820082c0 <reload_watchdog>:
820082c0:	e52db004 	push	{fp}		; (str fp, [sp, #-4]!)
820082c4:	e28db000 	add	fp, sp, #0
820082c8:	e24dd00c 	sub	sp, sp, #12
820082cc:	e50b0008 	str	r0, [fp, #-8]
820082d0:	e51b3008 	ldr	r3, [fp, #-8]
820082d4:	e283302c 	add	r3, r3, #44	; 0x2c
820082d8:	e1a02003 	mov	r2, r3
820082dc:	e3a03001 	mov	r3, #1
820082e0:	e5823000 	str	r3, [r2]
820082e4:	e320f000 	nop	{0}
820082e8:	e51b3008 	ldr	r3, [fp, #-8]
820082ec:	e2833034 	add	r3, r3, #52	; 0x34
820082f0:	e5933000 	ldr	r3, [r3]
820082f4:	e2033004 	and	r3, r3, #4
820082f8:	e3530000 	cmp	r3, #0
820082fc:	1afffff9 	bne	820082e8 <reload_watchdog+0x28>
82008300:	e320f000 	nop	{0}
82008304:	e320f000 	nop	{0}
82008308:	e28bd000 	add	sp, fp, #0
8200830c:	e49db004 	pop	{fp}		; (ldr fp, [sp], #4)
82008310:	e12fff1e 	bx	lr

82008314 <disable_watchdog>:
82008314:	e52db004 	push	{fp}		; (str fp, [sp, #-4]!)
82008318:	e28db000 	add	fp, sp, #0
8200831c:	e24dd00c 	sub	sp, sp, #12
82008320:	e50b0008 	str	r0, [fp, #-8]
82008324:	e51b3008 	ldr	r3, [fp, #-8]
82008328:	e2833048 	add	r3, r3, #72	; 0x48
8200832c:	e1a02003 	mov	r2, r3
82008330:	e30a3aaa 	movw	r3, #43690	; 0xaaaa
82008334:	e5823000 	str	r3, [r2]
82008338:	e320f000 	nop	{0}
8200833c:	e51b3008 	ldr	r3, [fp, #-8]
82008340:	e2833034 	add	r3, r3, #52	; 0x34
82008344:	e5933000 	ldr	r3, [r3]
82008348:	e2033010 	and	r3, r3, #16
8200834c:	e3530000 	cmp	r3, #0
82008350:	1afffff9 	bne	8200833c <disable_watchdog+0x28>
82008354:	e51b3008 	ldr	r3, [fp, #-8]
82008358:	e2833048 	add	r3, r3, #72	; 0x48
8200835c:	e1a02003 	mov	r2, r3
82008360:	e3053555 	movw	r3, #21845	; 0x5555
82008364:	e5823000 	str	r3, [r2]
82008368:	e320f000 	nop	{0}
8200836c:	e51b3008 	ldr	r3, [fp, #-8]
82008370:	e2833034 	add	r3, r3, #52	; 0x34
82008374:	e5933000 	ldr	r3, [r3]
82008378:	e2033010 	and	r3, r3, #16
8200837c:	e3530000 	cmp	r3, #0
82008380:	1afffff9 	bne	8200836c <disable_watchdog+0x58>
82008384:	e320f000 	nop	{0}
82008388:	e320f000 	nop	{0}
8200838c:	e28bd000 	add	sp, fp, #0
82008390:	e49db004 	pop	{fp}		; (ldr fp, [sp], #4)
82008394:	e12fff1e 	bx	lr

82008398 <enable_watchdog>:
82008398:	e52db004 	push	{fp}		; (str fp, [sp, #-4]!)
8200839c:	e28db000 	add	fp, sp, #0
820083a0:	e24dd00c 	sub	sp, sp, #12
820083a4:	e50b0008 	str	r0, [fp, #-8]
820083a8:	e51b3008 	ldr	r3, [fp, #-8]
820083ac:	e2833048 	add	r3, r3, #72	; 0x48
820083b0:	e1a02003 	mov	r2, r3
820083b4:	e30b3bbb 	movw	r3, #48059	; 0xbbbb
820083b8:	e5823000 	str	r3, [r2]
820083bc:	e320f000 	nop	{0}
820083c0:	e51b3008 	ldr	r3, [fp, #-8]
820083c4:	e2833034 	add	r3, r3, #52	; 0x34
820083c8:	e5933000 	ldr	r3, [r3]
820083cc:	e2033010 	and	r3, r3, #16
820083d0:	e3530000 	cmp	r3, #0
820083d4:	1afffff9 	bne	820083c0 <enable_watchdog+0x28>
820083d8:	e51b3008 	ldr	r3, [fp, #-8]
820083dc:	e2833048 	add	r3, r3, #72	; 0x48
820083e0:	e1a02003 	mov	r2, r3
820083e4:	e3043444 	movw	r3, #17476	; 0x4444
820083e8:	e5823000 	str	r3, [r2]
820083ec:	e320f000 	nop	{0}
820083f0:	e51b3008 	ldr	r3, [fp, #-8]
820083f4:	e2833034 	add	r3, r3, #52	; 0x34
820083f8:	e5933000 	ldr	r3, [r3]
820083fc:	e2033010 	and	r3, r3, #16
82008400:	e3530000 	cmp	r3, #0
82008404:	1afffff9 	bne	820083f0 <enable_watchdog+0x58>
82008408:	e320f000 	nop	{0}
8200840c:	e320f000 	nop	{0}
82008410:	e28bd000 	add	sp, fp, #0
82008414:	e49db004 	pop	{fp}		; (ldr fp, [sp], #4)
82008418:	e12fff1e 	bx	lr

8200841c <set_wdt_count>:
8200841c:	e52db004 	push	{fp}		; (str fp, [sp, #-4]!)
82008420:	e28db000 	add	fp, sp, #0
82008424:	e24dd00c 	sub	sp, sp, #12
82008428:	e50b0008 	str	r0, [fp, #-8]
8200842c:	e50b100c 	str	r1, [fp, #-12]
82008430:	e51b3008 	ldr	r3, [fp, #-8]
82008434:	e2833028 	add	r3, r3, #40	; 0x28
82008438:	e1a02003 	mov	r2, r3
8200843c:	e51b300c 	ldr	r3, [fp, #-12]
82008440:	e5823000 	str	r3, [r2]
82008444:	e320f000 	nop	{0}
82008448:	e51b3008 	ldr	r3, [fp, #-8]
8200844c:	e2833034 	add	r3, r3, #52	; 0x34
82008450:	e5933000 	ldr	r3, [r3]
82008454:	e2033002 	and	r3, r3, #2
82008458:	e3530000 	cmp	r3, #0
8200845c:	1afffff9 	bne	82008448 <set_wdt_count+0x2c>
82008460:	e320f000 	nop	{0}
82008464:	e320f000 	nop	{0}
82008468:	e28bd000 	add	sp, fp, #0
8200846c:	e49db004 	pop	{fp}		; (ldr fp, [sp], #4)
82008470:	e12fff1e 	bx	lr

82008474 <uart_Init>:
82008474:	e52db004 	push	{fp}		; (str fp, [sp, #-4]!)
82008478:	e28db000 	add	fp, sp, #0
8200847c:	e24dd00c 	sub	sp, sp, #12
82008480:	e50b0008 	str	r0, [fp, #-8]
82008484:	e1a00001 	mov	r0, r1
82008488:	e1a01002 	mov	r1, r2
8200848c:	e1a02003 	mov	r2, r3
82008490:	e1a03000 	mov	r3, r0
82008494:	e54b3009 	strb	r3, [fp, #-9]
82008498:	e1a03001 	mov	r3, r1
8200849c:	e54b300a 	strb	r3, [fp, #-10]
820084a0:	e1a03002 	mov	r3, r2
820084a4:	e54b300b 	strb	r3, [fp, #-11]
820084a8:	e3093e80 	movw	r3, #40576	; 0x9e80
820084ac:	e34434e1 	movt	r3, #17633	; 0x44e1
820084b0:	e3a02000 	mov	r2, #0
820084b4:	e583200c 	str	r2, [r3, #12]
820084b8:	e3093e80 	movw	r3, #40576	; 0x9e80
820084bc:	e34434e1 	movt	r3, #17633	; 0x44e1
820084c0:	e3a02030 	mov	r2, #48	; 0x30
820084c4:	e5832008 	str	r2, [r3, #8]
820084c8:	e320f000 	nop	{0}
820084cc:	e28bd000 	add	sp, fp, #0
820084d0:	e49db004 	pop	{fp}		; (ldr fp, [sp], #4)
820084d4:	e12fff1e 	bx	lr

820084d8 <uart_set_Baudrate>:
820084d8:	e52db004 	push	{fp}		; (str fp, [sp, #-4]!)
820084dc:	e28db000 	add	fp, sp, #0
820084e0:	e24dd00c 	sub	sp, sp, #12
820084e4:	e50b0008 	str	r0, [fp, #-8]
820084e8:	e50b100c 	str	r1, [fp, #-12]
820084ec:	e320f000 	nop	{0}
820084f0:	e28bd000 	add	sp, fp, #0
820084f4:	e49db004 	pop	{fp}		; (ldr fp, [sp], #4)
820084f8:	e12fff1e 	bx	lr

820084fc <uart_putC>:
820084fc:	e52db004 	push	{fp}		; (str fp, [sp, #-4]!)
82008500:	e28db000 	add	fp, sp, #0
82008504:	e24dd00c 	sub	sp, sp, #12
82008508:	e50b0008 	str	r0, [fp, #-8]
8200850c:	e1a03001 	mov	r3, r1
82008510:	e54b3009 	strb	r3, [fp, #-9]
82008514:	e320f000 	nop	{0}
82008518:	e51b3008 	ldr	r3, [fp, #-8]
8200851c:	e5933014 	ldr	r3, [r3, #20]
82008520:	e2033020 	and	r3, r3, #32
82008524:	e3530000 	cmp	r3, #0
82008528:	0afffffa 	beq	82008518 <uart_putC+0x1c>
8200852c:	e55b2009 	ldrb	r2, [fp, #-9]
82008530:	e51b3008 	ldr	r3, [fp, #-8]
82008534:	e5832000 	str	r2, [r3]
82008538:	e320f000 	nop	{0}
8200853c:	e28bd000 	add	sp, fp, #0
82008540:	e49db004 	pop	{fp}		; (ldr fp, [sp], #4)
82008544:	e12fff1e 	bx	lr

82008548 <uart_getC>:
82008548:	e52db004 	push	{fp}		; (str fp, [sp, #-4]!)
8200854c:	e28db000 	add	fp, sp, #0
82008550:	e24dd014 	sub	sp, sp, #20
82008554:	e50b0010 	str	r0, [fp, #-16]
82008558:	e320f000 	nop	{0}
8200855c:	e51b3010 	ldr	r3, [fp, #-16]
82008560:	e5933014 	ldr	r3, [r3, #20]
82008564:	e2033001 	and	r3, r3, #1
82008568:	e3530000 	cmp	r3, #0
8200856c:	0afffffa 	beq	8200855c <uart_getC+0x14>
82008570:	e51b3010 	ldr	r3, [fp, #-16]
82008574:	e5933000 	ldr	r3, [r3]
82008578:	e54b3005 	strb	r3, [fp, #-5]
8200857c:	e55b3005 	ldrb	r3, [fp, #-5]
82008580:	e1a00003 	mov	r0, r3
82008584:	e28bd000 	add	sp, fp, #0
82008588:	e49db004 	pop	{fp}		; (ldr fp, [sp], #4)
8200858c:	e12fff1e 	bx	lr

82008590 <uart_tx_str>:
82008590:	e92d4800 	push	{fp, lr}
82008594:	e28db004 	add	fp, sp, #4
82008598:	e24dd018 	sub	sp, sp, #24
8200859c:	e50b0010 	str	r0, [fp, #-16]
820085a0:	e50b1014 	str	r1, [fp, #-20]	; 0xffffffec
820085a4:	e50b2018 	str	r2, [fp, #-24]	; 0xffffffe8
820085a8:	e3a03000 	mov	r3, #0
820085ac:	e50b3008 	str	r3, [fp, #-8]
820085b0:	ea000009 	b	820085dc <uart_tx_str+0x4c>
820085b4:	e51b3008 	ldr	r3, [fp, #-8]
820085b8:	e51b2014 	ldr	r2, [fp, #-20]	; 0xffffffec
820085bc:	e0823003 	add	r3, r2, r3
820085c0:	e5d33000 	ldrb	r3, [r3]
820085c4:	e1a01003 	mov	r1, r3
820085c8:	e51b0010 	ldr	r0, [fp, #-16]
820085cc:	ebffffca 	bl	820084fc <uart_putC>
820085d0:	e51b3008 	ldr	r3, [fp, #-8]
820085d4:	e2833001 	add	r3, r3, #1
820085d8:	e50b3008 	str	r3, [fp, #-8]
820085dc:	e51b2008 	ldr	r2, [fp, #-8]
820085e0:	e51b3018 	ldr	r3, [fp, #-24]	; 0xffffffe8
820085e4:	e1520003 	cmp	r2, r3
820085e8:	bafffff1 	blt	820085b4 <uart_tx_str+0x24>
820085ec:	e320f000 	nop	{0}
820085f0:	e320f000 	nop	{0}
820085f4:	e24bd004 	sub	sp, fp, #4
820085f8:	e8bd8800 	pop	{fp, pc}

820085fc <usrLedInitAsm>:
820085fc:	e92d4800 	push	{fp, lr}
82008600:	e28db004 	add	fp, sp, #4
82008604:	e3a01002 	mov	r1, #2
82008608:	e3401004 	movt	r1, #4
8200860c:	e3a000ac 	mov	r0, #172	; 0xac
82008610:	e34404e0 	movt	r0, #17632	; 0x44e0
82008614:	ebfff5f9 	bl	82005e00 <WRITE_REG32>
82008618:	e30c0134 	movw	r0, #49460	; 0xc134
8200861c:	e3440804 	movt	r0, #18436	; 0x4804
82008620:	ebfff5f8 	bl	82005e08 <READ_REG32>
82008624:	e1a02000 	mov	r2, r0
82008628:	e30a3848 	movw	r3, #43080	; 0xa848
8200862c:	e3483200 	movt	r3, #33280	; 0x8200
82008630:	e5832000 	str	r2, [r3]
82008634:	e30a3848 	movw	r3, #43080	; 0xa848
82008638:	e3483200 	movt	r3, #33280	; 0x8200
8200863c:	e5933000 	ldr	r3, [r3]
82008640:	e3c3261e 	bic	r2, r3, #31457280	; 0x1e00000
82008644:	e30a3848 	movw	r3, #43080	; 0xa848
82008648:	e3483200 	movt	r3, #33280	; 0x8200
8200864c:	e5832000 	str	r2, [r3]
82008650:	e30a3848 	movw	r3, #43080	; 0xa848
82008654:	e3483200 	movt	r3, #33280	; 0x8200
82008658:	e5933000 	ldr	r3, [r3]
8200865c:	e1a01003 	mov	r1, r3
82008660:	e30c0134 	movw	r0, #49460	; 0xc134
82008664:	e3440804 	movt	r0, #18436	; 0x4804
82008668:	ebfff5e4 	bl	82005e00 <WRITE_REG32>
8200866c:	e320f000 	nop	{0}
82008670:	e8bd8800 	pop	{fp, pc}

82008674 <usrLedBlinkAsm>:
82008674:	e92d4800 	push	{fp, lr}
82008678:	e28db004 	add	fp, sp, #4
8200867c:	e3a0161e 	mov	r1, #31457280	; 0x1e00000
82008680:	e30c0194 	movw	r0, #49556	; 0xc194
82008684:	e3440804 	movt	r0, #18436	; 0x4804
82008688:	ebfff5dc 	bl	82005e00 <WRITE_REG32>
8200868c:	e30a3848 	movw	r3, #43080	; 0xa848
82008690:	e3483200 	movt	r3, #33280	; 0x8200
82008694:	e3a02000 	mov	r2, #0
82008698:	e5832000 	str	r2, [r3]
8200869c:	ea000006 	b	820086bc <usrLedBlinkAsm+0x48>
820086a0:	e30a3848 	movw	r3, #43080	; 0xa848
820086a4:	e3483200 	movt	r3, #33280	; 0x8200
820086a8:	e5933000 	ldr	r3, [r3]
820086ac:	e2832001 	add	r2, r3, #1
820086b0:	e30a3848 	movw	r3, #43080	; 0xa848
820086b4:	e3483200 	movt	r3, #33280	; 0x8200
820086b8:	e5832000 	str	r2, [r3]
820086bc:	e30a3848 	movw	r3, #43080	; 0xa848
820086c0:	e3483200 	movt	r3, #33280	; 0x8200
820086c4:	e5932000 	ldr	r2, [r3]
820086c8:	e304323f 	movw	r3, #16959	; 0x423f
820086cc:	e340300f 	movt	r3, #15
820086d0:	e1520003 	cmp	r2, r3
820086d4:	9afffff1 	bls	820086a0 <usrLedBlinkAsm+0x2c>
820086d8:	e3a0161e 	mov	r1, #31457280	; 0x1e00000
820086dc:	e30c0190 	movw	r0, #49552	; 0xc190
820086e0:	e3440804 	movt	r0, #18436	; 0x4804
820086e4:	ebfff5c5 	bl	82005e00 <WRITE_REG32>
820086e8:	e30a3848 	movw	r3, #43080	; 0xa848
820086ec:	e3483200 	movt	r3, #33280	; 0x8200
820086f0:	e3a02000 	mov	r2, #0
820086f4:	e5832000 	str	r2, [r3]
820086f8:	ea000006 	b	82008718 <usrLedBlinkAsm+0xa4>
820086fc:	e30a3848 	movw	r3, #43080	; 0xa848
82008700:	e3483200 	movt	r3, #33280	; 0x8200
82008704:	e5933000 	ldr	r3, [r3]
82008708:	e2832001 	add	r2, r3, #1
8200870c:	e30a3848 	movw	r3, #43080	; 0xa848
82008710:	e3483200 	movt	r3, #33280	; 0x8200
82008714:	e5832000 	str	r2, [r3]
82008718:	e30a3848 	movw	r3, #43080	; 0xa848
8200871c:	e3483200 	movt	r3, #33280	; 0x8200
82008720:	e5932000 	ldr	r2, [r3]
82008724:	e304323f 	movw	r3, #16959	; 0x423f
82008728:	e340300f 	movt	r3, #15
8200872c:	e1520003 	cmp	r2, r3
82008730:	9afffff1 	bls	820086fc <usrLedBlinkAsm+0x88>
82008734:	e320f000 	nop	{0}
82008738:	e320f000 	nop	{0}
8200873c:	e8bd8800 	pop	{fp, pc}

82008740 <usrLedInit>:
82008740:	e52db004 	push	{fp}		; (str fp, [sp, #-4]!)
82008744:	e28db000 	add	fp, sp, #0
82008748:	e3a03000 	mov	r3, #0
8200874c:	e34434e0 	movt	r3, #17632	; 0x44e0
82008750:	e3a02002 	mov	r2, #2
82008754:	e3402004 	movt	r2, #4
82008758:	e58320ac 	str	r2, [r3, #172]	; 0xac
8200875c:	e3a03903 	mov	r3, #49152	; 0xc000
82008760:	e3443804 	movt	r3, #18436	; 0x4804
82008764:	e5932134 	ldr	r2, [r3, #308]	; 0x134
82008768:	e3a03903 	mov	r3, #49152	; 0xc000
8200876c:	e3443804 	movt	r3, #18436	; 0x4804
82008770:	e3c2261e 	bic	r2, r2, #31457280	; 0x1e00000
82008774:	e5832134 	str	r2, [r3, #308]	; 0x134
82008778:	e320f000 	nop	{0}
8200877c:	e28bd000 	add	sp, fp, #0
82008780:	e49db004 	pop	{fp}		; (ldr fp, [sp], #4)
82008784:	e12fff1e 	bx	lr

82008788 <usrLedBlink>:
82008788:	e52db004 	push	{fp}		; (str fp, [sp, #-4]!)
8200878c:	e28db000 	add	fp, sp, #0
82008790:	e3a03903 	mov	r3, #49152	; 0xc000
82008794:	e3443804 	movt	r3, #18436	; 0x4804
82008798:	e3a0261e 	mov	r2, #31457280	; 0x1e00000
8200879c:	e5832194 	str	r2, [r3, #404]	; 0x194
820087a0:	e30a3848 	movw	r3, #43080	; 0xa848
820087a4:	e3483200 	movt	r3, #33280	; 0x8200
820087a8:	e3a02000 	mov	r2, #0
820087ac:	e5832000 	str	r2, [r3]
820087b0:	ea000006 	b	820087d0 <usrLedBlink+0x48>
820087b4:	e30a3848 	movw	r3, #43080	; 0xa848
820087b8:	e3483200 	movt	r3, #33280	; 0x8200
820087bc:	e5933000 	ldr	r3, [r3]
820087c0:	e2832001 	add	r2, r3, #1
820087c4:	e30a3848 	movw	r3, #43080	; 0xa848
820087c8:	e3483200 	movt	r3, #33280	; 0x8200
820087cc:	e5832000 	str	r2, [r3]
820087d0:	e30a3848 	movw	r3, #43080	; 0xa848
820087d4:	e3483200 	movt	r3, #33280	; 0x8200
820087d8:	e5932000 	ldr	r2, [r3]
820087dc:	e30a311f 	movw	r3, #41247	; 0xa11f
820087e0:	e3403007 	movt	r3, #7
820087e4:	e1520003 	cmp	r2, r3
820087e8:	9afffff1 	bls	820087b4 <usrLedBlink+0x2c>
820087ec:	e3a03903 	mov	r3, #49152	; 0xc000
820087f0:	e3443804 	movt	r3, #18436	; 0x4804
820087f4:	e3a0261e 	mov	r2, #31457280	; 0x1e00000
820087f8:	e5832190 	str	r2, [r3, #400]	; 0x190
820087fc:	e30a3848 	movw	r3, #43080	; 0xa848
82008800:	e3483200 	movt	r3, #33280	; 0x8200
82008804:	e3a02000 	mov	r2, #0
82008808:	e5832000 	str	r2, [r3]
8200880c:	ea000006 	b	8200882c <usrLedBlink+0xa4>
82008810:	e30a3848 	movw	r3, #43080	; 0xa848
82008814:	e3483200 	movt	r3, #33280	; 0x8200
82008818:	e5933000 	ldr	r3, [r3]
8200881c:	e2832001 	add	r2, r3, #1
82008820:	e30a3848 	movw	r3, #43080	; 0xa848
82008824:	e3483200 	movt	r3, #33280	; 0x8200
82008828:	e5832000 	str	r2, [r3]
8200882c:	e30a3848 	movw	r3, #43080	; 0xa848
82008830:	e3483200 	movt	r3, #33280	; 0x8200
82008834:	e5932000 	ldr	r2, [r3]
82008838:	e30a311f 	movw	r3, #41247	; 0xa11f
8200883c:	e3403007 	movt	r3, #7
82008840:	e1520003 	cmp	r2, r3
82008844:	9afffff1 	bls	82008810 <usrLedBlink+0x88>
82008848:	e320f000 	nop	{0}
8200884c:	e320f000 	nop	{0}
82008850:	e28bd000 	add	sp, fp, #0
82008854:	e49db004 	pop	{fp}		; (ldr fp, [sp], #4)
82008858:	e12fff1e 	bx	lr

8200885c <usrLedToggle>:
8200885c:	e52db004 	push	{fp}		; (str fp, [sp, #-4]!)
82008860:	e28db000 	add	fp, sp, #0
82008864:	e24dd00c 	sub	sp, sp, #12
82008868:	e50b0008 	str	r0, [fp, #-8]
8200886c:	e3a03903 	mov	r3, #49152	; 0xc000
82008870:	e3443804 	movt	r3, #18436	; 0x4804
82008874:	e593213c 	ldr	r2, [r3, #316]	; 0x13c
82008878:	e51b3008 	ldr	r3, [fp, #-8]
8200887c:	e2833015 	add	r3, r3, #21
82008880:	e3a01001 	mov	r1, #1
82008884:	e1a03311 	lsl	r3, r1, r3
82008888:	e1a01003 	mov	r1, r3
8200888c:	e3a03903 	mov	r3, #49152	; 0xc000
82008890:	e3443804 	movt	r3, #18436	; 0x4804
82008894:	e0222001 	eor	r2, r2, r1
82008898:	e583213c 	str	r2, [r3, #316]	; 0x13c
8200889c:	e320f000 	nop	{0}
820088a0:	e28bd000 	add	sp, fp, #0
820088a4:	e49db004 	pop	{fp}		; (ldr fp, [sp], #4)
820088a8:	e12fff1e 	bx	lr

820088ac <__print_hello>:
820088ac:	e92d4800 	push	{fp, lr}
820088b0:	e28db004 	add	fp, sp, #4
820088b4:	e24dd008 	sub	sp, sp, #8
820088b8:	e50b0008 	str	r0, [fp, #-8]
820088bc:	e51b0008 	ldr	r0, [fp, #-8]
820088c0:	ebfffae6 	bl	82007460 <syscall_print_hello>
820088c4:	e320f000 	nop	{0}
820088c8:	e24bd004 	sub	sp, fp, #4
820088cc:	e8bd8800 	pop	{fp, pc}

820088d0 <__yield>:
820088d0:	e92d4800 	push	{fp, lr}
820088d4:	e28db004 	add	fp, sp, #4
820088d8:	ebfffae7 	bl	8200747c <syscall_yield>
820088dc:	e320f000 	nop	{0}
820088e0:	e8bd8800 	pop	{fp, pc}

820088e4 <__gettid>:
820088e4:	e92d4800 	push	{fp, lr}
820088e8:	e28db004 	add	fp, sp, #4
820088ec:	ebfffaec 	bl	820074a4 <syscall_get_tid>
820088f0:	e1a03000 	mov	r3, r0
820088f4:	e1a00003 	mov	r0, r3
820088f8:	e8bd8800 	pop	{fp, pc}

820088fc <__exit>:
820088fc:	e92d4800 	push	{fp, lr}
82008900:	e28db004 	add	fp, sp, #4
82008904:	ebfffaed 	bl	820074c0 <syscall_exit>
82008908:	eafffffe 	b	82008908 <__exit+0xc>

8200890c <__fork>:
8200890c:	e92d4800 	push	{fp, lr}
82008910:	e28db004 	add	fp, sp, #4
82008914:	ebfffaf0 	bl	820074dc <syscall_fork>
82008918:	e1a03000 	mov	r3, r0
8200891c:	e1a00003 	mov	r0, r3
82008920:	e8bd8800 	pop	{fp, pc}

82008924 <__do_taskCreate>:
82008924:	e92d4800 	push	{fp, lr}
82008928:	e28db004 	add	fp, sp, #4
8200892c:	e24dd010 	sub	sp, sp, #16
82008930:	e50b0010 	str	r0, [fp, #-16]
82008934:	e50b1014 	str	r1, [fp, #-20]	; 0xffffffec
82008938:	e51b3010 	ldr	r3, [fp, #-16]
8200893c:	e50b300c 	str	r3, [fp, #-12]
82008940:	e51b3014 	ldr	r3, [fp, #-20]	; 0xffffffec
82008944:	e50b3008 	str	r3, [fp, #-8]
82008948:	e24b300c 	sub	r3, fp, #12
8200894c:	e1a00003 	mov	r0, r3
82008950:	ebfffae8 	bl	820074f8 <syscall_do_taskCreate>
82008954:	e1a03000 	mov	r3, r0
82008958:	e1a00003 	mov	r0, r3
8200895c:	e24bd004 	sub	sp, fp, #4
82008960:	e8bd8800 	pop	{fp, pc}

82008964 <__malloc_blk>:
82008964:	e92d4800 	push	{fp, lr}
82008968:	e28db004 	add	fp, sp, #4
8200896c:	ebfffae8 	bl	82007514 <syscall_malloc_blk>
82008970:	e1a03000 	mov	r3, r0
82008974:	e1a00003 	mov	r0, r3
82008978:	e8bd8800 	pop	{fp, pc}

8200897c <__mfree_blk>:
8200897c:	e92d4800 	push	{fp, lr}
82008980:	e28db004 	add	fp, sp, #4
82008984:	e24dd008 	sub	sp, sp, #8
82008988:	e50b0008 	str	r0, [fp, #-8]
8200898c:	e51b0008 	ldr	r0, [fp, #-8]
82008990:	ebfffae6 	bl	82007530 <syscall_mfree_blk>
82008994:	e320f000 	nop	{0}
82008998:	e24bd004 	sub	sp, fp, #4
8200899c:	e8bd8800 	pop	{fp, pc}

820089a0 <__get_mblk_list>:
820089a0:	e92d4800 	push	{fp, lr}
820089a4:	e28db004 	add	fp, sp, #4
820089a8:	ebfffae7 	bl	8200754c <syscall_get_mblk_list>
820089ac:	e320f000 	nop	{0}
820089b0:	e8bd8800 	pop	{fp, pc}

820089b4 <__get_task_priority>:
820089b4:	e92d4800 	push	{fp, lr}
820089b8:	e28db004 	add	fp, sp, #4
820089bc:	ebfffae9 	bl	82007568 <syscall_get_task_priority>
820089c0:	e1a03000 	mov	r3, r0
820089c4:	e1a00003 	mov	r0, r3
820089c8:	e8bd8800 	pop	{fp, pc}

820089cc <__write>:
820089cc:	e92d4800 	push	{fp, lr}
820089d0:	e28db004 	add	fp, sp, #4
820089d4:	e24dd020 	sub	sp, sp, #32
820089d8:	e50b0018 	str	r0, [fp, #-24]	; 0xffffffe8
820089dc:	e50b101c 	str	r1, [fp, #-28]	; 0xffffffe4
820089e0:	e50b2020 	str	r2, [fp, #-32]	; 0xffffffe0
820089e4:	e51b3018 	ldr	r3, [fp, #-24]	; 0xffffffe8
820089e8:	e50b3010 	str	r3, [fp, #-16]
820089ec:	e51b301c 	ldr	r3, [fp, #-28]	; 0xffffffe4
820089f0:	e50b300c 	str	r3, [fp, #-12]
820089f4:	e51b3020 	ldr	r3, [fp, #-32]	; 0xffffffe0
820089f8:	e50b3008 	str	r3, [fp, #-8]
820089fc:	e24b3010 	sub	r3, fp, #16
82008a00:	e1a00003 	mov	r0, r3
82008a04:	ebfffade 	bl	82007584 <syscall_write>
82008a08:	e1a03000 	mov	r3, r0
82008a0c:	e1a00003 	mov	r0, r3
82008a10:	e24bd004 	sub	sp, fp, #4
82008a14:	e8bd8800 	pop	{fp, pc}

82008a18 <__read>:
82008a18:	e92d4800 	push	{fp, lr}
82008a1c:	e28db004 	add	fp, sp, #4
82008a20:	e24dd020 	sub	sp, sp, #32
82008a24:	e50b0018 	str	r0, [fp, #-24]	; 0xffffffe8
82008a28:	e50b101c 	str	r1, [fp, #-28]	; 0xffffffe4
82008a2c:	e50b2020 	str	r2, [fp, #-32]	; 0xffffffe0
82008a30:	e51b3018 	ldr	r3, [fp, #-24]	; 0xffffffe8
82008a34:	e50b3010 	str	r3, [fp, #-16]
82008a38:	e51b301c 	ldr	r3, [fp, #-28]	; 0xffffffe4
82008a3c:	e50b300c 	str	r3, [fp, #-12]
82008a40:	e51b3020 	ldr	r3, [fp, #-32]	; 0xffffffe0
82008a44:	e50b3008 	str	r3, [fp, #-8]
82008a48:	e24b3010 	sub	r3, fp, #16
82008a4c:	e1a00003 	mov	r0, r3
82008a50:	ebfffad2 	bl	820075a0 <syscall_read>
82008a54:	e1a03000 	mov	r3, r0
82008a58:	e1a00003 	mov	r0, r3
82008a5c:	e24bd004 	sub	sp, fp, #4
82008a60:	e8bd8800 	pop	{fp, pc}

82008a64 <__open>:
82008a64:	e92d4800 	push	{fp, lr}
82008a68:	e28db004 	add	fp, sp, #4
82008a6c:	e24dd008 	sub	sp, sp, #8
82008a70:	e50b0008 	str	r0, [fp, #-8]
82008a74:	e51b0008 	ldr	r0, [fp, #-8]
82008a78:	ebfffacf 	bl	820075bc <syscall_open>
82008a7c:	e1a03000 	mov	r3, r0
82008a80:	e1a00003 	mov	r0, r3
82008a84:	e24bd004 	sub	sp, fp, #4
82008a88:	e8bd8800 	pop	{fp, pc}

82008a8c <__getcwd>:
82008a8c:	e92d4800 	push	{fp, lr}
82008a90:	e28db004 	add	fp, sp, #4
82008a94:	e24dd010 	sub	sp, sp, #16
82008a98:	e50b0010 	str	r0, [fp, #-16]
82008a9c:	e50b1014 	str	r1, [fp, #-20]	; 0xffffffec
82008aa0:	e51b3014 	ldr	r3, [fp, #-20]	; 0xffffffec
82008aa4:	e1a02003 	mov	r2, r3
82008aa8:	e3a01000 	mov	r1, #0
82008aac:	e51b0010 	ldr	r0, [fp, #-16]
82008ab0:	ebffe841 	bl	82002bbc <_memset>
82008ab4:	e51b3010 	ldr	r3, [fp, #-16]
82008ab8:	e50b300c 	str	r3, [fp, #-12]
82008abc:	e51b3014 	ldr	r3, [fp, #-20]	; 0xffffffec
82008ac0:	e50b3008 	str	r3, [fp, #-8]
82008ac4:	e24b300c 	sub	r3, fp, #12
82008ac8:	e1a00003 	mov	r0, r3
82008acc:	ebfffac1 	bl	820075d8 <syscall_getcwd>
82008ad0:	e320f000 	nop	{0}
82008ad4:	e24bd004 	sub	sp, fp, #4
82008ad8:	e8bd8800 	pop	{fp, pc}

82008adc <__getsubdir>:
82008adc:	e92d4800 	push	{fp, lr}
82008ae0:	e28db004 	add	fp, sp, #4
82008ae4:	e24dd010 	sub	sp, sp, #16
82008ae8:	e50b0010 	str	r0, [fp, #-16]
82008aec:	e50b1014 	str	r1, [fp, #-20]	; 0xffffffec
82008af0:	e51b3014 	ldr	r3, [fp, #-20]	; 0xffffffec
82008af4:	e1a02003 	mov	r2, r3
82008af8:	e3a01000 	mov	r1, #0
82008afc:	e51b0010 	ldr	r0, [fp, #-16]
82008b00:	ebffe82d 	bl	82002bbc <_memset>
82008b04:	e51b3010 	ldr	r3, [fp, #-16]
82008b08:	e50b300c 	str	r3, [fp, #-12]
82008b0c:	e51b3014 	ldr	r3, [fp, #-20]	; 0xffffffec
82008b10:	e50b3008 	str	r3, [fp, #-8]
82008b14:	e24b300c 	sub	r3, fp, #12
82008b18:	e1a00003 	mov	r0, r3
82008b1c:	ebfffab4 	bl	820075f4 <syscall_getsubdir>
82008b20:	e51b300c 	ldr	r3, [fp, #-12]
82008b24:	e3530000 	cmp	r3, #0
82008b28:	1a000001 	bne	82008b34 <__getsubdir+0x58>
82008b2c:	e3e03000 	mvn	r3, #0
82008b30:	ea000000 	b	82008b38 <__getsubdir+0x5c>
82008b34:	e3a03000 	mov	r3, #0
82008b38:	e1a00003 	mov	r0, r3
82008b3c:	e24bd004 	sub	sp, fp, #4
82008b40:	e8bd8800 	pop	{fp, pc}

82008b44 <__getfdir>:
82008b44:	e92d4800 	push	{fp, lr}
82008b48:	e28db004 	add	fp, sp, #4
82008b4c:	e24dd010 	sub	sp, sp, #16
82008b50:	e50b0010 	str	r0, [fp, #-16]
82008b54:	e50b1014 	str	r1, [fp, #-20]	; 0xffffffec
82008b58:	e51b3014 	ldr	r3, [fp, #-20]	; 0xffffffec
82008b5c:	e1a02003 	mov	r2, r3
82008b60:	e3a01000 	mov	r1, #0
82008b64:	e51b0010 	ldr	r0, [fp, #-16]
82008b68:	ebffe813 	bl	82002bbc <_memset>
82008b6c:	e51b3010 	ldr	r3, [fp, #-16]
82008b70:	e50b300c 	str	r3, [fp, #-12]
82008b74:	e51b3014 	ldr	r3, [fp, #-20]	; 0xffffffec
82008b78:	e50b3008 	str	r3, [fp, #-8]
82008b7c:	e24b300c 	sub	r3, fp, #12
82008b80:	e1a00003 	mov	r0, r3
82008b84:	ebfffaa1 	bl	82007610 <syscall_getfdir>
82008b88:	e51b300c 	ldr	r3, [fp, #-12]
82008b8c:	e3530000 	cmp	r3, #0
82008b90:	1a000001 	bne	82008b9c <__getfdir+0x58>
82008b94:	e3e03000 	mvn	r3, #0
82008b98:	ea000000 	b	82008ba0 <__getfdir+0x5c>
82008b9c:	e3a03000 	mov	r3, #0
82008ba0:	e1a00003 	mov	r0, r3
82008ba4:	e24bd004 	sub	sp, fp, #4
82008ba8:	e8bd8800 	pop	{fp, pc}

82008bac <__chdir>:
82008bac:	e92d4800 	push	{fp, lr}
82008bb0:	e28db004 	add	fp, sp, #4
82008bb4:	e24dd008 	sub	sp, sp, #8
82008bb8:	e50b0008 	str	r0, [fp, #-8]
82008bbc:	e51b0008 	ldr	r0, [fp, #-8]
82008bc0:	ebfffa99 	bl	8200762c <syscall_chdir>
82008bc4:	e1a03000 	mov	r3, r0
82008bc8:	e1a00003 	mov	r0, r3
82008bcc:	e24bd004 	sub	sp, fp, #4
82008bd0:	e8bd8800 	pop	{fp, pc}

82008bd4 <__getfullpath>:
82008bd4:	e92d4800 	push	{fp, lr}
82008bd8:	e28db004 	add	fp, sp, #4
82008bdc:	e24dd010 	sub	sp, sp, #16
82008be0:	e50b0010 	str	r0, [fp, #-16]
82008be4:	e50b1014 	str	r1, [fp, #-20]	; 0xffffffec
82008be8:	e51b3010 	ldr	r3, [fp, #-16]
82008bec:	e50b300c 	str	r3, [fp, #-12]
82008bf0:	e51b3014 	ldr	r3, [fp, #-20]	; 0xffffffec
82008bf4:	e50b3008 	str	r3, [fp, #-8]
82008bf8:	e24b300c 	sub	r3, fp, #12
82008bfc:	e1a00003 	mov	r0, r3
82008c00:	ebfffa90 	bl	82007648 <syscall_getfullpath>
82008c04:	e320f000 	nop	{0}
82008c08:	e24bd004 	sub	sp, fp, #4
82008c0c:	e8bd8800 	pop	{fp, pc}

82008c10 <__restart>:
82008c10:	e92d4800 	push	{fp, lr}
82008c14:	e28db004 	add	fp, sp, #4
82008c18:	ebfffa91 	bl	82007664 <syscall_restart>
82008c1c:	e320f000 	nop	{0}
82008c20:	e8bd8800 	pop	{fp, pc}

82008c24 <__close>:
82008c24:	e92d4800 	push	{fp, lr}
82008c28:	e28db004 	add	fp, sp, #4
82008c2c:	e24dd008 	sub	sp, sp, #8
82008c30:	e50b0008 	str	r0, [fp, #-8]
82008c34:	e51b0008 	ldr	r0, [fp, #-8]
82008c38:	ebfffa90 	bl	82007680 <syscall_close>
82008c3c:	e320f000 	nop	{0}
82008c40:	e24bd004 	sub	sp, fp, #4
82008c44:	e8bd8800 	pop	{fp, pc}

82008c48 <__udivsi3>:
82008c48:	e2512001 	subs	r2, r1, #1
82008c4c:	012fff1e 	bxeq	lr
82008c50:	3a000036 	bcc	82008d30 <__udivsi3+0xe8>
82008c54:	e1500001 	cmp	r0, r1
82008c58:	9a000022 	bls	82008ce8 <__udivsi3+0xa0>
82008c5c:	e1110002 	tst	r1, r2
82008c60:	0a000023 	beq	82008cf4 <__udivsi3+0xac>
82008c64:	e311020e 	tst	r1, #-536870912	; 0xe0000000
82008c68:	01a01181 	lsleq	r1, r1, #3
82008c6c:	03a03008 	moveq	r3, #8
82008c70:	13a03001 	movne	r3, #1
82008c74:	e3510201 	cmp	r1, #268435456	; 0x10000000
82008c78:	31510000 	cmpcc	r1, r0
82008c7c:	31a01201 	lslcc	r1, r1, #4
82008c80:	31a03203 	lslcc	r3, r3, #4
82008c84:	3afffffa 	bcc	82008c74 <__udivsi3+0x2c>
82008c88:	e3510102 	cmp	r1, #-2147483648	; 0x80000000
82008c8c:	31510000 	cmpcc	r1, r0
82008c90:	31a01081 	lslcc	r1, r1, #1
82008c94:	31a03083 	lslcc	r3, r3, #1
82008c98:	3afffffa 	bcc	82008c88 <__udivsi3+0x40>
82008c9c:	e3a02000 	mov	r2, #0
82008ca0:	e1500001 	cmp	r0, r1
82008ca4:	20400001 	subcs	r0, r0, r1
82008ca8:	21822003 	orrcs	r2, r2, r3
82008cac:	e15000a1 	cmp	r0, r1, lsr #1
82008cb0:	204000a1 	subcs	r0, r0, r1, lsr #1
82008cb4:	218220a3 	orrcs	r2, r2, r3, lsr #1
82008cb8:	e1500121 	cmp	r0, r1, lsr #2
82008cbc:	20400121 	subcs	r0, r0, r1, lsr #2
82008cc0:	21822123 	orrcs	r2, r2, r3, lsr #2
82008cc4:	e15001a1 	cmp	r0, r1, lsr #3
82008cc8:	204001a1 	subcs	r0, r0, r1, lsr #3
82008ccc:	218221a3 	orrcs	r2, r2, r3, lsr #3
82008cd0:	e3500000 	cmp	r0, #0
82008cd4:	11b03223 	lsrsne	r3, r3, #4
82008cd8:	11a01221 	lsrne	r1, r1, #4
82008cdc:	1affffef 	bne	82008ca0 <__udivsi3+0x58>
82008ce0:	e1a00002 	mov	r0, r2
82008ce4:	e12fff1e 	bx	lr
82008ce8:	03a00001 	moveq	r0, #1
82008cec:	13a00000 	movne	r0, #0
82008cf0:	e12fff1e 	bx	lr
82008cf4:	e3510801 	cmp	r1, #65536	; 0x10000
82008cf8:	21a01821 	lsrcs	r1, r1, #16
82008cfc:	23a02010 	movcs	r2, #16
82008d00:	33a02000 	movcc	r2, #0
82008d04:	e3510c01 	cmp	r1, #256	; 0x100
82008d08:	21a01421 	lsrcs	r1, r1, #8
82008d0c:	22822008 	addcs	r2, r2, #8
82008d10:	e3510010 	cmp	r1, #16
82008d14:	21a01221 	lsrcs	r1, r1, #4
82008d18:	22822004 	addcs	r2, r2, #4
82008d1c:	e3510004 	cmp	r1, #4
82008d20:	82822003 	addhi	r2, r2, #3
82008d24:	908220a1 	addls	r2, r2, r1, lsr #1
82008d28:	e1a00230 	lsr	r0, r0, r2
82008d2c:	e12fff1e 	bx	lr
82008d30:	e3500000 	cmp	r0, #0
82008d34:	13e00000 	mvnne	r0, #0
82008d38:	ea000059 	b	82008ea4 <__aeabi_idiv0>

82008d3c <__aeabi_uidivmod>:
82008d3c:	e3510000 	cmp	r1, #0
82008d40:	0afffffa 	beq	82008d30 <__udivsi3+0xe8>
82008d44:	e92d4003 	push	{r0, r1, lr}
82008d48:	ebffffbe 	bl	82008c48 <__udivsi3>
82008d4c:	e8bd4006 	pop	{r1, r2, lr}
82008d50:	e0030092 	mul	r3, r2, r0
82008d54:	e0411003 	sub	r1, r1, r3
82008d58:	e12fff1e 	bx	lr

82008d5c <__divsi3>:
82008d5c:	e3510000 	cmp	r1, #0
82008d60:	0a000043 	beq	82008e74 <.divsi3_skip_div0_test+0x110>

82008d64 <.divsi3_skip_div0_test>:
82008d64:	e020c001 	eor	ip, r0, r1
82008d68:	42611000 	rsbmi	r1, r1, #0
82008d6c:	e2512001 	subs	r2, r1, #1
82008d70:	0a000027 	beq	82008e14 <.divsi3_skip_div0_test+0xb0>
82008d74:	e1b03000 	movs	r3, r0
82008d78:	42603000 	rsbmi	r3, r0, #0
82008d7c:	e1530001 	cmp	r3, r1
82008d80:	9a000026 	bls	82008e20 <.divsi3_skip_div0_test+0xbc>
82008d84:	e1110002 	tst	r1, r2
82008d88:	0a000028 	beq	82008e30 <.divsi3_skip_div0_test+0xcc>
82008d8c:	e311020e 	tst	r1, #-536870912	; 0xe0000000
82008d90:	01a01181 	lsleq	r1, r1, #3
82008d94:	03a02008 	moveq	r2, #8
82008d98:	13a02001 	movne	r2, #1
82008d9c:	e3510201 	cmp	r1, #268435456	; 0x10000000
82008da0:	31510003 	cmpcc	r1, r3
82008da4:	31a01201 	lslcc	r1, r1, #4
82008da8:	31a02202 	lslcc	r2, r2, #4
82008dac:	3afffffa 	bcc	82008d9c <.divsi3_skip_div0_test+0x38>
82008db0:	e3510102 	cmp	r1, #-2147483648	; 0x80000000
82008db4:	31510003 	cmpcc	r1, r3
82008db8:	31a01081 	lslcc	r1, r1, #1
82008dbc:	31a02082 	lslcc	r2, r2, #1
82008dc0:	3afffffa 	bcc	82008db0 <.divsi3_skip_div0_test+0x4c>
82008dc4:	e3a00000 	mov	r0, #0
82008dc8:	e1530001 	cmp	r3, r1
82008dcc:	20433001 	subcs	r3, r3, r1
82008dd0:	21800002 	orrcs	r0, r0, r2
82008dd4:	e15300a1 	cmp	r3, r1, lsr #1
82008dd8:	204330a1 	subcs	r3, r3, r1, lsr #1
82008ddc:	218000a2 	orrcs	r0, r0, r2, lsr #1
82008de0:	e1530121 	cmp	r3, r1, lsr #2
82008de4:	20433121 	subcs	r3, r3, r1, lsr #2
82008de8:	21800122 	orrcs	r0, r0, r2, lsr #2
82008dec:	e15301a1 	cmp	r3, r1, lsr #3
82008df0:	204331a1 	subcs	r3, r3, r1, lsr #3
82008df4:	218001a2 	orrcs	r0, r0, r2, lsr #3
82008df8:	e3530000 	cmp	r3, #0
82008dfc:	11b02222 	lsrsne	r2, r2, #4
82008e00:	11a01221 	lsrne	r1, r1, #4
82008e04:	1affffef 	bne	82008dc8 <.divsi3_skip_div0_test+0x64>
82008e08:	e35c0000 	cmp	ip, #0
82008e0c:	42600000 	rsbmi	r0, r0, #0
82008e10:	e12fff1e 	bx	lr
82008e14:	e13c0000 	teq	ip, r0
82008e18:	42600000 	rsbmi	r0, r0, #0
82008e1c:	e12fff1e 	bx	lr
82008e20:	33a00000 	movcc	r0, #0
82008e24:	01a00fcc 	asreq	r0, ip, #31
82008e28:	03800001 	orreq	r0, r0, #1
82008e2c:	e12fff1e 	bx	lr
82008e30:	e3510801 	cmp	r1, #65536	; 0x10000
82008e34:	21a01821 	lsrcs	r1, r1, #16
82008e38:	23a02010 	movcs	r2, #16
82008e3c:	33a02000 	movcc	r2, #0
82008e40:	e3510c01 	cmp	r1, #256	; 0x100
82008e44:	21a01421 	lsrcs	r1, r1, #8
82008e48:	22822008 	addcs	r2, r2, #8
82008e4c:	e3510010 	cmp	r1, #16
82008e50:	21a01221 	lsrcs	r1, r1, #4
82008e54:	22822004 	addcs	r2, r2, #4
82008e58:	e3510004 	cmp	r1, #4
82008e5c:	82822003 	addhi	r2, r2, #3
82008e60:	908220a1 	addls	r2, r2, r1, lsr #1
82008e64:	e35c0000 	cmp	ip, #0
82008e68:	e1a00233 	lsr	r0, r3, r2
82008e6c:	42600000 	rsbmi	r0, r0, #0
82008e70:	e12fff1e 	bx	lr
82008e74:	e3500000 	cmp	r0, #0
82008e78:	c3e00102 	mvngt	r0, #-2147483648	; 0x80000000
82008e7c:	b3a00102 	movlt	r0, #-2147483648	; 0x80000000
82008e80:	ea000007 	b	82008ea4 <__aeabi_idiv0>

82008e84 <__aeabi_idivmod>:
82008e84:	e3510000 	cmp	r1, #0
82008e88:	0afffff9 	beq	82008e74 <.divsi3_skip_div0_test+0x110>
82008e8c:	e92d4003 	push	{r0, r1, lr}
82008e90:	ebffffb3 	bl	82008d64 <.divsi3_skip_div0_test>
82008e94:	e8bd4006 	pop	{r1, r2, lr}
82008e98:	e0030092 	mul	r3, r2, r0
82008e9c:	e0411003 	sub	r1, r1, r3
82008ea0:	e12fff1e 	bx	lr

82008ea4 <__aeabi_idiv0>:
82008ea4:	e12fff1e 	bx	lr

82008ea8 <.LC0>:
82008ea8:	20667562 	rsbcs	r7, r6, r2, ror #10
82008eac:	657a6973 	ldrbvs	r6, [sl, #-2419]!	; 0xfffff68d
82008eb0:	746f6e20 	strbtvc	r6, [pc], #-3616	; 82008eb8 <.LC0+0x10>
82008eb4:	6f6e6520 	svcvs	0x006e6520
82008eb8:	2e686775 	mcrcs	7, 3, r6, cr8, cr5, {3}
82008ebc:	00000a0d 	andeq	r0, r0, sp, lsl #20

82008ec0 <.LC1>:
82008ec0:	00003b3b 	andeq	r3, r0, fp, lsr fp

82008ec4 <.LC2>:
82008ec4:	00000a0d 	andeq	r0, r0, sp, lsl #20

82008ec8 <.LC0>:
82008ec8:	3a20524c 	bcc	8281d800 <_end+0x812fb0>
82008ecc:	0d782520 	cfldr64eq	mvdx2, [r8, #-128]!	; 0xffffff80
82008ed0:	0000000a 	andeq	r0, r0, sl

82008ed4 <.LC1>:
82008ed4:	3a205053 	bcc	8281d028 <_end+0x8127d8>
82008ed8:	0d782520 	cfldr64eq	mvdx2, [r8, #-128]!	; 0xffffff80
82008edc:	0000000a 	andeq	r0, r0, sl

82008ee0 <.LC2>:
82008ee0:	45524548 	ldrbmi	r4, [r2, #-1352]	; 0xfffffab8
82008ee4:	00000a0d 	andeq	r0, r0, sp, lsl #20

82008ee8 <.LC3>:
82008ee8:	72737063 	rsbsvc	r7, r3, #99	; 0x63
82008eec:	25203a20 	strcs	r3, [r0, #-2592]!	; 0xfffff5e0
82008ef0:	0a0d2078 	beq	823510d8 <_end+0x346888>
82008ef4:	00000000 	andeq	r0, r0, r0

82008ef8 <.LC4>:
82008ef8:	204d454d 	subcs	r4, sp, sp, asr #10
82008efc:	52444441 	subpl	r4, r4, #1090519040	; 0x41000000
82008f00:	25203a20 	strcs	r3, [r0, #-2592]!	; 0xfffff5e0
82008f04:	2d2d2070 	stccs	0, cr2, [sp, #-448]!	; 0xfffffe40
82008f08:	4f43202d 	svcmi	0x0043202d
82008f0c:	4e45544e 	cdpmi	4, 4, cr5, cr5, cr14, {2}
82008f10:	203a2054 	eorscs	r2, sl, r4, asr r0
82008f14:	0a0d7825 	beq	82366fb0 <_end+0x35c760>
82008f18:	00000000 	andeq	r0, r0, r0

82008f1c <.LC5>:
82008f1c:	75206e49 	strvc	r6, [r0, #-3657]!	; 0xfffff1b7
82008f20:	20726573 	rsbscs	r6, r2, r3, ror r5
82008f24:	65646f6d 	strbvs	r6, [r4, #-3949]!	; 0xfffff093
82008f28:	7063202e 	rsbvc	r2, r3, lr, lsr #32
82008f2c:	6d207273 	sfmvs	f7, 4, [r0, #-460]!	; 0xfffffe34
82008f30:	2065646f 	rsbcs	r6, r5, pc, ror #8
82008f34:	73746962 	cmnvc	r4, #1605632	; 0x188000
82008f38:	78253a20 	stmdavc	r5!, {r5, r9, fp, ip, sp}
82008f3c:	00000a0d 	andeq	r0, r0, sp, lsl #20

82008f40 <.LC6>:
82008f40:	73206e49 			; <UNDEFINED> instruction: 0x73206e49
82008f44:	65747379 	ldrbvs	r7, [r4, #-889]!	; 0xfffffc87
82008f48:	6f6d206d 	svcvs	0x006d206d
82008f4c:	202e6564 	eorcs	r6, lr, r4, ror #10
82008f50:	72737063 	rsbsvc	r7, r3, #99	; 0x63
82008f54:	646f6d20 	strbtvs	r6, [pc], #-3360	; 82008f5c <.LC6+0x1c>
82008f58:	69622065 	stmdbvs	r2!, {r0, r2, r5, r6, sp}^
82008f5c:	3a207374 	bcc	82825d34 <_end+0x81b4e4>
82008f60:	0a0d7825 	beq	82366ffc <_end+0x35c7ac>
82008f64:	00000000 	andeq	r0, r0, r0

82008f68 <.LC7>:
82008f68:	69206e49 	stmdbvs	r0!, {r0, r3, r6, r9, sl, fp, sp, lr}
82008f6c:	6d207172 	stfvss	f7, [r0, #-456]!	; 0xfffffe38
82008f70:	2e65646f 	cdpcs	4, 6, cr6, cr5, cr15, {3}
82008f74:	73706320 	cmnvc	r0, #32, 6	; 0x80000000
82008f78:	6f6d2072 	svcvs	0x006d2072
82008f7c:	62206564 	eorvs	r6, r0, #100, 10	; 0x19000000
82008f80:	20737469 	rsbscs	r7, r3, r9, ror #8
82008f84:	0d78253a 	cfldr64eq	mvdx2, [r8, #-232]!	; 0xffffff18
82008f88:	0000000a 	andeq	r0, r0, sl

82008f8c <.LC8>:
82008f8c:	6b206e49 	blvs	828248b8 <_end+0x81a068>
82008f90:	656e7265 	strbvs	r7, [lr, #-613]!	; 0xfffffd9b
82008f94:	6f6d206c 	svcvs	0x006d206c
82008f98:	202e6564 	eorcs	r6, lr, r4, ror #10
82008f9c:	72737063 	rsbsvc	r7, r3, #99	; 0x63
82008fa0:	646f6d20 	strbtvs	r6, [pc], #-3360	; 82008fa8 <.LC8+0x1c>
82008fa4:	69622065 	stmdbvs	r2!, {r0, r2, r5, r6, sp}^
82008fa8:	3a207374 	bcc	82825d80 <_end+0x81b530>
82008fac:	0a0d7825 	beq	82367048 <_end+0x35c7f8>
82008fb0:	00000000 	andeq	r0, r0, r0

82008fb4 <.LC9>:
82008fb4:	3a203052 	bcc	82815104 <_end+0x80a8b4>
82008fb8:	2d782520 	cfldr64cs	mvdx2, [r8, #-128]!	; 0xffffff80
82008fbc:	31522d2d 	cmpcc	r2, sp, lsr #26
82008fc0:	25203a20 	strcs	r3, [r0, #-2592]!	; 0xfffff5e0
82008fc4:	2d2d2d78 	stccs	13, cr2, [sp, #-480]!	; 0xfffffe20
82008fc8:	3a203252 	bcc	82815918 <_end+0x80b0c8>
82008fcc:	2d782520 	cfldr64cs	mvdx2, [r8, #-128]!	; 0xffffff80
82008fd0:	33522d2d 	cmpcc	r2, #2880	; 0xb40
82008fd4:	25203a20 	strcs	r3, [r0, #-2592]!	; 0xfffff5e0
82008fd8:	000a0d78 	andeq	r0, sl, r8, ror sp

82008fdc <.LC10>:
82008fdc:	6e697250 	mcrvs	2, 3, r7, cr9, cr0, {2}
82008fe0:	72662074 	rsbvc	r2, r6, #116	; 0x74
82008fe4:	6c206565 	cfstr32vs	mvfx6, [r0], #-404	; 0xfffffe6c
82008fe8:	20747369 	rsbscs	r7, r4, r9, ror #6
82008fec:	6d6f7266 	sfmvs	f7, 2, [pc, #-408]!	; 82008e5c <.divsi3_skip_div0_test+0xf8>
82008ff0:	61656820 	cmnvs	r5, r0, lsr #16
82008ff4:	000a0d64 	andeq	r0, sl, r4, ror #26

82008ff8 <.LC11>:
82008ff8:	20207025 	eorcs	r7, r0, r5, lsr #32
82008ffc:	00000000 	andeq	r0, r0, r0

82009000 <.LC12>:
82009000:	206d656d 	rsbcs	r6, sp, sp, ror #10
82009004:	65676170 	strbvs	r6, [r7, #-368]!	; 0xfffffe90
82009008:	3a646920 	bcc	83923490 <_end+0x1918c40>
8200900c:	20206425 	eorcs	r6, r0, r5, lsr #8
82009010:	00000000 	andeq	r0, r0, r0

82009014 <.LC13>:
82009014:	206d656d 	rsbcs	r6, sp, sp, ror #10
82009018:	65676170 	strbvs	r6, [r7, #-368]!	; 0xfffffe90
8200901c:	61747320 	cmnvs	r4, r0, lsr #6
82009020:	3a737574 	bcc	83ce65f8 <_end+0x1cdbda8>
82009024:	0a0d6425 	beq	823620c0 <_end+0x357870>
82009028:	00000000 	andeq	r0, r0, r0

8200902c <.LC14>:
8200902c:	6e697250 	mcrvs	2, 3, r7, cr9, cr0, {2}
82009030:	72662074 	rsbvc	r2, r6, #116	; 0x74
82009034:	6c206565 	cfstr32vs	mvfx6, [r0], #-404	; 0xfffffe6c
82009038:	20747369 	rsbscs	r7, r4, r9, ror #6
8200903c:	6d6f7266 	sfmvs	f7, 2, [pc, #-408]!	; 82008eac <.LC0+0x4>
82009040:	646e6520 	strbtvs	r6, [lr], #-1312	; 0xfffffae0
82009044:	00000a0d 	andeq	r0, r0, sp, lsl #20

82009048 <.LC15>:
82009048:	6e697250 	mcrvs	2, 3, r7, cr9, cr0, {2}
8200904c:	6e692074 	mcrvs	0, 3, r2, cr9, cr4, {3}
82009050:	20657375 	rsbcs	r7, r5, r5, ror r3
82009054:	7473696c 	ldrbtvc	r6, [r3], #-2412	; 0xfffff694
82009058:	00000a0d 	andeq	r0, r0, sp, lsl #20

8200905c <.LC16>:
8200905c:	72646461 	rsbvc	r6, r4, #1627389952	; 0x61000000
82009060:	2070253d 	rsbscs	r2, r0, sp, lsr r5
82009064:	6e6f632c 	cdpvs	3, 6, cr6, cr15, cr12, {1}
82009068:	746e6574 	strbtvc	r6, [lr], #-1396	; 0xfffffa8c
8200906c:	0d70253d 	cfldr64eq	mvdx2, [r0, #-244]!	; 0xffffff0c
82009070:	0000000a 	andeq	r0, r0, sl

82009074 <.LC0>:
82009074:	20667562 	rsbcs	r7, r6, r2, ror #10
82009078:	657a6973 	ldrbvs	r6, [sl, #-2419]!	; 0xfffff68d
8200907c:	746f6e20 	strbtvc	r6, [pc], #-3616	; 82009084 <.LC0+0x10>
82009080:	6f6e6520 	svcvs	0x006e6520
82009084:	2e686775 	mcrcs	7, 3, r6, cr8, cr5, {3}
82009088:	00000a0d 	andeq	r0, r0, sp, lsl #20

8200908c <.LC1>:
8200908c:	00000a0d 	andeq	r0, r0, sp, lsl #20

82009090 <.LC2>:
82009090:	696c7053 	stmdbvs	ip!, {r0, r1, r4, r6, ip, sp, lr}^
82009094:	75732074 	ldrbvc	r2, [r3, #-116]!	; 0xffffff8c
82009098:	72696462 	rsbvc	r6, r9, #1644167168	; 0x62000000
8200909c:	73696c20 	cmnvc	r9, #32, 24	; 0x2000
820090a0:	74732074 	ldrbtvc	r2, [r3], #-116	; 0xffffff8c
820090a4:	676e6972 			; <UNDEFINED> instruction: 0x676e6972
820090a8:	0000002e 	andeq	r0, r0, lr, lsr #32

820090ac <.LC3>:
820090ac:	00003b3b 	andeq	r3, r0, fp, lsr fp

820090b0 <.LC4>:
820090b0:	00000a0d 	andeq	r0, r0, sp, lsl #20

820090b4 <.LC5>:
820090b4:	65675f5f 	strbvs	r5, [r7, #-3935]!	; 0xfffff0a1
820090b8:	62757374 	rsbsvs	r7, r5, #116, 6	; 0xd0000001
820090bc:	20726964 	rsbscs	r6, r2, r4, ror #18
820090c0:	74736554 	ldrbtvc	r6, [r3], #-1364	; 0xfffffaac
820090c4:	646e6520 	strbtvs	r6, [lr], #-1312	; 0xfffffae0
820090c8:	0a0d0a0d 	beq	8234b904 <_end+0x3410b4>
820090cc:	00000000 	andeq	r0, r0, r0

820090d0 <.LC6>:
820090d0:	696c7053 	stmdbvs	ip!, {r0, r1, r4, r6, ip, sp, lr}^
820090d4:	69662074 	stmdbvs	r6!, {r2, r4, r5, r6, sp}^
820090d8:	6c20656c 	cfstr32vs	mvfx6, [r0], #-432	; 0xfffffe50
820090dc:	20747369 	rsbscs	r7, r4, r9, ror #6
820090e0:	69727473 	ldmdbvs	r2!, {r0, r1, r4, r5, r6, sl, ip, sp, lr}^
820090e4:	002e676e 	eoreq	r6, lr, lr, ror #14

820090e8 <.LC7>:
820090e8:	65675f5f 	strbvs	r5, [r7, #-3935]!	; 0xfffff0a1
820090ec:	69646674 	stmdbvs	r4!, {r2, r4, r5, r6, r9, sl, sp, lr}^
820090f0:	65542072 	ldrbvs	r2, [r4, #-114]	; 0xffffff8e
820090f4:	65207473 	strvs	r7, [r0, #-1139]!	; 0xfffffb8d
820090f8:	0a0d646e 	beq	823622b8 <_end+0x357a68>
820090fc:	00000000 	andeq	r0, r0, r0

82009100 <.LC8>:
82009100:	694c0a0d 	stmdbvs	ip, {r0, r2, r3, r9, fp}^
82009104:	73207473 			; <UNDEFINED> instruction: 0x73207473
82009108:	69646275 	stmdbvs	r4!, {r0, r2, r4, r5, r6, r9, sp, lr}^
8200910c:	61207372 			; <UNDEFINED> instruction: 0x61207372
82009110:	6620646e 	strtvs	r6, [r0], -lr, ror #8
82009114:	73656c69 	cmnvc	r5, #26880	; 0x6900
82009118:	00000a0d 	andeq	r0, r0, sp, lsl #20

8200911c <.LC9>:
8200911c:	0a0d0a0d 	beq	8234b958 <_end+0x341108>
82009120:	6e616843 	cdpvs	8, 6, cr6, cr1, cr3, {2}
82009124:	64206567 	strtvs	r6, [r0], #-1383	; 0xfffffa99
82009128:	74207269 	strtvc	r7, [r0], #-617	; 0xfffffd97
8200912c:	2e747365 	cdpcs	3, 7, cr7, cr4, cr5, {3}
82009130:	00000000 	andeq	r0, r0, r0

82009134 <.LC10>:
82009134:	7665642f 	strbtvc	r6, [r5], -pc, lsr #8
82009138:	00000000 	andeq	r0, r0, r0

8200913c <.LC11>:
8200913c:	69440a0d 	stmdbvs	r4, {r0, r2, r3, r9, fp}^
82009140:	6f6e2072 	svcvs	0x006e2072
82009144:	6f662074 	svcvs	0x00662074
82009148:	0d646e75 	stcleq	14, cr6, [r4, #-468]!	; 0xfffffe2c
8200914c:	0000000a 	andeq	r0, r0, sl

82009150 <.LC12>:
82009150:	00002e2e 	andeq	r2, r0, lr, lsr #28

82009154 <.LC13>:
82009154:	694c0a0d 	stmdbvs	ip, {r0, r2, r3, r9, fp}^
82009158:	73207473 			; <UNDEFINED> instruction: 0x73207473
8200915c:	69646275 	stmdbvs	r4!, {r0, r2, r4, r5, r6, r9, sp, lr}^
82009160:	61207372 			; <UNDEFINED> instruction: 0x61207372
82009164:	6620646e 	strtvs	r6, [r0], -lr, ror #8
82009168:	73656c69 	cmnvc	r5, #26880	; 0x6900
8200916c:	00000000 	andeq	r0, r0, r0

82009170 <.LC0>:
82009170:	7665642f 	strbtvc	r6, [r5], -pc, lsr #8
82009174:	00000000 	andeq	r0, r0, r0

82009178 <.LC1>:
82009178:	6370692f 	cmnvs	r0, #770048	; 0xbc000
8200917c:	00000000 	andeq	r0, r0, r0

82009180 <.LC2>:
82009180:	6e6f632f 	cdpvs	3, 6, cr6, cr15, cr15, {1}
82009184:	656c6f73 	strbvs	r6, [ip, #-3955]!	; 0xfffff08d
82009188:	006e695f 	rsbeq	r6, lr, pc, asr r9
8200918c:	00000000 	andeq	r0, r0, r0

82009190 <.LC3>:
82009190:	6e6f632f 	cdpvs	3, 6, cr6, cr15, cr15, {1}
82009194:	656c6f73 	strbvs	r6, [ip, #-3955]!	; 0xfffff08d
82009198:	74756f5f 	ldrbtvc	r6, [r5], #-3935	; 0xfffff0a1
8200919c:	00000000 	andeq	r0, r0, r0

820091a0 <.LC4>:
820091a0:	7974742f 	ldmdbvc	r4!, {r0, r1, r2, r3, r5, sl, ip, sp, lr}^
820091a4:	00000030 	andeq	r0, r0, r0, lsr r0

820091a8 <.LC5>:
820091a8:	6370692f 	cmnvs	r0, #770048	; 0xbc000
820091ac:	00000030 	andeq	r0, r0, r0, lsr r0

820091b0 <.LC6>:
820091b0:	6f6f722f 	svcvs	0x006f722f
820091b4:	00000074 	andeq	r0, r0, r4, ror r0

820091b8 <.LC7>:
820091b8:	00002e2e 	andeq	r2, r0, lr, lsr #28

820091bc <.LC0>:
820091bc:	2b2b0a0d 	blcs	82acb9f8 <_end+0xac11a8>
820091c0:	2b2b2b2b 	blcs	82ad3e74 <_end+0xac9624>
820091c4:	2b2b2b2b 	blcs	82ad3e78 <_end+0xac9628>
820091c8:	2b2b2b2b 	blcs	82ad3e7c <_end+0xac962c>
820091cc:	2b2b2b2b 	blcs	82ad3e80 <_end+0xac9630>
820091d0:	2b2b2b2b 	blcs	82ad3e84 <_end+0xac9634>
820091d4:	2b2b2b2b 	blcs	82ad3e88 <_end+0xac9638>
820091d8:	2b2b2b2b 	blcs	82ad3e8c <_end+0xac963c>
820091dc:	2b2b2b2b 	blcs	82ad3e90 <_end+0xac9640>
820091e0:	2b2b2b2b 	blcs	82ad3e94 <_end+0xac9644>
820091e4:	0d2b2b2b 	fstmdbxeq	fp!, {d2-d22}	;@ Deprecated
820091e8:	0000000a 	andeq	r0, r0, sl

820091ec <.LC1>:
820091ec:	74736554 	ldrbtvc	r6, [r3], #-1364	; 0xfffffaac
820091f0:	73797320 	cmnvc	r9, #32, 6	; 0x80000000
820091f4:	6c6c6163 	stfvse	f6, [ip], #-396	; 0xfffffe74
820091f8:	6c616d20 	stclvs	13, cr6, [r1], #-128	; 0xffffff80
820091fc:	5f636f6c 	svcpl	0x00636f6c
82009200:	206b6c62 	rsbcs	r6, fp, r2, ror #24
82009204:	20646e61 	rsbcs	r6, r4, r1, ror #28
82009208:	6572666d 	ldrbvs	r6, [r2, #-1645]!	; 0xfffff993
8200920c:	6c625f65 	stclvs	15, cr5, [r2], #-404	; 0xfffffe6c
82009210:	7566206b 	strbvc	r2, [r6, #-107]!	; 0xffffff95
82009214:	6974636e 	ldmdbvs	r4!, {r1, r2, r3, r5, r6, r8, r9, sp, lr}^
82009218:	0d2e6e6f 	stceq	14, cr6, [lr, #-444]!	; 0xfffffe44
8200921c:	0000000a 	andeq	r0, r0, sl

82009220 <.LC2>:
82009220:	20747331 	rsbscs	r7, r4, r1, lsr r3
82009224:	206b6c62 	rsbcs	r6, fp, r2, ror #24
82009228:	72617473 	rsbvc	r7, r1, #1929379840	; 0x73000000
8200922c:	64612074 	strbtvs	r2, [r1], #-116	; 0xffffff8c
82009230:	3d207264 	sfmcc	f7, 4, [r0, #-400]!	; 0xfffffe70
82009234:	0a0d7025 	beq	823652d0 <_end+0x35aa80>
82009238:	00000000 	andeq	r0, r0, r0

8200923c <.LC3>:
8200923c:	20646e32 	rsbcs	r6, r4, r2, lsr lr
82009240:	206b6c62 	rsbcs	r6, fp, r2, ror #24
82009244:	72617473 	rsbvc	r7, r1, #1929379840	; 0x73000000
82009248:	64612074 	strbtvs	r2, [r1], #-116	; 0xffffff8c
8200924c:	3d207264 	sfmcc	f7, 4, [r0, #-400]!	; 0xfffffe70
82009250:	0a0d7025 	beq	823652ec <_end+0x35aa9c>
82009254:	00000000 	andeq	r0, r0, r0

82009258 <.LC4>:
82009258:	20647233 	rsbcs	r7, r4, r3, lsr r2
8200925c:	206b6c62 	rsbcs	r6, fp, r2, ror #24
82009260:	72617473 	rsbvc	r7, r1, #1929379840	; 0x73000000
82009264:	64612074 	strbtvs	r2, [r1], #-116	; 0xffffff8c
82009268:	3d207264 	sfmcc	f7, 4, [r0, #-400]!	; 0xfffffe70
8200926c:	0a0d7025 	beq	82365308 <_end+0x35aab8>
82009270:	00000000 	andeq	r0, r0, r0

82009274 <.LC5>:
82009274:	20776f4e 	rsbscs	r6, r7, lr, asr #30
82009278:	74736574 	ldrbtvc	r6, [r3], #-1396	; 0xfffffa8c
8200927c:	73797320 	cmnvc	r9, #32, 6	; 0x80000000
82009280:	6c6c6163 	stfvse	f6, [ip], #-396	; 0xfffffe74
82009284:	726f6620 	rsbvc	r6, pc, #32, 12	; 0x2000000
82009288:	7566206b 	strbvc	r2, [r6, #-107]!	; 0xffffff95
8200928c:	6974636e 	ldmdbvs	r4!, {r1, r2, r3, r5, r6, r8, r9, sp, lr}^
82009290:	0d2e6e6f 	stceq	14, cr6, [lr, #-444]!	; 0xfffffe44
82009294:	0000000a 	andeq	r0, r0, sl

82009298 <.LC6>:
82009298:	65746641 	ldrbvs	r6, [r4, #-1601]!	; 0xfffff9bf
8200929c:	6f662072 	svcvs	0x00662072
820092a0:	2c206b72 			; <UNDEFINED> instruction: 0x2c206b72
820092a4:	253d5f72 	ldrcs	r5, [sp, #-3954]!	; 0xfffff08e
820092a8:	000a0d64 	andeq	r0, sl, r4, ror #26

820092ac <.LC7>:
820092ac:	206d2749 	rsbcs	r2, sp, r9, asr #14
820092b0:	72726170 	rsbsvc	r6, r2, #112, 2
820092b4:	20746e65 	rsbscs	r6, r4, r5, ror #28
820092b8:	6b736174 	blvs	83ce1890 <_end+0x1cd7040>
820092bc:	69742c20 	ldmdbvs	r4!, {r5, sl, fp, sp}^
820092c0:	64253d64 	strtvs	r3, [r5], #-3428	; 0xfffff29c
820092c4:	00000a0d 	andeq	r0, r0, sp, lsl #20

820092c8 <.LC8>:
820092c8:	206d2749 	rsbcs	r2, sp, r9, asr #14
820092cc:	6c696863 	stclvs	8, cr6, [r9], #-396	; 0xfffffe74
820092d0:	61742064 	cmnvs	r4, r4, rrx
820092d4:	2c2e6b73 			; <UNDEFINED> instruction: 0x2c2e6b73
820092d8:	64697420 	strbtvs	r7, [r9], #-1056	; 0xfffffbe0
820092dc:	0d64253d 	cfstr64eq	mvdx2, [r4, #-244]!	; 0xffffff0c
820092e0:	0000000a 	andeq	r0, r0, sl

820092e4 <.LC0>:
820092e4:	70206e49 	eorvc	r6, r0, r9, asr #28
820092e8:	65666572 	strbvs	r6, [r6, #-1394]!	; 0xfffffa8e
820092ec:	5f686374 	svcpl	0x00686374
820092f0:	726f6261 	rsbvc	r6, pc, #268435462	; 0x10000006
820092f4:	61685f74 	smcvs	34292	; 0x85f4
820092f8:	656c646e 	strbvs	r6, [ip, #-1134]!	; 0xfffffb92
820092fc:	000a0d72 	andeq	r0, sl, r2, ror sp

82009300 <.LC1>:
82009300:	6b736174 	blvs	83ce18d8 <_end+0x1cd7088>
82009304:	666e695f 			; <UNDEFINED> instruction: 0x666e695f
82009308:	6461206f 	strbtvs	r2, [r1], #-111	; 0xffffff91
8200930c:	3a207264 	bcc	82825ca4 <_end+0x81b454>
82009310:	0a0d7025 	beq	823653ac <_end+0x35ab5c>
82009314:	00000000 	andeq	r0, r0, r0

82009318 <.LC2>:
82009318:	20746770 	rsbscs	r6, r4, r0, ror r7
8200931c:	65736162 	ldrbvs	r6, [r3, #-354]!	; 0xfffffe9e
82009320:	64646120 	strbtvs	r6, [r4], #-288	; 0xfffffee0
82009324:	253a2072 	ldrcs	r2, [sl, #-114]!	; 0xffffff8e
82009328:	000a0d70 	andeq	r0, sl, r0, ror sp

8200932c <.LC3>:
8200932c:	615f726c 	cmpvs	pc, ip, ror #4
82009330:	74726f62 	ldrbtvc	r6, [r2], #-3938	; 0xfffff09e
82009334:	78253a20 	stmdavc	r5!, {r5, r9, fp, ip, sp}
82009338:	0a0d0a0d 	beq	8234bb74 <_end+0x341324>
8200933c:	00000000 	andeq	r0, r0, r0

82009340 <.LC4>:
82009340:	6b736174 	blvs	83ce1918 <_end+0x1cd70c8>
82009344:	6e6f635f 	mcrvs	3, 3, r6, cr15, cr15, {2}
82009348:	74786574 	ldrbtvc	r6, [r8], #-1396	; 0xfffffa8c
8200934c:	0a0d3a20 	beq	82357bd4 <_end+0x34d384>
82009350:	00000000 	andeq	r0, r0, r0

82009354 <.LC5>:
82009354:	3a203072 	bcc	82815524 <_end+0x80acd4>
82009358:	20207825 	eorcs	r7, r0, r5, lsr #16
8200935c:	20317220 	eorscs	r7, r1, r0, lsr #4
82009360:	2078253a 	rsbscs	r2, r8, sl, lsr r5
82009364:	32722020 	rsbscc	r2, r2, #32
82009368:	78253a20 	stmdavc	r5!, {r5, r9, fp, ip, sp}
8200936c:	72202020 	eorvc	r2, r0, #32
82009370:	253a2033 	ldrcs	r2, [sl, #-51]!	; 0xffffffcd
82009374:	000a0d78 	andeq	r0, sl, r8, ror sp

82009378 <.LC6>:
82009378:	3a203472 	bcc	82816548 <_end+0x80bcf8>
8200937c:	20207825 	eorcs	r7, r0, r5, lsr #16
82009380:	20357220 	eorscs	r7, r5, r0, lsr #4
82009384:	2078253a 	rsbscs	r2, r8, sl, lsr r5
82009388:	37722020 	ldrbcc	r2, [r2, -r0, lsr #32]!
8200938c:	78253a20 	stmdavc	r5!, {r5, r9, fp, ip, sp}
82009390:	72202020 	eorvc	r2, r0, #32
82009394:	253a2037 	ldrcs	r2, [sl, #-55]!	; 0xffffffc9
82009398:	000a0d78 	andeq	r0, sl, r8, ror sp

8200939c <.LC7>:
8200939c:	3a203872 	bcc	8281756c <_end+0x80cd1c>
820093a0:	20207825 	eorcs	r7, r0, r5, lsr #16
820093a4:	20397220 	eorscs	r7, r9, r0, lsr #4
820093a8:	2078253a 	rsbscs	r2, r8, sl, lsr r5
820093ac:	31722020 	cmncc	r2, r0, lsr #32
820093b0:	253a2030 	ldrcs	r2, [sl, #-48]!	; 0xffffffd0
820093b4:	20202078 	eorcs	r2, r0, r8, ror r0
820093b8:	20313172 	eorscs	r3, r1, r2, ror r1
820093bc:	0d78253a 	cfldr64eq	mvdx2, [r8, #-232]!	; 0xffffff18
820093c0:	0000000a 	andeq	r0, r0, sl

820093c4 <.LC8>:
820093c4:	20323172 	eorscs	r3, r2, r2, ror r1
820093c8:	2078253a 	rsbscs	r2, r8, sl, lsr r5
820093cc:	31722020 	cmncc	r2, r0, lsr #32
820093d0:	253a2034 	ldrcs	r2, [sl, #-52]!	; 0xffffffcc
820093d4:	000a0d78 	andeq	r0, sl, r8, ror sp

820093d8 <.LC9>:
820093d8:	64206e49 	strtvs	r6, [r0], #-3657	; 0xfffff1b7
820093dc:	5f617461 	svcpl	0x00617461
820093e0:	726f6261 	rsbvc	r6, pc, #268435462	; 0x10000006
820093e4:	61685f74 	smcvs	34292	; 0x85f4
820093e8:	656c646e 	strbvs	r6, [ip, #-1134]!	; 0xfffffb92
820093ec:	0d0a0d72 	stceq	13, cr0, [sl, #-456]	; 0xfffffe38
820093f0:	0000000a 	andeq	r0, r0, sl

820093f4 <.LC0>:
820093f4:	3d646974 			; <UNDEFINED> instruction: 0x3d646974
820093f8:	0d206425 	cfstrseq	mvf6, [r0, #-148]!	; 0xffffff6c
820093fc:	0000000a 	andeq	r0, r0, sl

82009400 <.LC1>:
82009400:	6370692f 	cmnvs	r0, #770048	; 0xbc000
82009404:	00000030 	andeq	r0, r0, r0, lsr r0

82009408 <.LC2>:
82009408:	6f727245 	svcvs	0x00727245
8200940c:	662c2072 			; <UNDEFINED> instruction: 0x662c2072
82009410:	253d2064 	ldrcs	r2, [sp, #-100]!	; 0xffffff9c
82009414:	652c2064 	strvs	r2, [ip, #-100]!	; 0xffffff9c
82009418:	0d746978 			; <UNDEFINED> instruction: 0x0d746978
8200941c:	0000000a 	andeq	r0, r0, sl

82009420 <.LC3>:
82009420:	63637553 	cmnvs	r3, #348127232	; 0x14c00000
82009424:	66737365 	ldrbtvs	r7, [r3], -r5, ror #6
82009428:	796c6c75 	stmdbvc	ip!, {r0, r2, r4, r5, r6, sl, fp, sp, lr}^
8200942c:	65706f20 	ldrbvs	r6, [r0, #-3872]!	; 0xfffff0e0
82009430:	7069206e 	rsbvc	r2, r9, lr, rrx
82009434:	2c203063 	stccs	0, cr3, [r0], #-396	; 0xfffffe74
82009438:	3d206466 	cfstrscc	mvf6, [r0, #-408]!	; 0xfffffe68
8200943c:	0a0d6425 	beq	823624d8 <_end+0x357c88>
82009440:	00000000 	andeq	r0, r0, r0

82009444 <.LC4>:
82009444:	646e6553 	strbtvs	r6, [lr], #-1363	; 0xfffffaad
82009448:	65483a20 	strbvs	r3, [r8, #-2592]	; 0xfffff5e0
8200944c:	206f6c6c 	rsbcs	r6, pc, ip, ror #24
82009450:	7373654d 	cmnvc	r3, #322961408	; 0x13400000
82009454:	0d656761 	stcleq	7, cr6, [r5, #-388]!	; 0xfffffe7c
82009458:	0000000a 	andeq	r0, r0, sl

8200945c <.LC5>:
8200945c:	2b2b2b2b 	blcs	82ad4110 <_end+0xac98c0>
82009460:	2b2b2b2b 	blcs	82ad4114 <_end+0xac98c4>
82009464:	2b2b2b2b 	blcs	82ad4118 <_end+0xac98c8>
82009468:	2b2b2b2b 	blcs	82ad411c <_end+0xac98cc>
8200946c:	2b2b2b2b 	blcs	82ad4120 <_end+0xac98d0>
82009470:	2b2b2b2b 	blcs	82ad4124 <_end+0xac98d4>
82009474:	2b2b2b2b 	blcs	82ad4128 <_end+0xac98d8>
82009478:	2b2b2b2b 	blcs	82ad412c <_end+0xac98dc>
8200947c:	2b2b2b2b 	blcs	82ad4130 <_end+0xac98e0>
82009480:	2b2b2b2b 	blcs	82ad4134 <_end+0xac98e4>
82009484:	000a0d2b 	andeq	r0, sl, fp, lsr #26

82009488 <.LC6>:
82009488:	74736554 	ldrbtvc	r6, [r3], #-1364	; 0xfffffaac
8200948c:	63706920 	cmnvs	r0, #32, 18	; 0x80000
82009490:	0a0d2e30 	beq	82354d58 <_end+0x34a508>
82009494:	00000000 	andeq	r0, r0, r0

82009498 <.LC7>:
82009498:	6f727245 	svcvs	0x00727245
8200949c:	662c2072 			; <UNDEFINED> instruction: 0x662c2072
820094a0:	253d2064 	ldrcs	r2, [sp, #-100]!	; 0xffffff9c
820094a4:	652c2064 	strvs	r2, [ip, #-100]!	; 0xffffff9c
820094a8:	20746978 	rsbscs	r6, r4, r8, ror r9
820094ac:	6e69616d 	powvsez	f6, f1, #5.0
820094b0:	00000a0d 	andeq	r0, r0, sp, lsl #20

820094b4 <.LC8>:
820094b4:	63637553 	cmnvs	r3, #348127232	; 0x14c00000
820094b8:	66737365 	ldrbtvs	r7, [r3], -r5, ror #6
820094bc:	796c6c75 	stmdbvc	ip!, {r0, r2, r4, r5, r6, sl, fp, sp, lr}^
820094c0:	65706f20 	ldrbvs	r6, [r0, #-3872]!	; 0xfffff0e0
820094c4:	662c206e 	strtvs	r2, [ip], -lr, rrx
820094c8:	253d2064 	ldrcs	r2, [sp, #-100]!	; 0xffffff9c
820094cc:	000a0d64 	andeq	r0, sl, r4, ror #26

820094d0 <.LC9>:
820094d0:	64253d72 	strtvs	r3, [r5], #-3442	; 0xfffff28e
820094d4:	00000a0d 	andeq	r0, r0, sp, lsl #20

820094d8 <.LC10>:
820094d8:	20746547 	rsbscs	r6, r4, r7, asr #10
820094dc:	0000003a 	andeq	r0, r0, sl, lsr r0

820094e0 <.LC0>:
820094e0:	62616e45 	rsbvs	r6, r1, #1104	; 0x450
820094e4:	4d20656c 	cfstr32mi	mvfx6, [r0, #-432]!	; 0xfffffe50
820094e8:	0d2e554d 	cfstr32eq	mvfx5, [lr, #-308]!	; 0xfffffecc
820094ec:	0000000a 	andeq	r0, r0, sl

820094f0 <.LC1>:
820094f0:	654b0a0d 	strbvs	r0, [fp, #-2573]	; 0xfffff5f3
820094f4:	6c656e72 	stclvs	14, cr6, [r5], #-456	; 0xfffffe38
820094f8:	696e4920 	stmdbvs	lr!, {r5, r8, fp, lr}^
820094fc:	74732074 	ldrbtvc	r2, [r3], #-116	; 0xffffff8c
82009500:	2e747261 	cdpcs	2, 7, cr7, cr4, cr1, {3}
82009504:	0a0d2e2e 	beq	82354dc4 <_end+0x34a574>
82009508:	00000000 	andeq	r0, r0, r0

8200950c <.LC2>:
8200950c:	3a207073 	bcc	828256e0 <_end+0x81ae90>
82009510:	20782520 	rsbscs	r2, r8, r0, lsr #10
82009514:	432d2d2d 			; <UNDEFINED> instruction: 0x432d2d2d
82009518:	5f353150 	svcpl	0x00353150
8200951c:	3a203163 	bcc	82815ab0 <_end+0x80b260>
82009520:	0d782520 	cfldr64eq	mvdx2, [r8, #-128]!	; 0xffffff80
82009524:	0000000a 	andeq	r0, r0, sl

82009528 <.LC3>:
82009528:	52535043 	subspl	r5, r3, #67	; 0x43
8200952c:	67657220 	strbvs	r7, [r5, -r0, lsr #4]!
82009530:	65747369 	ldrbvs	r7, [r4, #-873]!	; 0xfffffc97
82009534:	78252072 	stmdavc	r5!, {r1, r4, r5, r6, sp}
82009538:	00000a0d 	andeq	r0, r0, sp, lsl #20

8200953c <.LC4>:
8200953c:	65637845 	strbvs	r7, [r3, #-2117]!	; 0xfffff7bb
82009540:	6f697470 	svcvs	0x00697470
82009544:	6556206e 	ldrbvs	r2, [r6, #-110]	; 0xffffff92
82009548:	726f7463 	rsbvc	r7, pc, #1660944384	; 0x63000000
8200954c:	73614220 	cmnvc	r1, #32, 4
82009550:	203d2065 	eorscs	r2, sp, r5, rrx
82009554:	0a0d7825 	beq	823675f0 <_end+0x35cda0>
82009558:	00000000 	andeq	r0, r0, r0

8200955c <.LC5>:
8200955c:	6e72656b 	cdpvs	5, 7, cr6, cr2, cr11, {3}
82009560:	655f6c65 	ldrbvs	r6, [pc, #-3173]	; 82008903 <__exit+0x7>
82009564:	6120646e 			; <UNDEFINED> instruction: 0x6120646e
82009568:	65726464 	ldrbvs	r6, [r2, #-1124]!	; 0xfffffb9c
8200956c:	3a207373 	bcc	82826340 <_end+0x81baf0>
82009570:	0a0d7825 	beq	8236760c <_end+0x35cdbc>
82009574:	00000000 	andeq	r0, r0, r0

82009578 <.LC6>:
82009578:	73726946 	cmnvc	r2, #1146880	; 0x118000
8200957c:	61702074 	cmnvs	r0, r4, ror r0
82009580:	6f206567 	svcvs	0x00206567
82009584:	656d2066 	strbvs	r2, [sp, #-102]!	; 0xffffff9a
82009588:	726f656d 	rsbvc	r6, pc, #457179136	; 0x1b400000
8200958c:	64612079 	strbtvs	r2, [r1], #-121	; 0xffffff87
82009590:	73657264 	cmnvc	r5, #100, 4	; 0x40000006
82009594:	74732073 	ldrbtvc	r2, [r3], #-115	; 0xffffff8d
82009598:	20747261 	rsbscs	r7, r4, r1, ror #4
8200959c:	3a207461 	bcc	82826728 <_end+0x81bed8>
820095a0:	0a0d7025 	beq	8236563c <_end+0x35adec>
820095a4:	00000000 	andeq	r0, r0, r0

820095a8 <.LC7>:
820095a8:	696e490a 	stmdbvs	lr!, {r1, r3, r8, fp, lr}^
820095ac:	6c616974 			; <UNDEFINED> instruction: 0x6c616974
820095b0:	20657a69 	rsbcs	r7, r5, r9, ror #20
820095b4:	72657375 	rsbvc	r7, r5, #-738197503	; 0xd4000001
820095b8:	64656c20 	strbtvs	r6, [r5], #-3104	; 0xfffff3e0
820095bc:	2e2e2e73 	mcrcs	14, 1, r2, cr14, cr3, {3}
820095c0:	00000a0d 	andeq	r0, r0, sp, lsl #20

820095c4 <.LC8>:
820095c4:	74696e49 	strbtvc	r6, [r9], #-3657	; 0xfffff1b7
820095c8:	746e6920 	strbtvc	r6, [lr], #-2336	; 0xfffff6e0
820095cc:	75727265 	ldrbvc	r7, [r2, #-613]!	; 0xfffffd9b
820095d0:	0d2e7470 	cfstrseq	mvf7, [lr, #-448]!	; 0xfffffe40
820095d4:	0000000a 	andeq	r0, r0, sl

820095d8 <.LC9>:
820095d8:	74696e49 	strbtvc	r6, [r9], #-3657	; 0xfffff1b7
820095dc:	6d695420 	cfstrdvs	mvd5, [r9, #-128]!	; 0xffffff80
820095e0:	20307265 	eorscs	r7, r0, r5, ror #4
820095e4:	73206f74 			; <UNDEFINED> instruction: 0x73206f74
820095e8:	63746977 	cmnvs	r4, #1949696	; 0x1dc000
820095ec:	61742068 	cmnvs	r4, r8, rrx
820095f0:	2e736b73 	vmovcs.s8	r6, d3[7]
820095f4:	00000a0d 	andeq	r0, r0, sp, lsl #20

820095f8 <.LC10>:
820095f8:	74696e49 	strbtvc	r6, [r9], #-3657	; 0xfffff1b7
820095fc:	73615420 	cmnvc	r1, #32, 8	; 0x20000000
82009600:	5320736b 			; <UNDEFINED> instruction: 0x5320736b
82009604:	6c6c6568 	cfstr64vs	mvdx6, [ip], #-416	; 0xfffffe60
82009608:	0d2e2e2e 	stceq	14, cr2, [lr, #-184]!	; 0xffffff48
8200960c:	0000000a 	andeq	r0, r0, sl

82009610 <.LC11>:
82009610:	65686353 	strbvs	r6, [r8, #-851]!	; 0xfffffcad
82009614:	74532064 	ldrbvc	r2, [r3], #-100	; 0xffffff9c
82009618:	69747261 	ldmdbvs	r4!, {r0, r5, r6, r9, ip, sp, lr}^
8200961c:	2e2e676e 	cdpcs	7, 2, cr6, cr14, cr14, {3}
82009620:	000a0d2e 	andeq	r0, sl, lr, lsr #26

82009624 <.LC0>:
82009624:	68530a0d 	ldmdavs	r3, {r0, r2, r3, r9, fp}^
82009628:	6d20776f 	stcvs	7, cr7, [r0, #-444]!	; 0xfffffe44
8200962c:	726f6d65 	rsbvc	r6, pc, #6464	; 0x1940
82009630:	6f632079 	svcvs	0x00632079
82009634:	6e65746e 	cdpvs	4, 6, cr7, cr5, cr14, {3}
82009638:	00003a74 	andeq	r3, r0, r4, ror sl

8200963c <.LC1>:
8200963c:	00000a0d 	andeq	r0, r0, sp, lsl #20

82009640 <.LC2>:
82009640:	3a207825 	bcc	828276dc <_end+0x81ce8c>
82009644:	00000020 	andeq	r0, r0, r0, lsr #32

82009648 <.LC3>:
82009648:	20207825 	eorcs	r7, r0, r5, lsr #16
8200964c:	00000000 	andeq	r0, r0, r0

82009650 <.LC0>:
82009650:	20656854 	rsbcs	r6, r5, r4, asr r8
82009654:	65676170 	strbvs	r6, [r7, #-368]!	; 0xfffffe90
82009658:	666e6920 	strbtvs	r6, [lr], -r0, lsr #18
8200965c:	6f6e206f 	svcvs	0x006e206f
82009660:	69206564 	stmdbvs	r0!, {r2, r5, r6, r8, sl, sp, lr}
82009664:	6c612073 	stclvs	0, cr2, [r1], #-460	; 0xfffffe34
82009668:	64616572 	strbtvs	r6, [r1], #-1394	; 0xfffffa8e
8200966c:	6e692079 	mcrvs	0, 3, r2, cr9, cr9, {3}
82009670:	65726620 	ldrbvs	r6, [r2, #-1568]!	; 0xfffff9e0
82009674:	696c2065 	stmdbvs	ip!, {r0, r2, r5, r6, sp}^
82009678:	0d2e7473 	cfstrseq	mvf7, [lr, #-460]!	; 0xfffffe34
8200967c:	0000000a 	andeq	r0, r0, sl

82009680 <.LC1>:
82009680:	5f6b6c62 	svcpl	0x006b6c62
82009684:	7473696c 	ldrbtvc	r6, [r3], #-2412	; 0xfffff694
82009688:	6165685f 	cmnvs	r5, pc, asr r8
8200968c:	73692064 	cmnvc	r9, #100	; 0x64
82009690:	706d6520 	rsbvc	r6, sp, r0, lsr #10
82009694:	0d2e7974 			; <UNDEFINED> instruction: 0x0d2e7974
82009698:	0000000a 	andeq	r0, r0, sl

8200969c <.LC2>:
8200969c:	7473614c 	ldrbtvc	r6, [r3], #-332	; 0xfffffeb4
820096a0:	6b6c6220 	blvs	83b21f28 <_end+0x1b176d8>
820096a4:	000a0d2e 	andeq	r0, sl, lr, lsr #26

820096a8 <.LC0>:
820096a8:	72617453 	rsbvc	r7, r1, #1392508928	; 0x53000000
820096ac:	676e6974 			; <UNDEFINED> instruction: 0x676e6974
820096b0:	65735520 	ldrbvs	r5, [r3, #-1312]!	; 0xfffffae0
820096b4:	61542072 	cmpvs	r4, r2, ror r0
820096b8:	30206b73 	eorcc	r6, r0, r3, ror fp
820096bc:	000a0d20 	andeq	r0, sl, r0, lsr #26

820096c0 <.LC1>:
820096c0:	3d646974 			; <UNDEFINED> instruction: 0x3d646974
820096c4:	232c6425 			; <UNDEFINED> instruction: 0x232c6425
820096c8:	0a0d6425 	beq	82362764 <_end+0x357f14>
820096cc:	00000000 	andeq	r0, r0, r0

820096d0 <.LC2>:
820096d0:	72617453 	rsbvc	r7, r1, #1392508928	; 0x53000000
820096d4:	676e6974 			; <UNDEFINED> instruction: 0x676e6974
820096d8:	65735520 	ldrbvs	r5, [r3, #-1312]!	; 0xfffffae0
820096dc:	61542072 	cmpvs	r4, r2, ror r0
820096e0:	31206b73 			; <UNDEFINED> instruction: 0x31206b73
820096e4:	000a0d20 	andeq	r0, sl, r0, lsr #26

820096e8 <.LC3>:
820096e8:	72617453 	rsbvc	r7, r1, #1392508928	; 0x53000000
820096ec:	676e6974 			; <UNDEFINED> instruction: 0x676e6974
820096f0:	65735520 	ldrbvs	r5, [r3, #-1312]!	; 0xfffffae0
820096f4:	61542072 	cmpvs	r4, r2, ror r0
820096f8:	32206b73 	eorcc	r6, r0, #117760	; 0x1cc00
820096fc:	000a0d20 	andeq	r0, sl, r0, lsr #26

82009700 <.LC4>:
82009700:	72617453 	rsbvc	r7, r1, #1392508928	; 0x53000000
82009704:	676e6974 			; <UNDEFINED> instruction: 0x676e6974
82009708:	65735520 	ldrbvs	r5, [r3, #-1312]!	; 0xfffffae0
8200970c:	61542072 	cmpvs	r4, r2, ror r0
82009710:	33206b73 			; <UNDEFINED> instruction: 0x33206b73
82009714:	000a0d20 	andeq	r0, sl, r0, lsr #26

82009718 <.LC5>:
82009718:	72617453 	rsbvc	r7, r1, #1392508928	; 0x53000000
8200971c:	676e6974 			; <UNDEFINED> instruction: 0x676e6974
82009720:	65735520 	ldrbvs	r5, [r3, #-1312]!	; 0xfffffae0
82009724:	61542072 	cmpvs	r4, r2, ror r0
82009728:	34206b73 	strtcc	r6, [r0], #-2931	; 0xfffff48d
8200972c:	000a0d20 	andeq	r0, sl, r0, lsr #26

82009730 <.LC6>:
82009730:	2b2b2b2b 	blcs	82ad43e4 <_end+0xac9b94>
82009734:	2b2b2b2b 	blcs	82ad43e8 <_end+0xac9b98>
82009738:	2b2b2b2b 	blcs	82ad43ec <_end+0xac9b9c>
8200973c:	2b2b2b2b 	blcs	82ad43f0 <_end+0xac9ba0>
82009740:	2b2b2b2b 	blcs	82ad43f4 <_end+0xac9ba4>
82009744:	2b2b2b2b 	blcs	82ad43f8 <_end+0xac9ba8>
82009748:	2b2b2b2b 	blcs	82ad43fc <_end+0xac9bac>
8200974c:	2b2b2b2b 	blcs	82ad4400 <_end+0xac9bb0>
82009750:	2b2b2b2b 	blcs	82ad4404 <_end+0xac9bb4>
82009754:	2b2b2b2b 	blcs	82ad4408 <_end+0xac9bb8>
82009758:	000a0d2b 	andeq	r0, sl, fp, lsr #26

8200975c <.LC7>:
8200975c:	20776f4e 	rsbscs	r6, r7, lr, asr #30
82009760:	74736574 	ldrbtvc	r6, [r3], #-1396	; 0xfffffa8c
82009764:	6c756d20 	ldclvs	13, cr6, [r5], #-128	; 0xffffff80
82009768:	61746974 	cmnvs	r4, r4, ror r9
8200976c:	6e696b73 	vmovvs.8	d9[7], r6
82009770:	0a0d2e67 	beq	82355114 <_end+0x34a8c4>
82009774:	00000000 	andeq	r0, r0, r0

82009778 <.LC0>:
82009778:	72617453 	rsbvc	r7, r1, #1392508928	; 0x53000000
8200977c:	676e6974 			; <UNDEFINED> instruction: 0x676e6974
82009780:	79747420 	ldmdbvc	r4!, {r5, sl, ip, sp, lr}^
82009784:	65745f30 	ldrbvs	r5, [r4, #-3888]!	; 0xfffff0d0
82009788:	255f7473 	ldrbcs	r7, [pc, #-1139]	; 8200931d <.LC2+0x5>
8200978c:	0a0d2064 	beq	82351924 <_end+0x3470d4>
82009790:	00000000 	andeq	r0, r0, r0

82009794 <.LC1>:
82009794:	7974742f 	ldmdbvc	r4!, {r0, r1, r2, r3, r5, sl, ip, sp, lr}^
82009798:	00000030 	andeq	r0, r0, r0, lsr r0

8200979c <.LC2>:
8200979c:	6f727245 	svcvs	0x00727245
820097a0:	662c2072 			; <UNDEFINED> instruction: 0x662c2072
820097a4:	253d2064 	ldrcs	r2, [sp, #-100]!	; 0xffffff9c
820097a8:	682c2064 	stmdavs	ip!, {r2, r5, r6, sp}
820097ac:	0d746c61 	ldcleq	12, cr6, [r4, #-388]!	; 0xfffffe7c
820097b0:	0000000a 	andeq	r0, r0, sl

820097b4 <.LC3>:
820097b4:	63637553 	cmnvs	r3, #348127232	; 0x14c00000
820097b8:	66737365 	ldrbtvs	r7, [r3], -r5, ror #6
820097bc:	796c6c75 	stmdbvc	ip!, {r0, r2, r4, r5, r6, sl, fp, sp, lr}^
820097c0:	65706f20 	ldrbvs	r6, [r0, #-3872]!	; 0xfffff0e0
820097c4:	7474206e 	ldrbtvc	r2, [r4], #-110	; 0xffffff92
820097c8:	2c203079 	stccs	0, cr3, [r0], #-484	; 0xfffffe1c
820097cc:	3d206466 	cfstrscc	mvf6, [r0, #-408]!	; 0xfffffe68
820097d0:	0a0d6425 	beq	8236286c <_end+0x35801c>
820097d4:	00000000 	andeq	r0, r0, r0

820097d8 <.LC4>:
820097d8:	74697257 	strbtvc	r7, [r9], #-599	; 0xfffffda9
820097dc:	74742065 	ldrbtvc	r2, [r4], #-101	; 0xffffff9b
820097e0:	74203079 	strtvc	r3, [r0], #-121	; 0xffffff87
820097e4:	0d747365 	ldcleq	3, cr7, [r4, #-404]!	; 0xfffffe6c
820097e8:	0000000a 	andeq	r0, r0, sl

820097ec <.LC5>:
820097ec:	2b2b2b2b 	blcs	82ad44a0 <_end+0xac9c50>
820097f0:	2b2b2b2b 	blcs	82ad44a4 <_end+0xac9c54>
820097f4:	2b2b2b2b 	blcs	82ad44a8 <_end+0xac9c58>
820097f8:	2b2b2b2b 	blcs	82ad44ac <_end+0xac9c5c>
820097fc:	2b2b2b2b 	blcs	82ad44b0 <_end+0xac9c60>
82009800:	2b2b2b2b 	blcs	82ad44b4 <_end+0xac9c64>
82009804:	2b2b2b2b 	blcs	82ad44b8 <_end+0xac9c68>
82009808:	2b2b2b2b 	blcs	82ad44bc <_end+0xac9c6c>
8200980c:	2b2b2b2b 	blcs	82ad44c0 <_end+0xac9c70>
82009810:	2b2b2b2b 	blcs	82ad44c4 <_end+0xac9c74>
82009814:	000a0d2b 	andeq	r0, sl, fp, lsr #26

82009818 <.LC6>:
82009818:	20776f4e 	rsbscs	r6, r7, lr, asr #30
8200981c:	74736574 	ldrbtvc	r6, [r3], #-1396	; 0xfffffa8c
82009820:	65706f20 	ldrbvs	r6, [r0, #-3872]!	; 0xfffff0e0
82009824:	7474206e 	ldrbtvc	r2, [r4], #-110	; 0xffffff92
82009828:	0d2e3079 	stceq	0, cr3, [lr, #-484]!	; 0xfffffe1c
8200982c:	0000000a 	andeq	r0, r0, sl

82009830 <.LC0>:
82009830:	33323130 	teqcc	r2, #48, 2
82009834:	37363534 			; <UNDEFINED> instruction: 0x37363534
82009838:	62613938 	rsbvs	r3, r1, #56, 18	; 0xe0000
8200983c:	66656463 	strbtvs	r6, [r5], -r3, ror #8
82009840:	00000000 	andeq	r0, r0, r0

82009844 <.LC0>:
82009844:	3d646974 			; <UNDEFINED> instruction: 0x3d646974
82009848:	702d6425 	eorvc	r6, sp, r5, lsr #8
8200984c:	3d6f6972 			; <UNDEFINED> instruction: 0x3d6f6972
82009850:	232c6425 			; <UNDEFINED> instruction: 0x232c6425
82009854:	0a0d6425 	beq	823628f0 <_end+0x3580a0>
82009858:	00000000 	andeq	r0, r0, r0

8200985c <.LC1>:
8200985c:	2b2b2b2b 	blcs	82ad4510 <_end+0xac9cc0>
82009860:	2b2b2b2b 	blcs	82ad4514 <_end+0xac9cc4>
82009864:	2b2b2b2b 	blcs	82ad4518 <_end+0xac9cc8>
82009868:	2b2b2b2b 	blcs	82ad451c <_end+0xac9ccc>
8200986c:	2b2b2b2b 	blcs	82ad4520 <_end+0xac9cd0>
82009870:	2b2b2b2b 	blcs	82ad4524 <_end+0xac9cd4>
82009874:	2b2b2b2b 	blcs	82ad4528 <_end+0xac9cd8>
82009878:	2b2b2b2b 	blcs	82ad452c <_end+0xac9cdc>
8200987c:	2b2b2b2b 	blcs	82ad4530 <_end+0xac9ce0>
82009880:	2b2b2b2b 	blcs	82ad4534 <_end+0xac9ce4>
82009884:	000a0d2b 	andeq	r0, sl, fp, lsr #26

82009888 <.LC2>:
82009888:	20776f4e 	rsbscs	r6, r7, lr, asr #30
8200988c:	74736574 	ldrbtvc	r6, [r3], #-1396	; 0xfffffa8c
82009890:	69727020 	ldmdbvs	r2!, {r5, ip, sp, lr}^
82009894:	7469726f 	strbtvc	r7, [r9], #-623	; 0xfffffd91
82009898:	61622079 	smcvs	8713	; 0x2209
8200989c:	6d206573 	cfstr32vs	mvfx6, [r0, #-460]!	; 0xfffffe34
820098a0:	69746c75 	ldmdbvs	r4!, {r0, r2, r4, r5, r6, sl, fp, sp, lr}^
820098a4:	6b736174 	blvs	83ce1e7c <_end+0x1cd762c>
820098a8:	2e676e69 	cdpcs	14, 6, cr6, cr7, cr9, {3}
820098ac:	00000a0d 	andeq	r0, r0, sp, lsl #20

820098b0 <.LC0>:
820098b0:	6e726157 	mrcvs	1, 3, r6, cr2, cr7, {2}
820098b4:	20676e69 	rsbcs	r6, r7, r9, ror #28
820098b8:	6143203a 	cmpvs	r3, sl, lsr r0
820098bc:	2074276e 	rsbscs	r2, r4, lr, ror #14
820098c0:	20746f6e 	rsbscs	r6, r4, lr, ror #30
820098c4:	20747570 	rsbscs	r7, r4, r0, ror r5
820098c8:	61746164 	cmnvs	r4, r4, ror #2
820098cc:	206f7420 	rsbcs	r7, pc, r0, lsr #8
820098d0:	75657571 	strbvc	r7, [r5, #-1393]!	; 0xfffffa8f
820098d4:	51202e65 			; <UNDEFINED> instruction: 0x51202e65
820098d8:	65756575 	ldrbvs	r6, [r5, #-1397]!	; 0xfffffa8b
820098dc:	20736920 	rsbscs	r6, r3, r0, lsr #18
820098e0:	6c6c7546 	cfstr64vs	mvdx7, [ip], #-280	; 0xfffffee8
820098e4:	6552202e 	ldrbvs	r2, [r2, #-46]	; 0xffffffd2
820098e8:	6e727574 	mrcvs	5, 3, r7, cr2, cr4, {3}
820098ec:	2e312d20 	cdpcs	13, 3, cr2, cr1, cr0, {1}
820098f0:	00000a0d 	andeq	r0, r0, sp, lsl #20

820098f4 <.LC1>:
820098f4:	6e726157 	mrcvs	1, 3, r6, cr2, cr7, {2}
820098f8:	20676e69 	rsbcs	r6, r7, r9, ror #28
820098fc:	6143203a 	cmpvs	r3, sl, lsr r0
82009900:	2074276e 	rsbscs	r2, r4, lr, ror #14
82009904:	20746f6e 	rsbscs	r6, r4, lr, ror #30
82009908:	20746567 	rsbscs	r6, r4, r7, ror #10
8200990c:	61746164 	cmnvs	r4, r4, ror #2
82009910:	6f726620 	svcvs	0x00726620
82009914:	7571206d 	ldrbvc	r2, [r1, #-109]!	; 0xffffff93
82009918:	2e657565 	cdpcs	5, 6, cr7, cr5, cr5, {3}
8200991c:	65755120 	ldrbvs	r5, [r5, #-288]!	; 0xfffffee0
82009920:	69206575 	stmdbvs	r0!, {r0, r2, r4, r5, r6, r8, sl, sp, lr}
82009924:	6d452073 	stclvs	0, cr2, [r5, #-460]	; 0xfffffe34
82009928:	2e797470 	mrccs	4, 3, r7, cr9, cr0, {3}
8200992c:	74655220 	strbtvc	r5, [r5], #-544	; 0xfffffde0
82009930:	206e7275 	rsbcs	r7, lr, r5, ror r2
82009934:	0d2e312d 	stfeqs	f3, [lr, #-180]!	; 0xffffff4c
82009938:	0000000a 	andeq	r0, r0, sl

8200993c <.LC2>:
8200993c:	72745071 	rsbsvc	r5, r4, #113	; 0x71
82009940:	20736920 	rsbscs	r6, r3, r0, lsr #18
82009944:	6c6c754e 	cfstr64vs	mvdx7, [ip], #-312	; 0xfffffec8
82009948:	000a0d2e 	andeq	r0, sl, lr, lsr #26

8200994c <.LC3>:
8200994c:	2b2b0a0d 	blcs	82acc188 <_end+0xac1938>
82009950:	2b2b2b2b 	blcs	82ad4604 <_end+0xac9db4>
82009954:	2b2b2b2b 	blcs	82ad4608 <_end+0xac9db8>
82009958:	2b2b2b2b 	blcs	82ad460c <_end+0xac9dbc>
8200995c:	2b2b2b2b 	blcs	82ad4610 <_end+0xac9dc0>
82009960:	2b2b2b2b 	blcs	82ad4614 <_end+0xac9dc4>
82009964:	2b2b2b2b 	blcs	82ad4618 <_end+0xac9dc8>
82009968:	2b2b2b2b 	blcs	82ad461c <_end+0xac9dcc>
8200996c:	2b2b2b2b 	blcs	82ad4620 <_end+0xac9dd0>
82009970:	00000a0d 	andeq	r0, r0, sp, lsl #20

82009974 <.LC4>:
82009974:	64206f4e 	strtvs	r6, [r0], #-3918	; 0xfffff0b2
82009978:	20617461 	rsbcs	r7, r1, r1, ror #8
8200997c:	71206e69 			; <UNDEFINED> instruction: 0x71206e69
82009980:	65756575 	ldrbvs	r6, [r5, #-1397]!	; 0xfffffa8b
82009984:	000a0d2e 	andeq	r0, sl, lr, lsr #26

82009988 <.LC5>:
82009988:	6e697250 	mcrvs	2, 3, r7, cr9, cr0, {2}
8200998c:	61642074 	smcvs	16900	; 0x4204
82009990:	66206174 			; <UNDEFINED> instruction: 0x66206174
82009994:	206d6f72 	rsbcs	r6, sp, r2, ror pc
82009998:	64616568 	strbtvs	r6, [r1], #-1384	; 0xfffffa98
8200999c:	000a0d2e 	andeq	r0, sl, lr, lsr #26

820099a0 <.LC6>:
820099a0:	75657571 	strbvc	r7, [r5, #-1393]!	; 0xfffffa8f
820099a4:	64255b65 	strtvs	r5, [r5], #-2917	; 0xfffff49b
820099a8:	203a205d 	eorscs	r2, sl, sp, asr r0
820099ac:	0a0d6325 	beq	82362648 <_end+0x357df8>
820099b0:	00000000 	andeq	r0, r0, r0

820099b4 <.LC7>:
820099b4:	2b2b2b2b 	blcs	82ad4668 <_end+0xac9e18>
820099b8:	2b2b2b2b 	blcs	82ad466c <_end+0xac9e1c>
820099bc:	2b2b2b2b 	blcs	82ad4670 <_end+0xac9e20>
820099c0:	2b2b2b2b 	blcs	82ad4674 <_end+0xac9e24>
820099c4:	2b2b2b2b 	blcs	82ad4678 <_end+0xac9e28>
820099c8:	2b2b2b2b 	blcs	82ad467c <_end+0xac9e2c>
820099cc:	2b2b2b2b 	blcs	82ad4680 <_end+0xac9e30>
820099d0:	2b2b2b2b 	blcs	82ad4684 <_end+0xac9e34>
820099d4:	0a0d2b2b 	beq	82354688 <_end+0x349e38>
820099d8:	00000000 	andeq	r0, r0, r0

820099dc <.LC0>:
820099dc:	74736574 	ldrbtvc	r6, [r3], #-1396	; 0xfffffa8c
820099e0:	00000a0d 	andeq	r0, r0, sp, lsl #20

820099e4 <.LC1>:
820099e4:	65570a0d 	ldrbvs	r0, [r7, #-2573]	; 0xfffff5f3
820099e8:	6d6f636c 	stclvs	3, cr6, [pc, #-432]!	; 82009840 <.LC0+0x10>
820099ec:	6f742065 	svcvs	0x00742065
820099f0:	61654220 	cmnvs	r5, r0, lsr #4
820099f4:	62656c67 	rsbvs	r6, r5, #26368	; 0x6700
820099f8:	20656e6f 	rsbcs	r6, r5, pc, ror #28
820099fc:	63616c62 	cmnvs	r1, #25088	; 0x6200
82009a00:	534f206b 	movtpl	r2, #61547	; 0xf06b
82009a04:	000a0d21 	andeq	r0, sl, r1, lsr #26

82009a08 <.LC2>:
82009a08:	68540a0d 	ldmdavs	r4, {r0, r2, r3, r9, fp}^
82009a0c:	6f632065 	svcvs	0x00632065
82009a10:	6e616d6d 	cdpvs	13, 6, cr6, cr1, cr13, {3}
82009a14:	696c2064 	stmdbvs	ip!, {r2, r5, r6, sp}^
82009a18:	6920656e 	stmdbvs	r0!, {r1, r2, r3, r5, r6, r8, sl, sp, lr}
82009a1c:	68742073 	ldmdavs	r4!, {r0, r1, r4, r5, r6, sp}^
82009a20:	69662065 	stmdbvs	r6!, {r0, r2, r5, r6, sp}^
82009a24:	20747372 	rsbscs	r7, r4, r2, ror r3
82009a28:	636f7270 	cmnvs	pc, #112, 4
82009a2c:	0d737365 	ldcleq	3, cr7, [r3, #-404]!	; 0xfffffe6c
82009a30:	0000000a 	andeq	r0, r0, sl

82009a34 <.LC3>:
82009a34:	68540a0d 	ldmdavs	r4, {r0, r2, r3, r9, fp}^
82009a38:	61742065 	cmnvs	r4, r5, rrx
82009a3c:	69206b73 	stmdbvs	r0!, {r0, r1, r4, r5, r6, r8, r9, fp, sp, lr}
82009a40:	253a2064 	ldrcs	r2, [sl, #-100]!	; 0xffffff9c
82009a44:	000a0d64 	andeq	r0, sl, r4, ror #26

82009a48 <.LC4>:
82009a48:	20656854 	rsbcs	r6, r5, r4, asr r8
82009a4c:	6b736174 	blvs	83ce2024 <_end+0x1cd77d4>
82009a50:	69727020 	ldmdbvs	r2!, {r5, ip, sp, lr}^
82009a54:	7469726f 	strbtvc	r7, [r9], #-623	; 0xfffffd91
82009a58:	253a2079 	ldrcs	r2, [sl, #-121]!	; 0xffffff87
82009a5c:	000a0d64 	andeq	r0, sl, r4, ror #26

82009a60 <.LC5>:
82009a60:	72727543 	rsbsvc	r7, r2, #281018368	; 0x10c00000
82009a64:	20746e65 	rsbscs	r6, r4, r5, ror #28
82009a68:	20726964 	rsbscs	r6, r2, r4, ror #18
82009a6c:	0000003a 	andeq	r0, r0, sl, lsr r0

82009a70 <.LC6>:
82009a70:	00000a0d 	andeq	r0, r0, sp, lsl #20

82009a74 <.LC7>:
82009a74:	637c0a0d 	cmnvs	ip, #53248	; 0xd000
82009a78:	003e646d 	eorseq	r6, lr, sp, ror #8
82009a7c:	00000000 	andeq	r0, r0, r0

82009a80 <.LC8>:
82009a80:	0000003e 	andeq	r0, r0, lr, lsr r0

82009a84 <.LC9>:
82009a84:	00000020 	andeq	r0, r0, r0, lsr #32

82009a88 <.LC10>:
82009a88:	00006325 	andeq	r6, r0, r5, lsr #6

82009a8c <.LC11>:
82009a8c:	74736574 	ldrbtvc	r6, [r3], #-1396	; 0xfffffa8c
82009a90:	00000000 	andeq	r0, r0, r0

82009a94 <.LC12>:
82009a94:	00000a0d 	andeq	r0, r0, sp, lsl #20

82009a98 <.LC13>:
82009a98:	61656c50 	cmnvs	r5, r0, asr ip
82009a9c:	6b206573 	blvs	82823070 <_end+0x818820>
82009aa0:	0a0d7965 	beq	8236803c <_end+0x35d7ec>
82009aa4:	00000000 	andeq	r0, r0, r0

82009aa8 <.LC14>:
82009aa8:	27312709 	ldrcs	r2, [r1, -r9, lsl #14]!
82009aac:	726f6620 	rsbvc	r6, pc, #32, 12	; 0x2000000
82009ab0:	726f6620 	rsbvc	r6, pc, #32, 12	; 0x2000000
82009ab4:	7566206b 	strbvc	r2, [r6, #-107]!	; 0xffffff95
82009ab8:	6974636e 	ldmdbvs	r4!, {r1, r2, r3, r5, r6, r8, r9, sp, lr}^
82009abc:	74206e6f 	strtvc	r6, [r0], #-3695	; 0xfffff191
82009ac0:	2e747365 	cdpcs	3, 7, cr7, cr4, cr5, {3}
82009ac4:	00000a0d 	andeq	r0, r0, sp, lsl #20

82009ac8 <.LC15>:
82009ac8:	27322709 	ldrcs	r2, [r2, -r9, lsl #14]!
82009acc:	726f6620 	rsbvc	r6, pc, #32, 12	; 0x2000000
82009ad0:	6c756d20 	ldclvs	13, cr6, [r5], #-128	; 0xffffff80
82009ad4:	61746974 	cmnvs	r4, r4, ror r9
82009ad8:	6e696b73 	vmovvs.8	d9[7], r6
82009adc:	65742067 	ldrbvs	r2, [r4, #-103]!	; 0xffffff99
82009ae0:	0a0d7473 	beq	82366cb4 <_end+0x35c464>
82009ae4:	00000000 	andeq	r0, r0, r0

82009ae8 <.LC16>:
82009ae8:	27332709 	ldrcs	r2, [r3, -r9, lsl #14]!
82009aec:	726f6620 	rsbvc	r6, pc, #32, 12	; 0x2000000
82009af0:	69727020 	ldmdbvs	r2!, {r5, ip, sp, lr}^
82009af4:	7469726f 	strbtvc	r7, [r9], #-623	; 0xfffffd91
82009af8:	61622d79 	smcvs	8921	; 0x22d9
82009afc:	20646573 	rsbcs	r6, r4, r3, ror r5
82009b00:	746c756d 	strbtvc	r7, [ip], #-1389	; 0xfffffa93
82009b04:	73617469 	cmnvc	r1, #1761607680	; 0x69000000
82009b08:	676e696b 	strbvs	r6, [lr, -fp, ror #18]!
82009b0c:	73657420 	cmnvc	r5, #32, 8	; 0x20000000
82009b10:	0a0d2e74 	beq	823554e8 <_end+0x34ac98>
82009b14:	00000000 	andeq	r0, r0, r0

82009b18 <.LC17>:
82009b18:	27342709 	ldrcs	r2, [r4, -r9, lsl #14]!
82009b1c:	726f6620 	rsbvc	r6, pc, #32, 12	; 0x2000000
82009b20:	79747420 	ldmdbvc	r4!, {r5, sl, ip, sp, lr}^
82009b24:	706f2030 	rsbvc	r2, pc, r0, lsr r0	; <UNPREDICTABLE>
82009b28:	74206e65 	strtvc	r6, [r0], #-3685	; 0xfffff19b
82009b2c:	2e747365 	cdpcs	3, 7, cr7, cr4, cr5, {3}
82009b30:	00000a0d 	andeq	r0, r0, sp, lsl #20

82009b34 <.LC18>:
82009b34:	27352709 	ldrcs	r2, [r5, -r9, lsl #14]!
82009b38:	726f6620 	rsbvc	r6, pc, #32, 12	; 0x2000000
82009b3c:	63706920 	cmnvs	r0, #32, 18	; 0x80000
82009b40:	73657420 	cmnvc	r5, #32, 8	; 0x20000000
82009b44:	0a0d2e74 	beq	8235551c <_end+0x34accc>
82009b48:	00000000 	andeq	r0, r0, r0

82009b4c <.LC19>:
82009b4c:	2720724f 	strcs	r7, [r0, -pc, asr #4]!
82009b50:	62202730 	eorvs	r2, r0, #48, 14	; 0xc00000
82009b54:	6b616572 	blvs	83863124 <_end+0x18588d4>
82009b58:	000a0d2e 	andeq	r0, sl, lr, lsr #26

82009b5c <.LC20>:
82009b5c:	6b636142 	blvs	838e206c <_end+0x18d781c>
82009b60:	206f7420 	rsbcs	r7, pc, r0, lsr #8
82009b64:	6c656853 	stclvs	8, cr6, [r5], #-332	; 0xfffffeb4
82009b68:	0a0d2e6c 	beq	82355520 <_end+0x34acd0>
82009b6c:	00000000 	andeq	r0, r0, r0

82009b70 <.LC21>:
82009b70:	706c6568 	rsbvc	r6, ip, r8, ror #10
82009b74:	00000000 	andeq	r0, r0, r0

82009b78 <.LC22>:
82009b78:	706c6568 	rsbvc	r6, ip, r8, ror #10
82009b7c:	000a0d3a 	andeq	r0, sl, sl, lsr sp

82009b80 <.LC23>:
82009b80:	69617641 	stmdbvs	r1!, {r0, r6, r9, sl, ip, sp, lr}^
82009b84:	6c62616c 	stfvse	f6, [r2], #-432	; 0xfffffe50
82009b88:	6f632065 	svcvs	0x00632065
82009b8c:	6e616d6d 	cdpvs	13, 6, cr6, cr1, cr13, {3}
82009b90:	743a2064 	ldrtvc	r2, [sl], #-100	; 0xffffff9c
82009b94:	20747365 	rsbscs	r7, r4, r5, ror #6
82009b98:	666e692c 	strbtvs	r6, [lr], -ip, lsr #18
82009b9c:	682c206f 	stmdavs	ip!, {r0, r1, r2, r3, r5, r6, sp}
82009ba0:	20706c65 	rsbscs	r6, r0, r5, ror #24
82009ba4:	20736c2c 	rsbscs	r6, r3, ip, lsr #24
82009ba8:	2064632c 	rsbcs	r6, r4, ip, lsr #6
82009bac:	6477702c 	ldrbtvs	r7, [r7], #-44	; 0xffffffd4
82009bb0:	65722c20 	ldrbvs	r2, [r2, #-3104]!	; 0xfffff3e0
82009bb4:	746f6f62 	strbtvc	r6, [pc], #-3938	; 82009bbc <.LC24>
82009bb8:	00000a0d 	andeq	r0, r0, sp, lsl #20

82009bbc <.LC24>:
82009bbc:	6f666e69 	svcvs	0x00666e69
82009bc0:	00000000 	andeq	r0, r0, r0

82009bc4 <.LC25>:
82009bc4:	69732041 	ldmdbvs	r3!, {r0, r6, sp}^
82009bc8:	656c706d 	strbvs	r7, [ip, #-109]!	; 0xffffff93
82009bcc:	20736f20 	rsbscs	r6, r3, r0, lsr #30
82009bd0:	6e6e7572 	mcrvs	5, 3, r7, cr14, cr2, {3}
82009bd4:	20676e69 	rsbcs	r6, r7, r9, ror #28
82009bd8:	42206e6f 	eormi	r6, r0, #1776	; 0x6f0
82009bdc:	6c676165 	stfvse	f6, [r7], #-404	; 0xfffffe6c
82009be0:	6e6f6265 	cdpvs	2, 6, cr6, cr15, cr5, {3}
82009be4:	6c622065 	stclvs	0, cr2, [r2], #-404	; 0xfffffe6c
82009be8:	0d6b6361 	stcleq	3, cr6, [fp, #-388]!	; 0xfffffe7c
82009bec:	000a0d0a 	andeq	r0, sl, sl, lsl #26

82009bf0 <.LC26>:
82009bf0:	74616546 	strbtvc	r6, [r1], #-1350	; 0xfffffaba
82009bf4:	3a657275 	bcc	839665d0 <_end+0x195bd80>
82009bf8:	00000a0d 	andeq	r0, r0, sp, lsl #20

82009bfc <.LC27>:
82009bfc:	72502020 	subsvc	r2, r0, #32
82009c00:	69726f69 	ldmdbvs	r2!, {r0, r3, r5, r6, r8, r9, sl, fp, sp, lr}^
82009c04:	62207974 	eorvs	r7, r0, #116, 18	; 0x1d0000
82009c08:	64657361 	strbtvs	r7, [r5], #-865	; 0xfffffc9f
82009c0c:	756f7220 	strbvc	r7, [pc, #-544]!	; 820099f4 <.LC1+0x10>
82009c10:	722d646e 	eorvc	r6, sp, #1845493760	; 0x6e000000
82009c14:	6e69626f 	cdpvs	2, 6, cr6, cr9, cr15, {3}
82009c18:	6c756d20 	ldclvs	13, cr6, [r5], #-128	; 0xffffff80
82009c1c:	61746974 	cmnvs	r4, r4, ror r9
82009c20:	6e696b73 	vmovvs.8	d9[7], r6
82009c24:	0a0d2e67 	beq	823555c8 <_end+0x34ad78>
82009c28:	00000000 	andeq	r0, r0, r0

82009c2c <.LC28>:
82009c2c:	4d4d2020 	stclmi	0, cr2, [sp, #-128]	; 0xffffff80
82009c30:	6e652055 	mcrvs	0, 3, r2, cr5, cr5, {2}
82009c34:	656c6261 	strbvs	r6, [ip, #-609]!	; 0xfffffd9f
82009c38:	0a0d2e20 	beq	823554c0 <_end+0x34ac70>
82009c3c:	00000000 	andeq	r0, r0, r0

82009c40 <.LC29>:
82009c40:	69532020 	ldmdbvs	r3, {r5, sp}^
82009c44:	656c706d 	strbvs	r7, [ip, #-109]!	; 0xffffff93
82009c48:	6d656d20 	stclvs	13, cr6, [r5, #-128]!	; 0xffffff80
82009c4c:	2079726f 	rsbscs	r7, r9, pc, ror #4
82009c50:	616e616d 	cmnvs	lr, sp, ror #2
82009c54:	656d6567 	strbvs	r6, [sp, #-1383]!	; 0xfffffa99
82009c58:	0d2e746e 	cfstrseq	mvf7, [lr, #-440]!	; 0xfffffe48
82009c5c:	0000000a 	andeq	r0, r0, sl

82009c60 <.LC30>:
82009c60:	70692020 	rsbvc	r2, r9, r0, lsr #32
82009c64:	0a0d2e63 	beq	823555f8 <_end+0x34ada8>
82009c68:	00000000 	andeq	r0, r0, r0

82009c6c <.LC31>:
82009c6c:	6f632020 	svcvs	0x00632020
82009c70:	6e616d6d 	cdpvs	13, 6, cr6, cr1, cr13, {3}
82009c74:	696c2064 	stmdbvs	ip!, {r2, r5, r6, sp}^
82009c78:	0d2e656e 	cfstr32eq	mvfx6, [lr, #-440]!	; 0xfffffe48
82009c7c:	0000000a 	andeq	r0, r0, sl

82009c80 <.LC32>:
82009c80:	0000736c 	andeq	r7, r0, ip, ror #6

82009c84 <.LC33>:
82009c84:	00006463 	andeq	r6, r0, r3, ror #8

82009c88 <.LC34>:
82009c88:	64206f4e 	strtvs	r6, [r0], #-3918	; 0xfffff0b2
82009c8c:	69207269 	stmdbvs	r0!, {r0, r3, r5, r6, r9, ip, sp, lr}
82009c90:	7475706e 	ldrbtvc	r7, [r5], #-110	; 0xffffff92
82009c94:	00000a0d 	andeq	r0, r0, sp, lsl #20

82009c98 <.LC35>:
82009c98:	69440a0d 	stmdbvs	r4, {r0, r2, r3, r9, fp}^
82009c9c:	6f6e2072 	svcvs	0x006e2072
82009ca0:	6f662074 	svcvs	0x00662074
82009ca4:	00646e75 	rsbeq	r6, r4, r5, ror lr

82009ca8 <.LC36>:
82009ca8:	00647770 	rsbeq	r7, r4, r0, ror r7
82009cac:	00000000 	andeq	r0, r0, r0

82009cb0 <.LC37>:
82009cb0:	6f626572 	svcvs	0x00626572
82009cb4:	0000746f 	andeq	r7, r0, pc, ror #8

82009cb8 <.LC38>:
82009cb8:	74736552 	ldrbtvc	r6, [r3], #-1362	; 0xfffffaae
82009cbc:	2e747261 	cdpcs	2, 7, cr7, cr4, cr1, {3}
82009cc0:	0a0d2e2e 	beq	82355580 <_end+0x34ad30>
82009cc4:	00000000 	andeq	r0, r0, r0

82009cc8 <.LC0>:
82009cc8:	33323130 	teqcc	r2, #48, 2
82009ccc:	37363534 			; <UNDEFINED> instruction: 0x37363534
82009cd0:	62613938 	rsbvs	r3, r1, #56, 18	; 0xe0000
82009cd4:	66656463 	strbtvs	r6, [r5], -r3, ror #8
82009cd8:	00000000 	andeq	r0, r0, r0

82009cdc <.LC0>:
82009cdc:	6c6c6548 	cfstr64vs	mvdx6, [ip], #-288	; 0xfffffee0
82009ce0:	5420216f 	strtpl	r2, [r0], #-367	; 0xfffffe91
82009ce4:	20736968 	rsbscs	r6, r3, r8, ror #18
82009ce8:	6d207369 	stcvs	3, cr7, [r0, #-420]!	; 0xfffffe5c
82009cec:	69662079 	stmdbvs	r6!, {r0, r3, r4, r5, r6, sp}^
82009cf0:	20747372 	rsbscs	r7, r4, r2, ror r3
82009cf4:	74737973 	ldrbtvc	r7, [r3], #-2419	; 0xfffff68d
82009cf8:	63206d65 			; <UNDEFINED> instruction: 0x63206d65
82009cfc:	2c6c6c61 	stclcs	12, cr6, [ip], #-388	; 0xfffffe7c
82009d00:	75706e49 	ldrbvc	r6, [r0, #-3657]!	; 0xfffff1b7
82009d04:	61762074 	cmnvs	r6, r4, ror r0
82009d08:	2065756c 	rsbcs	r7, r5, ip, ror #10
82009d0c:	0d64253d 	cfstr64eq	mvdx2, [r4, #-244]!	; 0xffffff0c
82009d10:	0000000a 	andeq	r0, r0, sl

82009d14 <.LC1>:
82009d14:	6b736174 	blvs	83ce22ec <_end+0x1cd7a9c>
82009d18:	3d646920 			; <UNDEFINED> instruction: 0x3d646920
82009d1c:	65206425 	strvs	r6, [r0, #-1061]!	; 0xfffffbdb
82009d20:	0d746978 			; <UNDEFINED> instruction: 0x0d746978
82009d24:	0000000a 	andeq	r0, r0, sl

82009d28 <.LC2>:
82009d28:	206b6c62 	rsbcs	r6, fp, r2, ror #24
82009d2c:	72646461 	rsbvc	r6, r4, #1627389952	; 0x61000000
82009d30:	70253d20 	eorvc	r3, r5, r0, lsr #26
82009d34:	74732c20 	ldrbtvc	r2, [r3], #-3104	; 0xfffff3e0
82009d38:	20747261 	rsbscs	r7, r4, r1, ror #4
82009d3c:	0d78253d 	cfldr64eq	mvdx2, [r8, #-244]!	; 0xffffff0c
82009d40:	0000000a 	andeq	r0, r0, sl

82009d44 <.LC3>:
82009d44:	6f727245 	svcvs	0x00727245
82009d48:	433a2072 	teqmi	sl, #114	; 0x72
82009d4c:	74276e61 	strtvc	r6, [r7], #-3681	; 0xfffff19f
82009d50:	65706f20 	ldrbvs	r6, [r0, #-3872]!	; 0xfffff0e0
82009d54:	6966206e 	stmdbvs	r6!, {r1, r2, r3, r5, r6, sp}^
82009d58:	0d2e656c 	cfstr32eq	mvfx6, [lr, #-432]!	; 0xfffffe50
82009d5c:	0000000a 	andeq	r0, r0, sl

82009d60 <.LC4>:
82009d60:	00003b3b 	andeq	r3, r0, fp, lsr fp

82009d64 <.LC5>:
82009d64:	20667542 	rsbcs	r7, r6, r2, asr #10
82009d68:	20746f6e 	rsbscs	r6, r4, lr, ror #30
82009d6c:	756f6e65 	strbvc	r6, [pc, #-3685]!	; 82008f0f <.LC4+0x17>
82009d70:	0a0d6867 	beq	82363f14 <_end+0x3596c4>
82009d74:	00000000 	andeq	r0, r0, r0

82009d78 <.LC0>:
82009d78:	6e6f632f 	cdpvs	3, 6, cr6, cr15, cr15, {1}
82009d7c:	656c6f73 	strbvs	r6, [ip, #-3955]!	; 0xfffff08d
82009d80:	006e695f 	rsbeq	r6, lr, pc, asr r9
82009d84:	00000000 	andeq	r0, r0, r0

82009d88 <.LC1>:
82009d88:	6c696146 	stfvse	f6, [r9], #-280	; 0xfffffee8
82009d8c:	74206465 	strtvc	r6, [r0], #-1125	; 0xfffffb9b
82009d90:	706f206f 	rsbvc	r2, pc, pc, rrx
82009d94:	27206e65 	strcs	r6, [r0, -r5, ror #28]!
82009d98:	736e6f63 	cmnvc	lr, #396	; 0x18c
82009d9c:	5f656c6f 	svcpl	0x00656c6f
82009da0:	0d276e69 	stceq	14, cr6, [r7, #-420]!	; 0xfffffe5c
82009da4:	0000000a 	andeq	r0, r0, sl

82009da8 <.LC2>:
82009da8:	6e6f632f 	cdpvs	3, 6, cr6, cr15, cr15, {1}
82009dac:	656c6f73 	strbvs	r6, [ip, #-3955]!	; 0xfffff08d
82009db0:	74756f5f 	ldrbtvc	r6, [r5], #-3935	; 0xfffff0a1
82009db4:	00000000 	andeq	r0, r0, r0

82009db8 <.LC3>:
82009db8:	6c696146 	stfvse	f6, [r9], #-280	; 0xfffffee8
82009dbc:	74206465 	strtvc	r6, [r0], #-1125	; 0xfffffb9b
82009dc0:	706f206f 	rsbvc	r2, pc, pc, rrx
82009dc4:	27206e65 	strcs	r6, [r0, -r5, ror #28]!
82009dc8:	736e6f63 	cmnvc	lr, #396	; 0x18c
82009dcc:	5f656c6f 	svcpl	0x00656c6f
82009dd0:	2774756f 	ldrbcs	r7, [r4, -pc, ror #10]!
82009dd4:	00000a0d 	andeq	r0, r0, sp, lsl #20

82009dd8 <.LC4>:
82009dd8:	6b736154 	blvs	83ce2330 <_end+0x1cd7ae0>
82009ddc:	65757120 	ldrbvs	r7, [r5, #-288]!	; 0xfffffee0
82009de0:	69206575 	stmdbvs	r0!, {r0, r2, r4, r5, r6, r8, sl, sp, lr}
82009de4:	6d652073 	stclvs	0, cr2, [r5, #-460]!	; 0xfffffe34
82009de8:	0d797470 	cfldrdeq	mvd7, [r9, #-448]!	; 0xfffffe40
82009dec:	0000000a 	andeq	r0, r0, sl

82009df0 <.LC5>:
82009df0:	796c6e4f 	stmdbvc	ip!, {r0, r1, r2, r3, r6, r9, sl, fp, sp, lr}^
82009df4:	73746920 	cmnvc	r4, #32, 18	; 0x80000
82009df8:	0d666c65 	stcleq	12, cr6, [r6, #-404]!	; 0xfffffe6c
82009dfc:	0000000a 	andeq	r0, r0, sl

82009e00 <.LC6>:
82009e00:	6b736174 	blvs	83ce23d8 <_end+0x1cd7b88>
82009e04:	20646920 	rsbcs	r6, r4, r0, lsr #18
82009e08:	6425203d 	strtvs	r2, [r5], #-61	; 0xffffffc3
82009e0c:	00000a0d 	andeq	r0, r0, sp, lsl #20

82009e10 <.LC7>:
82009e10:	6b736174 	blvs	83ce23e8 <_end+0x1cd7b98>
82009e14:	20646920 	rsbcs	r6, r4, r0, lsr #18
82009e18:	6425203d 	strtvs	r2, [r5], #-61	; 0xffffffc3
82009e1c:	0a0d0a0d 	beq	8234c658 <_end+0x341e08>
82009e20:	00000000 	andeq	r0, r0, r0

82009e24 <.LC8>:
82009e24:	6b736174 	blvs	83ce23fc <_end+0x1cd7bac>
82009e28:	6165725f 	cmnvs	r5, pc, asr r2
82009e2c:	6c5f7964 	mrrcvs	9, 6, r7, pc, cr4	; <UNPREDICTABLE>
82009e30:	5b747369 	blpl	83d26bdc <_end+0x1d1c38c>
82009e34:	6f697270 	svcvs	0x00697270
82009e38:	65682e5d 	strbvs	r2, [r8, #-3677]!	; 0xfffff1a3
82009e3c:	61206461 			; <UNDEFINED> instruction: 0x61206461
82009e40:	20726464 	rsbscs	r6, r2, r4, ror #8
82009e44:	0d70253d 	cfldr64eq	mvdx2, [r0, #-244]!	; 0xffffff0c
82009e48:	0000000a 	andeq	r0, r0, sl

82009e4c <.LC9>:
82009e4c:	6b736174 	blvs	83ce2424 <_end+0x1cd7bd4>
82009e50:	64646120 	strbtvs	r6, [r4], #-288	; 0xfffffee0
82009e54:	203d2072 	eorscs	r2, sp, r2, ror r0
82009e58:	0a0d7025 	beq	82365ef4 <_end+0x35b6a4>
82009e5c:	00000000 	andeq	r0, r0, r0

82009e60 <.LC10>:
82009e60:	6b736174 	blvs	83ce2438 <_end+0x1cd7be8>
82009e64:	64646120 	strbtvs	r6, [r4], #-288	; 0xfffffee0
82009e68:	203d2072 	eorscs	r2, sp, r2, ror r0
82009e6c:	0a0d7025 	beq	82365f08 <_end+0x35b6b8>
82009e70:	Address 0x0000000082009e70 is out of bounds.


Disassembly of section .data:

82009e74 <kernal_end>:
82009e74:	8200a850 	andhi	sl, r0, #80, 16	; 0x500000

82009e78 <syscall>:
82009e78:	82006798 	andhi	r6, r0, #152, 14	; 0x2600000
82009e7c:	820067d0 	andhi	r6, r0, #208, 14	; 0x3400000
82009e80:	82006840 	andhi	r6, r0, #64, 16	; 0x400000
82009e84:	82006888 	andhi	r6, r0, #136, 16	; 0x880000
82009e88:	8200692c 	andhi	r6, r0, #44, 18	; 0xb0000
82009e8c:	82006b38 	andhi	r6, r0, #56, 22	; 0xe000
82009e90:	82006c34 	andhi	r6, r0, #52, 24	; 0x3400
82009e94:	82006c90 	andhi	r6, r0, #144, 24	; 0x9000
82009e98:	82006cb8 	andhi	r6, r0, #184, 24	; 0xb800
82009e9c:	82006d58 	andhi	r6, r0, #88, 26	; 0x1600
82009ea0:	82006da0 	andhi	r6, r0, #160, 26	; 0x2800
82009ea4:	82006e34 	andhi	r6, r0, #52, 28	; 0x340
82009ea8:	82006ec8 	andhi	r6, r0, #200, 28	; 0xc80
82009eac:	82006f40 	andhi	r6, r0, #64, 30	; 0x100
82009eb0:	82006fd0 	andhi	r6, r0, #208, 30	; 0x340
82009eb4:	820070d4 	andhi	r7, r0, #212	; 0xd4
82009eb8:	820071d8 	andhi	r7, r0, #216, 2	; 0x36
82009ebc:	82007268 	andhi	r7, r0, #104, 4	; 0x80000006
82009ec0:	820073e4 	andhi	r7, r0, #228, 6	; 0x90000003
82009ec4:	82007420 	andhi	r7, r0, #32, 8	; 0x20000000

82009ec8 <schedFuncContextSPtr>:
82009ec8:	9df3ffc8 	ldclls	15, cr15, [r3, #800]!	; 0x320

82009ecc <taskid>:
82009ecc:	ffffffff 			; <UNDEFINED> instruction: 0xffffffff

82009ed0 <prio>:
82009ed0:	ffffffff 			; <UNDEFINED> instruction: 0xffffffff

Disassembly of section .bss:

82009ed4 <root>:
82009ed4:	00000000 	andeq	r0, r0, r0

82009ed8 <file_list_head>:
82009ed8:	00000000 	andeq	r0, r0, r0

82009edc <irq_handler_array>:
	...

8200a0dc <kblk_list_base>:
8200a0dc:	00000000 	andeq	r0, r0, r0

8200a0e0 <free_page_head>:
8200a0e0:	00000000 	andeq	r0, r0, r0

8200a0e4 <inuse_page_head>:
8200a0e4:	00000000 	andeq	r0, r0, r0

8200a0e8 <curr_running_task>:
8200a0e8:	00000000 	andeq	r0, r0, r0

8200a0ec <path_tree>:
	...

8200a0fc <q>:
	...

8200a110 <kpage>:
	...

8200a13c <page_list>:
	...

8200a834 <task_ready_list>:
	...

8200a848 <read_val>:
8200a848:	00000000 	andeq	r0, r0, r0

Disassembly of section .comment:

00000000 <.comment>:
   0:	3a434347 	bcc	10d0d24 <NON_KSTACK_SIZE+0x10cfd24>
   4:	4e472820 	cdpmi	8, 4, cr2, cr7, cr0, {1}
   8:	72412055 	subvc	r2, r1, #85	; 0x55
   c:	6d45206d 	stclvs	0, cr2, [r5, #-436]	; 0xfffffe4c
  10:	64646562 	strbtvs	r6, [r4], #-1378	; 0xfffffa9e
  14:	54206465 	strtpl	r6, [r0], #-1125	; 0xfffffb9b
  18:	636c6f6f 	cmnvs	ip, #444	; 0x1bc
  1c:	6e696168 	powvsez	f6, f1, #0.0
  20:	322d3920 	eorcc	r3, sp, #32, 18	; 0x80000
  24:	2d303230 	lfmcs	f3, 4, [r0, #-192]!	; 0xffffff40
  28:	752d3271 	strvc	r3, [sp, #-625]!	; 0xfffffd8f
  2c:	74616470 	strbtvc	r6, [r1], #-1136	; 0xfffffb90
  30:	39202965 	stmdbcc	r0!, {r0, r2, r5, r6, r8, fp, sp}
  34:	312e332e 			; <UNDEFINED> instruction: 0x312e332e
  38:	32303220 	eorscc	r3, r0, #32, 4
  3c:	30343030 	eorscc	r3, r4, r0, lsr r0
  40:	72282038 	eorvc	r2, r8, #56	; 0x38
  44:	61656c65 	cmnvs	r5, r5, ror #24
  48:	00296573 	eoreq	r6, r9, r3, ror r5

Disassembly of section .ARM.attributes:

00000000 <.ARM.attributes>:
   0:	00002c41 	andeq	r2, r0, r1, asr #24
   4:	61656100 	cmnvs	r5, r0, lsl #2
   8:	01006962 	tsteq	r0, r2, ror #18
   c:	00000022 	andeq	r0, r0, r2, lsr #32
  10:	412d3705 			; <UNDEFINED> instruction: 0x412d3705
  14:	070a0600 	streq	r0, [sl, -r0, lsl #12]
  18:	09010841 	stmdbeq	r1, {r0, r6, fp}
  1c:	14041202 	strne	r1, [r4], #-514	; 0xfffffdfe
  20:	17011501 	strne	r1, [r1, -r1, lsl #10]
  24:	1a011803 	bne	46038 <NON_KSTACK_SIZE+0x45038>
  28:	22061e01 	andcs	r1, r6, #1, 28
  2c:	Address 0x000000000000002c is out of bounds.


Disassembly of section .debug_frame:

00000000 <.debug_frame>:
   0:	0000000c 	andeq	r0, r0, ip
   4:	ffffffff 			; <UNDEFINED> instruction: 0xffffffff
   8:	7c010001 	stcvc	0, cr0, [r1], {1}
   c:	000d0c0e 	andeq	r0, sp, lr, lsl #24
  10:	0000000c 	andeq	r0, r0, ip
  14:	00000000 	andeq	r0, r0, r0
  18:	82008c48 	andhi	r8, r0, #72, 24	; 0x4800
  1c:	000000f4 	strdeq	r0, [r0], -r4
  20:	0000000c 	andeq	r0, r0, ip
  24:	ffffffff 			; <UNDEFINED> instruction: 0xffffffff
  28:	7c010001 	stcvc	0, cr0, [r1], {1}
  2c:	000d0c0e 	andeq	r0, sp, lr, lsl #24
  30:	0000000c 	andeq	r0, r0, ip
  34:	00000020 	andeq	r0, r0, r0, lsr #32
  38:	82008d5c 	andhi	r8, r0, #92, 26	; 0x1700
  3c:	00000128 	andeq	r0, r0, r8, lsr #2
