
./bin/bos:     file format elf32-littlearm


Disassembly of section .text:

b2000000 <lsdir>:
b2000000:	e92d4800 	push	{fp, lr}
b2000004:	e28db004 	add	fp, sp, #4
b2000008:	e24dd0b8 	sub	sp, sp, #184	; 0xb8
b200000c:	e24b30ac 	sub	r3, fp, #172	; 0xac
b2000010:	e3a020a0 	mov	r2, #160	; 0xa0
b2000014:	e3a01000 	mov	r1, #0
b2000018:	e1a00003 	mov	r0, r3
b200001c:	eb000af6 	bl	b2002bfc <_memset>
b2000020:	e24b30ac 	sub	r3, fp, #172	; 0xac
b2000024:	e3a010a0 	mov	r1, #160	; 0xa0
b2000028:	e1a00003 	mov	r0, r3
b200002c:	eb001f10 	bl	b2007c74 <__getsubdir>
b2000030:	e1a03000 	mov	r3, r0
b2000034:	e3530000 	cmp	r3, #0
b2000038:	aa000002 	bge	b2000048 <lsdir+0x48>
b200003c:	e3080008 	movw	r0, #32776	; 0x8008
b2000040:	e34b0200 	movt	r0, #45568	; 0xb200
b2000044:	eb0009bc 	bl	b200273c <printk>
b2000048:	e3083020 	movw	r3, #32800	; 0x8020
b200004c:	e34b3200 	movt	r3, #45568	; 0xb200
b2000050:	e50b300c 	str	r3, [fp, #-12]
b2000054:	e24b30ac 	sub	r3, fp, #172	; 0xac
b2000058:	e50b3008 	str	r3, [fp, #-8]
b200005c:	ea000015 	b	b20000b8 <lsdir+0xb8>
b2000060:	e24b30bc 	sub	r3, fp, #188	; 0xbc
b2000064:	e3a02010 	mov	r2, #16
b2000068:	e3a01000 	mov	r1, #0
b200006c:	e1a00003 	mov	r0, r3
b2000070:	eb000ae1 	bl	b2002bfc <_memset>
b2000074:	e51b000c 	ldr	r0, [fp, #-12]
b2000078:	eb001596 	bl	b20056d8 <_strlen>
b200007c:	e1a02000 	mov	r2, r0
b2000080:	e24b30bc 	sub	r3, fp, #188	; 0xbc
b2000084:	e51b100c 	ldr	r1, [fp, #-12]
b2000088:	e51b0008 	ldr	r0, [fp, #-8]
b200008c:	eb001641 	bl	b2005998 <strtok_fst>
b2000090:	e50b0008 	str	r0, [fp, #-8]
b2000094:	e55b30bc 	ldrb	r3, [fp, #-188]	; 0xffffff44
b2000098:	e3530000 	cmp	r3, #0
b200009c:	0a000002 	beq	b20000ac <lsdir+0xac>
b20000a0:	e3080024 	movw	r0, #32804	; 0x8024
b20000a4:	e34b0200 	movt	r0, #45568	; 0xb200
b20000a8:	eb0014b8 	bl	b2005390 <put_str>
b20000ac:	e24b30bc 	sub	r3, fp, #188	; 0xbc
b20000b0:	e1a00003 	mov	r0, r3
b20000b4:	eb0014b5 	bl	b2005390 <put_str>
b20000b8:	e51b3008 	ldr	r3, [fp, #-8]
b20000bc:	e3530000 	cmp	r3, #0
b20000c0:	1affffe6 	bne	b2000060 <lsdir+0x60>
b20000c4:	e24b30ac 	sub	r3, fp, #172	; 0xac
b20000c8:	e3a020a0 	mov	r2, #160	; 0xa0
b20000cc:	e3a01000 	mov	r1, #0
b20000d0:	e1a00003 	mov	r0, r3
b20000d4:	eb000ac8 	bl	b2002bfc <_memset>
b20000d8:	e24b30ac 	sub	r3, fp, #172	; 0xac
b20000dc:	e3a010a0 	mov	r1, #160	; 0xa0
b20000e0:	e1a00003 	mov	r0, r3
b20000e4:	eb001efc 	bl	b2007cdc <__getfdir>
b20000e8:	e1a03000 	mov	r3, r0
b20000ec:	e3530000 	cmp	r3, #0
b20000f0:	aa000002 	bge	b2000100 <lsdir+0x100>
b20000f4:	e3080008 	movw	r0, #32776	; 0x8008
b20000f8:	e34b0200 	movt	r0, #45568	; 0xb200
b20000fc:	eb00098e 	bl	b200273c <printk>
b2000100:	e24b30ac 	sub	r3, fp, #172	; 0xac
b2000104:	e50b3008 	str	r3, [fp, #-8]
b2000108:	ea000015 	b	b2000164 <lsdir+0x164>
b200010c:	e24b30bc 	sub	r3, fp, #188	; 0xbc
b2000110:	e3a02010 	mov	r2, #16
b2000114:	e3a01000 	mov	r1, #0
b2000118:	e1a00003 	mov	r0, r3
b200011c:	eb000ab6 	bl	b2002bfc <_memset>
b2000120:	e51b000c 	ldr	r0, [fp, #-12]
b2000124:	eb00156b 	bl	b20056d8 <_strlen>
b2000128:	e1a02000 	mov	r2, r0
b200012c:	e24b30bc 	sub	r3, fp, #188	; 0xbc
b2000130:	e51b100c 	ldr	r1, [fp, #-12]
b2000134:	e51b0008 	ldr	r0, [fp, #-8]
b2000138:	eb001616 	bl	b2005998 <strtok_fst>
b200013c:	e50b0008 	str	r0, [fp, #-8]
b2000140:	e55b30bc 	ldrb	r3, [fp, #-188]	; 0xffffff44
b2000144:	e3530000 	cmp	r3, #0
b2000148:	0a000002 	beq	b2000158 <lsdir+0x158>
b200014c:	e3080024 	movw	r0, #32804	; 0x8024
b2000150:	e34b0200 	movt	r0, #45568	; 0xb200
b2000154:	eb00148d 	bl	b2005390 <put_str>
b2000158:	e24b30bc 	sub	r3, fp, #188	; 0xbc
b200015c:	e1a00003 	mov	r0, r3
b2000160:	eb00148a 	bl	b2005390 <put_str>
b2000164:	e51b3008 	ldr	r3, [fp, #-8]
b2000168:	e3530000 	cmp	r3, #0
b200016c:	1affffe6 	bne	b200010c <lsdir+0x10c>
b2000170:	e320f000 	nop	{0}
b2000174:	e320f000 	nop	{0}
b2000178:	e24bd004 	sub	sp, fp, #4
b200017c:	e8bd8800 	pop	{fp, pc}

b2000180 <cd>:
b2000180:	e92d4800 	push	{fp, lr}
b2000184:	e28db004 	add	fp, sp, #4
b2000188:	e24dd008 	sub	sp, sp, #8
b200018c:	e50b0008 	str	r0, [fp, #-8]
b2000190:	e51b0008 	ldr	r0, [fp, #-8]
b2000194:	eb001eea 	bl	b2007d44 <__chdir>
b2000198:	e1a03000 	mov	r3, r0
b200019c:	e1a00003 	mov	r0, r3
b20001a0:	e24bd004 	sub	sp, fp, #4
b20001a4:	e8bd8800 	pop	{fp, pc}

b20001a8 <pwd>:
b20001a8:	e92d4800 	push	{fp, lr}
b20001ac:	e28db004 	add	fp, sp, #4
b20001b0:	e24dd008 	sub	sp, sp, #8
b20001b4:	e50b0008 	str	r0, [fp, #-8]
b20001b8:	e50b100c 	str	r1, [fp, #-12]
b20001bc:	e51b100c 	ldr	r1, [fp, #-12]
b20001c0:	e51b0008 	ldr	r0, [fp, #-8]
b20001c4:	eb001ee8 	bl	b2007d6c <__getfullpath>
b20001c8:	e3a03000 	mov	r3, #0
b20001cc:	e1a00003 	mov	r0, r3
b20001d0:	e24bd004 	sub	sp, fp, #4
b20001d4:	e8bd8800 	pop	{fp, pc}

b20001d8 <draw_horizental_line>:
b20001d8:	e52db004 	push	{fp}		; (str fp, [sp, #-4]!)
b20001dc:	e28db000 	add	fp, sp, #0
b20001e0:	e24dd01c 	sub	sp, sp, #28
b20001e4:	e50b0010 	str	r0, [fp, #-16]
b20001e8:	e50b1014 	str	r1, [fp, #-20]	; 0xffffffec
b20001ec:	e50b2018 	str	r2, [fp, #-24]	; 0xffffffe8
b20001f0:	e50b301c 	str	r3, [fp, #-28]	; 0xffffffe4
b20001f4:	e51b3010 	ldr	r3, [fp, #-16]
b20001f8:	e50b3008 	str	r3, [fp, #-8]
b20001fc:	e51b3014 	ldr	r3, [fp, #-20]	; 0xffffffec
b2000200:	e51b201c 	ldr	r2, [fp, #-28]	; 0xffffffe4
b2000204:	e0020392 	mul	r2, r2, r3
b2000208:	e51b3018 	ldr	r3, [fp, #-24]	; 0xffffffe8
b200020c:	e0823003 	add	r3, r2, r3
b2000210:	e1a02003 	mov	r2, r3
b2000214:	e51b3008 	ldr	r3, [fp, #-8]
b2000218:	e0833002 	add	r3, r3, r2
b200021c:	e50b3008 	str	r3, [fp, #-8]
b2000220:	ea000008 	b	b2000248 <draw_horizental_line+0x70>
b2000224:	e59b3008 	ldr	r3, [fp, #8]
b2000228:	e2433001 	sub	r3, r3, #1
b200022c:	e51b2008 	ldr	r2, [fp, #-8]
b2000230:	e0823003 	add	r3, r2, r3
b2000234:	e5db2004 	ldrb	r2, [fp, #4]
b2000238:	e5c32000 	strb	r2, [r3]
b200023c:	e59b3008 	ldr	r3, [fp, #8]
b2000240:	e2433001 	sub	r3, r3, #1
b2000244:	e58b3008 	str	r3, [fp, #8]
b2000248:	e59b3008 	ldr	r3, [fp, #8]
b200024c:	e3530000 	cmp	r3, #0
b2000250:	1afffff3 	bne	b2000224 <draw_horizental_line+0x4c>
b2000254:	e320f000 	nop	{0}
b2000258:	e320f000 	nop	{0}
b200025c:	e28bd000 	add	sp, fp, #0
b2000260:	e49db004 	pop	{fp}		; (ldr fp, [sp], #4)
b2000264:	e12fff1e 	bx	lr

b2000268 <draw_vertical_line>:
b2000268:	e52db004 	push	{fp}		; (str fp, [sp, #-4]!)
b200026c:	e28db000 	add	fp, sp, #0
b2000270:	e24dd01c 	sub	sp, sp, #28
b2000274:	e50b0010 	str	r0, [fp, #-16]
b2000278:	e50b1014 	str	r1, [fp, #-20]	; 0xffffffec
b200027c:	e50b2018 	str	r2, [fp, #-24]	; 0xffffffe8
b2000280:	e50b301c 	str	r3, [fp, #-28]	; 0xffffffe4
b2000284:	e51b3010 	ldr	r3, [fp, #-16]
b2000288:	e50b3008 	str	r3, [fp, #-8]
b200028c:	e51b3014 	ldr	r3, [fp, #-20]	; 0xffffffec
b2000290:	e51b201c 	ldr	r2, [fp, #-28]	; 0xffffffe4
b2000294:	e0030392 	mul	r3, r2, r3
b2000298:	e1a02003 	mov	r2, r3
b200029c:	e51b3018 	ldr	r3, [fp, #-24]	; 0xffffffe8
b20002a0:	e0823003 	add	r3, r2, r3
b20002a4:	e51b2008 	ldr	r2, [fp, #-8]
b20002a8:	e0823003 	add	r3, r2, r3
b20002ac:	e50b3008 	str	r3, [fp, #-8]
b20002b0:	ea00000b 	b	b20002e4 <draw_vertical_line+0x7c>
b20002b4:	e59b3008 	ldr	r3, [fp, #8]
b20002b8:	e2433001 	sub	r3, r3, #1
b20002bc:	e51b2014 	ldr	r2, [fp, #-20]	; 0xffffffec
b20002c0:	e0030392 	mul	r3, r2, r3
b20002c4:	e1a02003 	mov	r2, r3
b20002c8:	e51b3008 	ldr	r3, [fp, #-8]
b20002cc:	e0833002 	add	r3, r3, r2
b20002d0:	e5db2004 	ldrb	r2, [fp, #4]
b20002d4:	e5c32000 	strb	r2, [r3]
b20002d8:	e59b3008 	ldr	r3, [fp, #8]
b20002dc:	e2433001 	sub	r3, r3, #1
b20002e0:	e58b3008 	str	r3, [fp, #8]
b20002e4:	e59b3008 	ldr	r3, [fp, #8]
b20002e8:	e3530000 	cmp	r3, #0
b20002ec:	1afffff0 	bne	b20002b4 <draw_vertical_line+0x4c>
b20002f0:	e320f000 	nop	{0}
b20002f4:	e320f000 	nop	{0}
b20002f8:	e28bd000 	add	sp, fp, #0
b20002fc:	e49db004 	pop	{fp}		; (ldr fp, [sp], #4)
b2000300:	e12fff1e 	bx	lr

b2000304 <draw_whole>:
b2000304:	e52db004 	push	{fp}		; (str fp, [sp, #-4]!)
b2000308:	e28db000 	add	fp, sp, #0
b200030c:	e24dd024 	sub	sp, sp, #36	; 0x24
b2000310:	e50b0018 	str	r0, [fp, #-24]	; 0xffffffe8
b2000314:	e50b101c 	str	r1, [fp, #-28]	; 0xffffffe4
b2000318:	e50b2020 	str	r2, [fp, #-32]	; 0xffffffe0
b200031c:	e54b3021 	strb	r3, [fp, #-33]	; 0xffffffdf
b2000320:	e51b3018 	ldr	r3, [fp, #-24]	; 0xffffffe8
b2000324:	e50b300c 	str	r3, [fp, #-12]
b2000328:	e51b301c 	ldr	r3, [fp, #-28]	; 0xffffffe4
b200032c:	e51b2020 	ldr	r2, [fp, #-32]	; 0xffffffe0
b2000330:	e0030392 	mul	r3, r2, r3
b2000334:	e50b3010 	str	r3, [fp, #-16]
b2000338:	e3a03000 	mov	r3, #0
b200033c:	e50b3008 	str	r3, [fp, #-8]
b2000340:	ea000007 	b	b2000364 <draw_whole+0x60>
b2000344:	e51b3008 	ldr	r3, [fp, #-8]
b2000348:	e51b200c 	ldr	r2, [fp, #-12]
b200034c:	e0823003 	add	r3, r2, r3
b2000350:	e55b2021 	ldrb	r2, [fp, #-33]	; 0xffffffdf
b2000354:	e5c32000 	strb	r2, [r3]
b2000358:	e51b3008 	ldr	r3, [fp, #-8]
b200035c:	e2833001 	add	r3, r3, #1
b2000360:	e50b3008 	str	r3, [fp, #-8]
b2000364:	e51b2008 	ldr	r2, [fp, #-8]
b2000368:	e51b3010 	ldr	r3, [fp, #-16]
b200036c:	e1520003 	cmp	r2, r3
b2000370:	bafffff3 	blt	b2000344 <draw_whole+0x40>
b2000374:	e320f000 	nop	{0}
b2000378:	e320f000 	nop	{0}
b200037c:	e28bd000 	add	sp, fp, #0
b2000380:	e49db004 	pop	{fp}		; (ldr fp, [sp], #4)
b2000384:	e12fff1e 	bx	lr

b2000388 <draw_last_pix_every_line>:
b2000388:	e92d4800 	push	{fp, lr}
b200038c:	e28db004 	add	fp, sp, #4
b2000390:	e24dd018 	sub	sp, sp, #24
b2000394:	e50b0008 	str	r0, [fp, #-8]
b2000398:	e50b100c 	str	r1, [fp, #-12]
b200039c:	e50b2010 	str	r2, [fp, #-16]
b20003a0:	e54b3011 	strb	r3, [fp, #-17]	; 0xffffffef
b20003a4:	e51b3010 	ldr	r3, [fp, #-16]
b20003a8:	e2432001 	sub	r2, r3, #1
b20003ac:	e51b300c 	ldr	r3, [fp, #-12]
b20003b0:	e58d3004 	str	r3, [sp, #4]
b20003b4:	e3a0300a 	mov	r3, #10
b20003b8:	e58d3000 	str	r3, [sp]
b20003bc:	e3a03000 	mov	r3, #0
b20003c0:	e51b1010 	ldr	r1, [fp, #-16]
b20003c4:	e51b0008 	ldr	r0, [fp, #-8]
b20003c8:	ebffffa6 	bl	b2000268 <draw_vertical_line>
b20003cc:	e51b3010 	ldr	r3, [fp, #-16]
b20003d0:	e2432001 	sub	r2, r3, #1
b20003d4:	e51b300c 	ldr	r3, [fp, #-12]
b20003d8:	e2433001 	sub	r3, r3, #1
b20003dc:	e3a01001 	mov	r1, #1
b20003e0:	e58d1004 	str	r1, [sp, #4]
b20003e4:	e3a01000 	mov	r1, #0
b20003e8:	e58d1000 	str	r1, [sp]
b20003ec:	e51b1010 	ldr	r1, [fp, #-16]
b20003f0:	e51b0008 	ldr	r0, [fp, #-8]
b20003f4:	ebffff9b 	bl	b2000268 <draw_vertical_line>
b20003f8:	e320f000 	nop	{0}
b20003fc:	e24bd004 	sub	sp, fp, #4
b2000400:	e8bd8800 	pop	{fp, pc}

b2000404 <draw_console>:
b2000404:	e92d4800 	push	{fp, lr}
b2000408:	e28db004 	add	fp, sp, #4
b200040c:	e24ddd1e 	sub	sp, sp, #1920	; 0x780
b2000410:	e24dd008 	sub	sp, sp, #8
b2000414:	e24b0d1e 	sub	r0, fp, #1920	; 0x780
b2000418:	e2400004 	sub	r0, r0, #4
b200041c:	e3a03020 	mov	r3, #32
b2000420:	e3a02050 	mov	r2, #80	; 0x50
b2000424:	e3a01018 	mov	r1, #24
b2000428:	ebffffb5 	bl	b2000304 <draw_whole>
b200042c:	e24b0d1e 	sub	r0, fp, #1920	; 0x780
b2000430:	e2400004 	sub	r0, r0, #4
b2000434:	e3a03013 	mov	r3, #19
b2000438:	e58d3004 	str	r3, [sp, #4]
b200043c:	e3a0303d 	mov	r3, #61	; 0x3d
b2000440:	e58d3000 	str	r3, [sp]
b2000444:	e3a0300a 	mov	r3, #10
b2000448:	e3a0200d 	mov	r2, #13
b200044c:	e3a01050 	mov	r1, #80	; 0x50
b2000450:	ebffff60 	bl	b20001d8 <draw_horizental_line>
b2000454:	e24b0d1e 	sub	r0, fp, #1920	; 0x780
b2000458:	e2400004 	sub	r0, r0, #4
b200045c:	e3a03013 	mov	r3, #19
b2000460:	e58d3004 	str	r3, [sp, #4]
b2000464:	e3a0303d 	mov	r3, #61	; 0x3d
b2000468:	e58d3000 	str	r3, [sp]
b200046c:	e3a03014 	mov	r3, #20
b2000470:	e3a0200d 	mov	r2, #13
b2000474:	e3a01050 	mov	r1, #80	; 0x50
b2000478:	ebffff56 	bl	b20001d8 <draw_horizental_line>
b200047c:	e24b0d1e 	sub	r0, fp, #1920	; 0x780
b2000480:	e2400004 	sub	r0, r0, #4
b2000484:	e3a03009 	mov	r3, #9
b2000488:	e58d3004 	str	r3, [sp, #4]
b200048c:	e3a0307c 	mov	r3, #124	; 0x7c
b2000490:	e58d3000 	str	r3, [sp]
b2000494:	e3a0300b 	mov	r3, #11
b2000498:	e3a0200c 	mov	r2, #12
b200049c:	e3a01050 	mov	r1, #80	; 0x50
b20004a0:	ebffff70 	bl	b2000268 <draw_vertical_line>
b20004a4:	e24b0d1e 	sub	r0, fp, #1920	; 0x780
b20004a8:	e2400004 	sub	r0, r0, #4
b20004ac:	e3a03009 	mov	r3, #9
b20004b0:	e58d3004 	str	r3, [sp, #4]
b20004b4:	e3a0307c 	mov	r3, #124	; 0x7c
b20004b8:	e58d3000 	str	r3, [sp]
b20004bc:	e3a0300b 	mov	r3, #11
b20004c0:	e3a02020 	mov	r2, #32
b20004c4:	e3a01050 	mov	r1, #80	; 0x50
b20004c8:	ebffff66 	bl	b2000268 <draw_vertical_line>
b20004cc:	e24b0d1e 	sub	r0, fp, #1920	; 0x780
b20004d0:	e2400004 	sub	r0, r0, #4
b20004d4:	e3a03014 	mov	r3, #20
b20004d8:	e58d3004 	str	r3, [sp, #4]
b20004dc:	e3a0303d 	mov	r3, #61	; 0x3d
b20004e0:	e58d3000 	str	r3, [sp]
b20004e4:	e3a0300a 	mov	r3, #10
b20004e8:	e3a0202a 	mov	r2, #42	; 0x2a
b20004ec:	e3a01050 	mov	r1, #80	; 0x50
b20004f0:	ebffff38 	bl	b20001d8 <draw_horizental_line>
b20004f4:	e24b0d1e 	sub	r0, fp, #1920	; 0x780
b20004f8:	e2400004 	sub	r0, r0, #4
b20004fc:	e3a03014 	mov	r3, #20
b2000500:	e58d3004 	str	r3, [sp, #4]
b2000504:	e3a0303d 	mov	r3, #61	; 0x3d
b2000508:	e58d3000 	str	r3, [sp]
b200050c:	e3a0300f 	mov	r3, #15
b2000510:	e3a0202a 	mov	r2, #42	; 0x2a
b2000514:	e3a01050 	mov	r1, #80	; 0x50
b2000518:	ebffff2e 	bl	b20001d8 <draw_horizental_line>
b200051c:	e24b0d1e 	sub	r0, fp, #1920	; 0x780
b2000520:	e2400004 	sub	r0, r0, #4
b2000524:	e3a03014 	mov	r3, #20
b2000528:	e58d3004 	str	r3, [sp, #4]
b200052c:	e3a0303d 	mov	r3, #61	; 0x3d
b2000530:	e58d3000 	str	r3, [sp]
b2000534:	e3a03014 	mov	r3, #20
b2000538:	e3a0202a 	mov	r2, #42	; 0x2a
b200053c:	e3a01050 	mov	r1, #80	; 0x50
b2000540:	ebffff24 	bl	b20001d8 <draw_horizental_line>
b2000544:	e24b0d1e 	sub	r0, fp, #1920	; 0x780
b2000548:	e2400004 	sub	r0, r0, #4
b200054c:	e3a03004 	mov	r3, #4
b2000550:	e58d3004 	str	r3, [sp, #4]
b2000554:	e3a0307c 	mov	r3, #124	; 0x7c
b2000558:	e58d3000 	str	r3, [sp]
b200055c:	e3a0300b 	mov	r3, #11
b2000560:	e3a02029 	mov	r2, #41	; 0x29
b2000564:	e3a01050 	mov	r1, #80	; 0x50
b2000568:	ebffff3e 	bl	b2000268 <draw_vertical_line>
b200056c:	e24b0d1e 	sub	r0, fp, #1920	; 0x780
b2000570:	e2400004 	sub	r0, r0, #4
b2000574:	e3a03004 	mov	r3, #4
b2000578:	e58d3004 	str	r3, [sp, #4]
b200057c:	e3a0307c 	mov	r3, #124	; 0x7c
b2000580:	e58d3000 	str	r3, [sp]
b2000584:	e3a03010 	mov	r3, #16
b2000588:	e3a0203d 	mov	r2, #61	; 0x3d
b200058c:	e3a01050 	mov	r1, #80	; 0x50
b2000590:	ebffff34 	bl	b2000268 <draw_vertical_line>
b2000594:	e24b0d1e 	sub	r0, fp, #1920	; 0x780
b2000598:	e2400004 	sub	r0, r0, #4
b200059c:	e3a0300a 	mov	r3, #10
b20005a0:	e3a02050 	mov	r2, #80	; 0x50
b20005a4:	e3a01018 	mov	r1, #24
b20005a8:	ebffff76 	bl	b2000388 <draw_last_pix_every_line>
b20005ac:	e24b0d1e 	sub	r0, fp, #1920	; 0x780
b20005b0:	e2400004 	sub	r0, r0, #4
b20005b4:	e3a03018 	mov	r3, #24
b20005b8:	e58d3004 	str	r3, [sp, #4]
b20005bc:	e3a0300d 	mov	r3, #13
b20005c0:	e58d3000 	str	r3, [sp]
b20005c4:	e3a03000 	mov	r3, #0
b20005c8:	e3a0204e 	mov	r2, #78	; 0x4e
b20005cc:	e3a01050 	mov	r1, #80	; 0x50
b20005d0:	ebffff24 	bl	b2000268 <draw_vertical_line>
b20005d4:	e24b3d1e 	sub	r3, fp, #1920	; 0x780
b20005d8:	e2433004 	sub	r3, r3, #4
b20005dc:	e3a02d1e 	mov	r2, #1920	; 0x780
b20005e0:	e1a01003 	mov	r1, r3
b20005e4:	e3a00001 	mov	r0, #1
b20005e8:	eb001d5d 	bl	b2007b64 <__write>
b20005ec:	e320f000 	nop	{0}
b20005f0:	e24bd004 	sub	sp, fp, #4
b20005f4:	e8bd8800 	pop	{fp, pc}

b20005f8 <print_LR>:
b20005f8:	e92d4800 	push	{fp, lr}
b20005fc:	e28db004 	add	fp, sp, #4
b2000600:	e24dd008 	sub	sp, sp, #8
b2000604:	e50b0008 	str	r0, [fp, #-8]
b2000608:	e51b1008 	ldr	r1, [fp, #-8]
b200060c:	e3080028 	movw	r0, #32808	; 0x8028
b2000610:	e34b0200 	movt	r0, #45568	; 0xb200
b2000614:	eb000848 	bl	b200273c <printk>
b2000618:	eafffffe 	b	b2000618 <print_LR+0x20>

b200061c <print_SP>:
b200061c:	e92d4800 	push	{fp, lr}
b2000620:	e28db004 	add	fp, sp, #4
b2000624:	e24dd008 	sub	sp, sp, #8
b2000628:	e50b0008 	str	r0, [fp, #-8]
b200062c:	e51b1008 	ldr	r1, [fp, #-8]
b2000630:	e3080034 	movw	r0, #32820	; 0x8034
b2000634:	e34b0200 	movt	r0, #45568	; 0xb200
b2000638:	eb00083f 	bl	b200273c <printk>
b200063c:	e320f000 	nop	{0}
b2000640:	e24bd004 	sub	sp, fp, #4
b2000644:	e8bd8800 	pop	{fp, pc}

b2000648 <print_here>:
b2000648:	e92d4800 	push	{fp, lr}
b200064c:	e28db004 	add	fp, sp, #4
b2000650:	e3080040 	movw	r0, #32832	; 0x8040
b2000654:	e34b0200 	movt	r0, #45568	; 0xb200
b2000658:	eb000837 	bl	b200273c <printk>
b200065c:	e320f000 	nop	{0}
b2000660:	e8bd8800 	pop	{fp, pc}

b2000664 <print_cpsr>:
b2000664:	e92d4800 	push	{fp, lr}
b2000668:	e28db004 	add	fp, sp, #4
b200066c:	eb0012f4 	bl	b2005244 <READ_CPSR>
b2000670:	e1a03000 	mov	r3, r0
b2000674:	e1a01003 	mov	r1, r3
b2000678:	e3080048 	movw	r0, #32840	; 0x8048
b200067c:	e34b0200 	movt	r0, #45568	; 0xb200
b2000680:	eb00082d 	bl	b200273c <printk>
b2000684:	e320f000 	nop	{0}
b2000688:	e8bd8800 	pop	{fp, pc}

b200068c <stackDisplay>:
b200068c:	e92d4800 	push	{fp, lr}
b2000690:	e28db004 	add	fp, sp, #4
b2000694:	e24dd010 	sub	sp, sp, #16
b2000698:	e50b0010 	str	r0, [fp, #-16]
b200069c:	e50b1014 	str	r1, [fp, #-20]	; 0xffffffec
b20006a0:	e51b3010 	ldr	r3, [fp, #-16]
b20006a4:	e50b300c 	str	r3, [fp, #-12]
b20006a8:	e3a03000 	mov	r3, #0
b20006ac:	e50b3008 	str	r3, [fp, #-8]
b20006b0:	ea000011 	b	b20006fc <stackDisplay+0x70>
b20006b4:	e51b3008 	ldr	r3, [fp, #-8]
b20006b8:	e1a03103 	lsl	r3, r3, #2
b20006bc:	e2633000 	rsb	r3, r3, #0
b20006c0:	e51b200c 	ldr	r2, [fp, #-12]
b20006c4:	e0821003 	add	r1, r2, r3
b20006c8:	e51b3008 	ldr	r3, [fp, #-8]
b20006cc:	e1a03103 	lsl	r3, r3, #2
b20006d0:	e2633000 	rsb	r3, r3, #0
b20006d4:	e51b200c 	ldr	r2, [fp, #-12]
b20006d8:	e0823003 	add	r3, r2, r3
b20006dc:	e5933000 	ldr	r3, [r3]
b20006e0:	e1a02003 	mov	r2, r3
b20006e4:	e3080058 	movw	r0, #32856	; 0x8058
b20006e8:	e34b0200 	movt	r0, #45568	; 0xb200
b20006ec:	eb000812 	bl	b200273c <printk>
b20006f0:	e51b3008 	ldr	r3, [fp, #-8]
b20006f4:	e2833001 	add	r3, r3, #1
b20006f8:	e50b3008 	str	r3, [fp, #-8]
b20006fc:	e51b2008 	ldr	r2, [fp, #-8]
b2000700:	e51b3014 	ldr	r3, [fp, #-20]	; 0xffffffec
b2000704:	e1520003 	cmp	r2, r3
b2000708:	baffffe9 	blt	b20006b4 <stackDisplay+0x28>
b200070c:	e320f000 	nop	{0}
b2000710:	e320f000 	nop	{0}
b2000714:	e24bd004 	sub	sp, fp, #4
b2000718:	e8bd8800 	pop	{fp, pc}

b200071c <readCpsrMode>:
b200071c:	e92d4800 	push	{fp, lr}
b2000720:	e28db004 	add	fp, sp, #4
b2000724:	e24dd008 	sub	sp, sp, #8
b2000728:	eb0012c5 	bl	b2005244 <READ_CPSR>
b200072c:	e1a03000 	mov	r3, r0
b2000730:	e50b3008 	str	r3, [fp, #-8]
b2000734:	e51b3008 	ldr	r3, [fp, #-8]
b2000738:	e203301f 	and	r3, r3, #31
b200073c:	e50b300c 	str	r3, [fp, #-12]
b2000740:	e51b300c 	ldr	r3, [fp, #-12]
b2000744:	e2433010 	sub	r3, r3, #16
b2000748:	e353000f 	cmp	r3, #15
b200074c:	979ff103 	ldrls	pc, [pc, r3, lsl #2]
b2000750:	ea000023 	b	b20007e4 <readCpsrMode+0xc8>
b2000754:	b2000794 	andlt	r0, r0, #148, 14	; 0x2500000
b2000758:	b20007e4 	andlt	r0, r0, #228, 14	; 0x3900000
b200075c:	b20007bc 	andlt	r0, r0, #188, 14	; 0x2f00000
b2000760:	b20007d0 	andlt	r0, r0, #208, 14	; 0x3400000
b2000764:	b20007e4 	andlt	r0, r0, #228, 14	; 0x3900000
b2000768:	b20007e4 	andlt	r0, r0, #228, 14	; 0x3900000
b200076c:	b20007e4 	andlt	r0, r0, #228, 14	; 0x3900000
b2000770:	b20007e4 	andlt	r0, r0, #228, 14	; 0x3900000
b2000774:	b20007e4 	andlt	r0, r0, #228, 14	; 0x3900000
b2000778:	b20007e4 	andlt	r0, r0, #228, 14	; 0x3900000
b200077c:	b20007e4 	andlt	r0, r0, #228, 14	; 0x3900000
b2000780:	b20007e4 	andlt	r0, r0, #228, 14	; 0x3900000
b2000784:	b20007e4 	andlt	r0, r0, #228, 14	; 0x3900000
b2000788:	b20007e4 	andlt	r0, r0, #228, 14	; 0x3900000
b200078c:	b20007e4 	andlt	r0, r0, #228, 14	; 0x3900000
b2000790:	b20007a8 	andlt	r0, r0, #168, 14	; 0x2a00000
b2000794:	e51b100c 	ldr	r1, [fp, #-12]
b2000798:	e308007c 	movw	r0, #32892	; 0x807c
b200079c:	e34b0200 	movt	r0, #45568	; 0xb200
b20007a0:	eb0007e5 	bl	b200273c <printk>
b20007a4:	ea00000f 	b	b20007e8 <readCpsrMode+0xcc>
b20007a8:	e51b100c 	ldr	r1, [fp, #-12]
b20007ac:	e30800a0 	movw	r0, #32928	; 0x80a0
b20007b0:	e34b0200 	movt	r0, #45568	; 0xb200
b20007b4:	eb0007e0 	bl	b200273c <printk>
b20007b8:	ea00000a 	b	b20007e8 <readCpsrMode+0xcc>
b20007bc:	e51b100c 	ldr	r1, [fp, #-12]
b20007c0:	e30800c8 	movw	r0, #32968	; 0x80c8
b20007c4:	e34b0200 	movt	r0, #45568	; 0xb200
b20007c8:	eb0007db 	bl	b200273c <printk>
b20007cc:	ea000005 	b	b20007e8 <readCpsrMode+0xcc>
b20007d0:	e51b100c 	ldr	r1, [fp, #-12]
b20007d4:	e30800ec 	movw	r0, #33004	; 0x80ec
b20007d8:	e34b0200 	movt	r0, #45568	; 0xb200
b20007dc:	eb0007d6 	bl	b200273c <printk>
b20007e0:	ea000000 	b	b20007e8 <readCpsrMode+0xcc>
b20007e4:	e320f000 	nop	{0}
b20007e8:	e51b300c 	ldr	r3, [fp, #-12]
b20007ec:	e1a00003 	mov	r0, r3
b20007f0:	e24bd004 	sub	sp, fp, #4
b20007f4:	e8bd8800 	pop	{fp, pc}

b20007f8 <print_R0_R1_R2_R3>:
b20007f8:	e92d4800 	push	{fp, lr}
b20007fc:	e28db004 	add	fp, sp, #4
b2000800:	e24dd018 	sub	sp, sp, #24
b2000804:	e50b0008 	str	r0, [fp, #-8]
b2000808:	e50b100c 	str	r1, [fp, #-12]
b200080c:	e50b2010 	str	r2, [fp, #-16]
b2000810:	e50b3014 	str	r3, [fp, #-20]	; 0xffffffec
b2000814:	e51b3014 	ldr	r3, [fp, #-20]	; 0xffffffec
b2000818:	e58d3000 	str	r3, [sp]
b200081c:	e51b3010 	ldr	r3, [fp, #-16]
b2000820:	e51b200c 	ldr	r2, [fp, #-12]
b2000824:	e51b1008 	ldr	r1, [fp, #-8]
b2000828:	e3080114 	movw	r0, #33044	; 0x8114
b200082c:	e34b0200 	movt	r0, #45568	; 0xb200
b2000830:	eb0007c1 	bl	b200273c <printk>
b2000834:	e320f000 	nop	{0}
b2000838:	e24bd004 	sub	sp, fp, #4
b200083c:	e8bd8800 	pop	{fp, pc}

b2000840 <print_free_area_list_from_head>:
b2000840:	e92d4800 	push	{fp, lr}
b2000844:	e28db004 	add	fp, sp, #4
b2000848:	e24dd008 	sub	sp, sp, #8
b200084c:	e30930dc 	movw	r3, #37084	; 0x90dc
b2000850:	e34b3200 	movt	r3, #45568	; 0xb200
b2000854:	e5933000 	ldr	r3, [r3]
b2000858:	e50b3008 	str	r3, [fp, #-8]
b200085c:	e308013c 	movw	r0, #33084	; 0x813c
b2000860:	e34b0200 	movt	r0, #45568	; 0xb200
b2000864:	eb0007b4 	bl	b200273c <printk>
b2000868:	e3a03000 	mov	r3, #0
b200086c:	e50b300c 	str	r3, [fp, #-12]
b2000870:	ea000017 	b	b20008d4 <print_free_area_list_from_head+0x94>
b2000874:	e51b3008 	ldr	r3, [fp, #-8]
b2000878:	e5933010 	ldr	r3, [r3, #16]
b200087c:	e1a01003 	mov	r1, r3
b2000880:	e3080158 	movw	r0, #33112	; 0x8158
b2000884:	e34b0200 	movt	r0, #45568	; 0xb200
b2000888:	eb0007ab 	bl	b200273c <printk>
b200088c:	e51b3008 	ldr	r3, [fp, #-8]
b2000890:	e593300c 	ldr	r3, [r3, #12]
b2000894:	e1a01003 	mov	r1, r3
b2000898:	e3080160 	movw	r0, #33120	; 0x8160
b200089c:	e34b0200 	movt	r0, #45568	; 0xb200
b20008a0:	eb0007a5 	bl	b200273c <printk>
b20008a4:	e51b3008 	ldr	r3, [fp, #-8]
b20008a8:	e5933008 	ldr	r3, [r3, #8]
b20008ac:	e1a01003 	mov	r1, r3
b20008b0:	e3080174 	movw	r0, #33140	; 0x8174
b20008b4:	e34b0200 	movt	r0, #45568	; 0xb200
b20008b8:	eb00079f 	bl	b200273c <printk>
b20008bc:	e51b3008 	ldr	r3, [fp, #-8]
b20008c0:	e5933000 	ldr	r3, [r3]
b20008c4:	e50b3008 	str	r3, [fp, #-8]
b20008c8:	e51b300c 	ldr	r3, [fp, #-12]
b20008cc:	e2833001 	add	r3, r3, #1
b20008d0:	e50b300c 	str	r3, [fp, #-12]
b20008d4:	e51b300c 	ldr	r3, [fp, #-12]
b20008d8:	e3530009 	cmp	r3, #9
b20008dc:	daffffe4 	ble	b2000874 <print_free_area_list_from_head+0x34>
b20008e0:	e320f000 	nop	{0}
b20008e4:	e320f000 	nop	{0}
b20008e8:	e24bd004 	sub	sp, fp, #4
b20008ec:	e8bd8800 	pop	{fp, pc}

b20008f0 <print_free_area_list_from_end>:
b20008f0:	e92d4800 	push	{fp, lr}
b20008f4:	e28db004 	add	fp, sp, #4
b20008f8:	e24dd010 	sub	sp, sp, #16
b20008fc:	e30930dc 	movw	r3, #37084	; 0x90dc
b2000900:	e34b3200 	movt	r3, #45568	; 0xb200
b2000904:	e5933000 	ldr	r3, [r3]
b2000908:	e50b3008 	str	r3, [fp, #-8]
b200090c:	ea000002 	b	b200091c <print_free_area_list_from_end+0x2c>
b2000910:	e51b3008 	ldr	r3, [fp, #-8]
b2000914:	e5933000 	ldr	r3, [r3]
b2000918:	e50b3008 	str	r3, [fp, #-8]
b200091c:	e51b3008 	ldr	r3, [fp, #-8]
b2000920:	e5933000 	ldr	r3, [r3]
b2000924:	e3530000 	cmp	r3, #0
b2000928:	1afffff8 	bne	b2000910 <print_free_area_list_from_end+0x20>
b200092c:	e51b3008 	ldr	r3, [fp, #-8]
b2000930:	e50b300c 	str	r3, [fp, #-12]
b2000934:	e308018c 	movw	r0, #33164	; 0x818c
b2000938:	e34b0200 	movt	r0, #45568	; 0xb200
b200093c:	eb00077e 	bl	b200273c <printk>
b2000940:	e3a03000 	mov	r3, #0
b2000944:	e50b3010 	str	r3, [fp, #-16]
b2000948:	ea000017 	b	b20009ac <print_free_area_list_from_end+0xbc>
b200094c:	e51b300c 	ldr	r3, [fp, #-12]
b2000950:	e5933010 	ldr	r3, [r3, #16]
b2000954:	e1a01003 	mov	r1, r3
b2000958:	e3080158 	movw	r0, #33112	; 0x8158
b200095c:	e34b0200 	movt	r0, #45568	; 0xb200
b2000960:	eb000775 	bl	b200273c <printk>
b2000964:	e51b300c 	ldr	r3, [fp, #-12]
b2000968:	e593300c 	ldr	r3, [r3, #12]
b200096c:	e1a01003 	mov	r1, r3
b2000970:	e3080160 	movw	r0, #33120	; 0x8160
b2000974:	e34b0200 	movt	r0, #45568	; 0xb200
b2000978:	eb00076f 	bl	b200273c <printk>
b200097c:	e51b300c 	ldr	r3, [fp, #-12]
b2000980:	e5933008 	ldr	r3, [r3, #8]
b2000984:	e1a01003 	mov	r1, r3
b2000988:	e3080174 	movw	r0, #33140	; 0x8174
b200098c:	e34b0200 	movt	r0, #45568	; 0xb200
b2000990:	eb000769 	bl	b200273c <printk>
b2000994:	e51b300c 	ldr	r3, [fp, #-12]
b2000998:	e5933004 	ldr	r3, [r3, #4]
b200099c:	e50b300c 	str	r3, [fp, #-12]
b20009a0:	e51b3010 	ldr	r3, [fp, #-16]
b20009a4:	e2833001 	add	r3, r3, #1
b20009a8:	e50b3010 	str	r3, [fp, #-16]
b20009ac:	e51b3010 	ldr	r3, [fp, #-16]
b20009b0:	e3530009 	cmp	r3, #9
b20009b4:	daffffe4 	ble	b200094c <print_free_area_list_from_end+0x5c>
b20009b8:	e320f000 	nop	{0}
b20009bc:	e320f000 	nop	{0}
b20009c0:	e24bd004 	sub	sp, fp, #4
b20009c4:	e8bd8800 	pop	{fp, pc}

b20009c8 <print_inuse_area_list_from_head>:
b20009c8:	e92d4800 	push	{fp, lr}
b20009cc:	e28db004 	add	fp, sp, #4
b20009d0:	e24dd008 	sub	sp, sp, #8
b20009d4:	e30930e0 	movw	r3, #37088	; 0x90e0
b20009d8:	e34b3200 	movt	r3, #45568	; 0xb200
b20009dc:	e5933000 	ldr	r3, [r3]
b20009e0:	e50b3008 	str	r3, [fp, #-8]
b20009e4:	e30801a8 	movw	r0, #33192	; 0x81a8
b20009e8:	e34b0200 	movt	r0, #45568	; 0xb200
b20009ec:	eb000752 	bl	b200273c <printk>
b20009f0:	e3a03000 	mov	r3, #0
b20009f4:	e50b300c 	str	r3, [fp, #-12]
b20009f8:	ea00001b 	b	b2000a6c <print_inuse_area_list_from_head+0xa4>
b20009fc:	e51b3008 	ldr	r3, [fp, #-8]
b2000a00:	e5933010 	ldr	r3, [r3, #16]
b2000a04:	e1a01003 	mov	r1, r3
b2000a08:	e3080158 	movw	r0, #33112	; 0x8158
b2000a0c:	e34b0200 	movt	r0, #45568	; 0xb200
b2000a10:	eb000749 	bl	b200273c <printk>
b2000a14:	e51b3008 	ldr	r3, [fp, #-8]
b2000a18:	e593300c 	ldr	r3, [r3, #12]
b2000a1c:	e1a01003 	mov	r1, r3
b2000a20:	e3080160 	movw	r0, #33120	; 0x8160
b2000a24:	e34b0200 	movt	r0, #45568	; 0xb200
b2000a28:	eb000743 	bl	b200273c <printk>
b2000a2c:	e51b3008 	ldr	r3, [fp, #-8]
b2000a30:	e5933008 	ldr	r3, [r3, #8]
b2000a34:	e1a01003 	mov	r1, r3
b2000a38:	e3080174 	movw	r0, #33140	; 0x8174
b2000a3c:	e34b0200 	movt	r0, #45568	; 0xb200
b2000a40:	eb00073d 	bl	b200273c <printk>
b2000a44:	e51b3008 	ldr	r3, [fp, #-8]
b2000a48:	e5933000 	ldr	r3, [r3]
b2000a4c:	e3530000 	cmp	r3, #0
b2000a50:	0a000009 	beq	b2000a7c <print_inuse_area_list_from_head+0xb4>
b2000a54:	e51b3008 	ldr	r3, [fp, #-8]
b2000a58:	e5933000 	ldr	r3, [r3]
b2000a5c:	e50b3008 	str	r3, [fp, #-8]
b2000a60:	e51b300c 	ldr	r3, [fp, #-12]
b2000a64:	e2833001 	add	r3, r3, #1
b2000a68:	e50b300c 	str	r3, [fp, #-12]
b2000a6c:	e51b300c 	ldr	r3, [fp, #-12]
b2000a70:	e3530009 	cmp	r3, #9
b2000a74:	daffffe0 	ble	b20009fc <print_inuse_area_list_from_head+0x34>
b2000a78:	ea000000 	b	b2000a80 <print_inuse_area_list_from_head+0xb8>
b2000a7c:	e320f000 	nop	{0}
b2000a80:	e320f000 	nop	{0}
b2000a84:	e24bd004 	sub	sp, fp, #4
b2000a88:	e8bd8800 	pop	{fp, pc}

b2000a8c <mem_area_alloc_free_test>:
b2000a8c:	e92d4800 	push	{fp, lr}
b2000a90:	e28db004 	add	fp, sp, #4
b2000a94:	e24dd010 	sub	sp, sp, #16
b2000a98:	ebffff68 	bl	b2000840 <print_free_area_list_from_head>
b2000a9c:	e30801bc 	movw	r0, #33212	; 0x81bc
b2000aa0:	e34b0200 	movt	r0, #45568	; 0xb200
b2000aa4:	eb000724 	bl	b200273c <printk>
b2000aa8:	eb000981 	bl	b20030b4 <page_alloc>
b2000aac:	e50b0008 	str	r0, [fp, #-8]
b2000ab0:	eb00097f 	bl	b20030b4 <page_alloc>
b2000ab4:	e50b000c 	str	r0, [fp, #-12]
b2000ab8:	eb00097d 	bl	b20030b4 <page_alloc>
b2000abc:	e50b0010 	str	r0, [fp, #-16]
b2000ac0:	ebffff5e 	bl	b2000840 <print_free_area_list_from_head>
b2000ac4:	ebffffbf 	bl	b20009c8 <print_inuse_area_list_from_head>
b2000ac8:	e30801cc 	movw	r0, #33228	; 0x81cc
b2000acc:	e34b0200 	movt	r0, #45568	; 0xb200
b2000ad0:	eb000719 	bl	b200273c <printk>
b2000ad4:	e51b0008 	ldr	r0, [fp, #-8]
b2000ad8:	eb000992 	bl	b2003128 <page_free>
b2000adc:	e51b000c 	ldr	r0, [fp, #-12]
b2000ae0:	eb000990 	bl	b2003128 <page_free>
b2000ae4:	ebffff81 	bl	b20008f0 <print_free_area_list_from_end>
b2000ae8:	ebffffb6 	bl	b20009c8 <print_inuse_area_list_from_head>
b2000aec:	e51b3010 	ldr	r3, [fp, #-16]
b2000af0:	e593301c 	ldr	r3, [r3, #28]
b2000af4:	e1a01003 	mov	r1, r3
b2000af8:	e30801d8 	movw	r0, #33240	; 0x81d8
b2000afc:	e34b0200 	movt	r0, #45568	; 0xb200
b2000b00:	eb00070d 	bl	b200273c <printk>
b2000b04:	eb000bd8 	bl	b2003a6c <kmalloc>
b2000b08:	e50b0014 	str	r0, [fp, #-20]	; 0xffffffec
b2000b0c:	e51b1014 	ldr	r1, [fp, #-20]	; 0xffffffec
b2000b10:	e30801f8 	movw	r0, #33272	; 0x81f8
b2000b14:	e34b0200 	movt	r0, #45568	; 0xb200
b2000b18:	eb000707 	bl	b200273c <printk>
b2000b1c:	e51b3010 	ldr	r3, [fp, #-16]
b2000b20:	e5933010 	ldr	r3, [r3, #16]
b2000b24:	e1a01003 	mov	r1, r3
b2000b28:	e3080200 	movw	r0, #33280	; 0x8200
b2000b2c:	e34b0200 	movt	r0, #45568	; 0xb200
b2000b30:	eb000701 	bl	b200273c <printk>
b2000b34:	e51b3010 	ldr	r3, [fp, #-16]
b2000b38:	e593301c 	ldr	r3, [r3, #28]
b2000b3c:	e1a01003 	mov	r1, r3
b2000b40:	e30801d8 	movw	r0, #33240	; 0x81d8
b2000b44:	e34b0200 	movt	r0, #45568	; 0xb200
b2000b48:	eb0006fb 	bl	b200273c <printk>
b2000b4c:	e320f000 	nop	{0}
b2000b50:	e24bd004 	sub	sp, fp, #4
b2000b54:	e8bd8800 	pop	{fp, pc}

b2000b58 <mem_area_blk_init_test>:
b2000b58:	e92d4800 	push	{fp, lr}
b2000b5c:	e28db004 	add	fp, sp, #4
b2000b60:	e24dd010 	sub	sp, sp, #16
b2000b64:	ebffff35 	bl	b2000840 <print_free_area_list_from_head>
b2000b68:	e30801bc 	movw	r0, #33212	; 0x81bc
b2000b6c:	e34b0200 	movt	r0, #45568	; 0xb200
b2000b70:	eb0006f1 	bl	b200273c <printk>
b2000b74:	eb00094e 	bl	b20030b4 <page_alloc>
b2000b78:	e50b000c 	str	r0, [fp, #-12]
b2000b7c:	ebffff2f 	bl	b2000840 <print_free_area_list_from_head>
b2000b80:	ebffff90 	bl	b20009c8 <print_inuse_area_list_from_head>
b2000b84:	e3a02e3e 	mov	r2, #992	; 0x3e0
b2000b88:	e3a0103c 	mov	r1, #60	; 0x3c
b2000b8c:	e51b000c 	ldr	r0, [fp, #-12]
b2000b90:	eb000a4f 	bl	b20034d4 <memblks_init>
b2000b94:	e51b300c 	ldr	r3, [fp, #-12]
b2000b98:	e593301c 	ldr	r3, [r3, #28]
b2000b9c:	e1a01003 	mov	r1, r3
b2000ba0:	e30801d8 	movw	r0, #33240	; 0x81d8
b2000ba4:	e34b0200 	movt	r0, #45568	; 0xb200
b2000ba8:	eb0006e3 	bl	b200273c <printk>
b2000bac:	e51b300c 	ldr	r3, [fp, #-12]
b2000bb0:	e593301c 	ldr	r3, [r3, #28]
b2000bb4:	e50b3008 	str	r3, [fp, #-8]
b2000bb8:	ea000009 	b	b2000be4 <mem_area_blk_init_test+0x8c>
b2000bbc:	e51b3008 	ldr	r3, [fp, #-8]
b2000bc0:	e5933000 	ldr	r3, [r3]
b2000bc4:	e1a02003 	mov	r2, r3
b2000bc8:	e51b1008 	ldr	r1, [fp, #-8]
b2000bcc:	e3080218 	movw	r0, #33304	; 0x8218
b2000bd0:	e34b0200 	movt	r0, #45568	; 0xb200
b2000bd4:	eb0006d8 	bl	b200273c <printk>
b2000bd8:	e51b3008 	ldr	r3, [fp, #-8]
b2000bdc:	e5933000 	ldr	r3, [r3]
b2000be0:	e50b3008 	str	r3, [fp, #-8]
b2000be4:	e51b3008 	ldr	r3, [fp, #-8]
b2000be8:	e3530000 	cmp	r3, #0
b2000bec:	1afffff2 	bne	b2000bbc <mem_area_blk_init_test+0x64>
b2000bf0:	e51b1008 	ldr	r1, [fp, #-8]
b2000bf4:	e3080238 	movw	r0, #33336	; 0x8238
b2000bf8:	e34b0200 	movt	r0, #45568	; 0xb200
b2000bfc:	eb0006ce 	bl	b200273c <printk>
b2000c00:	e51b000c 	ldr	r0, [fp, #-12]
b2000c04:	eb000a6e 	bl	b20035c4 <blk_alloc>
b2000c08:	e50b0010 	str	r0, [fp, #-16]
b2000c0c:	e51b1010 	ldr	r1, [fp, #-16]
b2000c10:	e3080254 	movw	r0, #33364	; 0x8254
b2000c14:	e34b0200 	movt	r0, #45568	; 0xb200
b2000c18:	eb0006c7 	bl	b200273c <printk>
b2000c1c:	e51b300c 	ldr	r3, [fp, #-12]
b2000c20:	e593301c 	ldr	r3, [r3, #28]
b2000c24:	e1a01003 	mov	r1, r3
b2000c28:	e3080268 	movw	r0, #33384	; 0x8268
b2000c2c:	e34b0200 	movt	r0, #45568	; 0xb200
b2000c30:	eb0006c1 	bl	b200273c <printk>
b2000c34:	e51b000c 	ldr	r0, [fp, #-12]
b2000c38:	eb000a61 	bl	b20035c4 <blk_alloc>
b2000c3c:	e50b0014 	str	r0, [fp, #-20]	; 0xffffffec
b2000c40:	e51b1014 	ldr	r1, [fp, #-20]	; 0xffffffec
b2000c44:	e3080254 	movw	r0, #33364	; 0x8254
b2000c48:	e34b0200 	movt	r0, #45568	; 0xb200
b2000c4c:	eb0006ba 	bl	b200273c <printk>
b2000c50:	e51b300c 	ldr	r3, [fp, #-12]
b2000c54:	e593301c 	ldr	r3, [r3, #28]
b2000c58:	e1a01003 	mov	r1, r3
b2000c5c:	e3080268 	movw	r0, #33384	; 0x8268
b2000c60:	e34b0200 	movt	r0, #45568	; 0xb200
b2000c64:	eb0006b4 	bl	b200273c <printk>
b2000c68:	e3080278 	movw	r0, #33400	; 0x8278
b2000c6c:	e34b0200 	movt	r0, #45568	; 0xb200
b2000c70:	eb0006b1 	bl	b200273c <printk>
b2000c74:	e51b0014 	ldr	r0, [fp, #-20]	; 0xffffffec
b2000c78:	eb000b13 	bl	b20038cc <free_blk>
b2000c7c:	e51b000c 	ldr	r0, [fp, #-12]
b2000c80:	eb000002 	bl	b2000c90 <print_from_blk_head>
b2000c84:	e320f000 	nop	{0}
b2000c88:	e24bd004 	sub	sp, fp, #4
b2000c8c:	e8bd8800 	pop	{fp, pc}

b2000c90 <print_from_blk_head>:
b2000c90:	e92d4800 	push	{fp, lr}
b2000c94:	e28db004 	add	fp, sp, #4
b2000c98:	e24dd010 	sub	sp, sp, #16
b2000c9c:	e50b0010 	str	r0, [fp, #-16]
b2000ca0:	e51b3010 	ldr	r3, [fp, #-16]
b2000ca4:	e593301c 	ldr	r3, [r3, #28]
b2000ca8:	e50b3008 	str	r3, [fp, #-8]
b2000cac:	ea000009 	b	b2000cd8 <print_from_blk_head+0x48>
b2000cb0:	e51b3008 	ldr	r3, [fp, #-8]
b2000cb4:	e5933000 	ldr	r3, [r3]
b2000cb8:	e1a02003 	mov	r2, r3
b2000cbc:	e51b1008 	ldr	r1, [fp, #-8]
b2000cc0:	e3080288 	movw	r0, #33416	; 0x8288
b2000cc4:	e34b0200 	movt	r0, #45568	; 0xb200
b2000cc8:	eb00069b 	bl	b200273c <printk>
b2000ccc:	e51b3008 	ldr	r3, [fp, #-8]
b2000cd0:	e5933000 	ldr	r3, [r3]
b2000cd4:	e50b3008 	str	r3, [fp, #-8]
b2000cd8:	e51b3008 	ldr	r3, [fp, #-8]
b2000cdc:	e5933000 	ldr	r3, [r3]
b2000ce0:	e3530000 	cmp	r3, #0
b2000ce4:	1afffff1 	bne	b2000cb0 <print_from_blk_head+0x20>
b2000ce8:	e51b3008 	ldr	r3, [fp, #-8]
b2000cec:	e5933000 	ldr	r3, [r3]
b2000cf0:	e1a02003 	mov	r2, r3
b2000cf4:	e51b1008 	ldr	r1, [fp, #-8]
b2000cf8:	e3080288 	movw	r0, #33416	; 0x8288
b2000cfc:	e34b0200 	movt	r0, #45568	; 0xb200
b2000d00:	eb00068d 	bl	b200273c <printk>
b2000d04:	e320f000 	nop	{0}
b2000d08:	e24bd004 	sub	sp, fp, #4
b2000d0c:	e8bd8800 	pop	{fp, pc}

b2000d10 <test_sys_getsubdir_and_getfdir>:
b2000d10:	e92d4800 	push	{fp, lr}
b2000d14:	e28db004 	add	fp, sp, #4
b2000d18:	e24dd068 	sub	sp, sp, #104	; 0x68
b2000d1c:	e24b305c 	sub	r3, fp, #92	; 0x5c
b2000d20:	e3a02050 	mov	r2, #80	; 0x50
b2000d24:	e3a01000 	mov	r1, #0
b2000d28:	e1a00003 	mov	r0, r3
b2000d2c:	eb0007b2 	bl	b2002bfc <_memset>
b2000d30:	e24b305c 	sub	r3, fp, #92	; 0x5c
b2000d34:	e3a01050 	mov	r1, #80	; 0x50
b2000d38:	e1a00003 	mov	r0, r3
b2000d3c:	eb001bcc 	bl	b2007c74 <__getsubdir>
b2000d40:	e1a03000 	mov	r3, r0
b2000d44:	e3530000 	cmp	r3, #0
b2000d48:	aa000002 	bge	b2000d58 <test_sys_getsubdir_and_getfdir+0x48>
b2000d4c:	e30802a0 	movw	r0, #33440	; 0x82a0
b2000d50:	e34b0200 	movt	r0, #45568	; 0xb200
b2000d54:	eb000678 	bl	b200273c <printk>
b2000d58:	e24b305c 	sub	r3, fp, #92	; 0x5c
b2000d5c:	e1a00003 	mov	r0, r3
b2000d60:	eb00118a 	bl	b2005390 <put_str>
b2000d64:	e30802b8 	movw	r0, #33464	; 0x82b8
b2000d68:	e34b0200 	movt	r0, #45568	; 0xb200
b2000d6c:	eb001187 	bl	b2005390 <put_str>
b2000d70:	e30802bc 	movw	r0, #33468	; 0x82bc
b2000d74:	e34b0200 	movt	r0, #45568	; 0xb200
b2000d78:	eb00066f 	bl	b200273c <printk>
b2000d7c:	e30832d8 	movw	r3, #33496	; 0x82d8
b2000d80:	e34b3200 	movt	r3, #45568	; 0xb200
b2000d84:	e50b300c 	str	r3, [fp, #-12]
b2000d88:	e24b305c 	sub	r3, fp, #92	; 0x5c
b2000d8c:	e50b3008 	str	r3, [fp, #-8]
b2000d90:	ea000012 	b	b2000de0 <test_sys_getsubdir_and_getfdir+0xd0>
b2000d94:	e24b306c 	sub	r3, fp, #108	; 0x6c
b2000d98:	e3a02010 	mov	r2, #16
b2000d9c:	e3a01000 	mov	r1, #0
b2000da0:	e1a00003 	mov	r0, r3
b2000da4:	eb000794 	bl	b2002bfc <_memset>
b2000da8:	e51b000c 	ldr	r0, [fp, #-12]
b2000dac:	eb001249 	bl	b20056d8 <_strlen>
b2000db0:	e1a02000 	mov	r2, r0
b2000db4:	e24b306c 	sub	r3, fp, #108	; 0x6c
b2000db8:	e51b100c 	ldr	r1, [fp, #-12]
b2000dbc:	e51b0008 	ldr	r0, [fp, #-8]
b2000dc0:	eb0012f4 	bl	b2005998 <strtok_fst>
b2000dc4:	e50b0008 	str	r0, [fp, #-8]
b2000dc8:	e30802dc 	movw	r0, #33500	; 0x82dc
b2000dcc:	e34b0200 	movt	r0, #45568	; 0xb200
b2000dd0:	eb00116e 	bl	b2005390 <put_str>
b2000dd4:	e24b306c 	sub	r3, fp, #108	; 0x6c
b2000dd8:	e1a00003 	mov	r0, r3
b2000ddc:	eb00116b 	bl	b2005390 <put_str>
b2000de0:	e51b3008 	ldr	r3, [fp, #-8]
b2000de4:	e3530000 	cmp	r3, #0
b2000de8:	1affffe9 	bne	b2000d94 <test_sys_getsubdir_and_getfdir+0x84>
b2000dec:	e30802e0 	movw	r0, #33504	; 0x82e0
b2000df0:	e34b0200 	movt	r0, #45568	; 0xb200
b2000df4:	eb000650 	bl	b200273c <printk>
b2000df8:	e24b305c 	sub	r3, fp, #92	; 0x5c
b2000dfc:	e3a02050 	mov	r2, #80	; 0x50
b2000e00:	e3a01000 	mov	r1, #0
b2000e04:	e1a00003 	mov	r0, r3
b2000e08:	eb00077b 	bl	b2002bfc <_memset>
b2000e0c:	e24b305c 	sub	r3, fp, #92	; 0x5c
b2000e10:	e3a01050 	mov	r1, #80	; 0x50
b2000e14:	e1a00003 	mov	r0, r3
b2000e18:	eb001baf 	bl	b2007cdc <__getfdir>
b2000e1c:	e1a03000 	mov	r3, r0
b2000e20:	e3530000 	cmp	r3, #0
b2000e24:	aa000002 	bge	b2000e34 <test_sys_getsubdir_and_getfdir+0x124>
b2000e28:	e30802a0 	movw	r0, #33440	; 0x82a0
b2000e2c:	e34b0200 	movt	r0, #45568	; 0xb200
b2000e30:	eb000641 	bl	b200273c <printk>
b2000e34:	e24b305c 	sub	r3, fp, #92	; 0x5c
b2000e38:	e1a00003 	mov	r0, r3
b2000e3c:	eb001153 	bl	b2005390 <put_str>
b2000e40:	e30802b8 	movw	r0, #33464	; 0x82b8
b2000e44:	e34b0200 	movt	r0, #45568	; 0xb200
b2000e48:	eb001150 	bl	b2005390 <put_str>
b2000e4c:	e30802fc 	movw	r0, #33532	; 0x82fc
b2000e50:	e34b0200 	movt	r0, #45568	; 0xb200
b2000e54:	eb000638 	bl	b200273c <printk>
b2000e58:	e24b305c 	sub	r3, fp, #92	; 0x5c
b2000e5c:	e50b3008 	str	r3, [fp, #-8]
b2000e60:	ea000012 	b	b2000eb0 <test_sys_getsubdir_and_getfdir+0x1a0>
b2000e64:	e24b306c 	sub	r3, fp, #108	; 0x6c
b2000e68:	e3a02010 	mov	r2, #16
b2000e6c:	e3a01000 	mov	r1, #0
b2000e70:	e1a00003 	mov	r0, r3
b2000e74:	eb000760 	bl	b2002bfc <_memset>
b2000e78:	e51b000c 	ldr	r0, [fp, #-12]
b2000e7c:	eb001215 	bl	b20056d8 <_strlen>
b2000e80:	e1a02000 	mov	r2, r0
b2000e84:	e24b306c 	sub	r3, fp, #108	; 0x6c
b2000e88:	e51b100c 	ldr	r1, [fp, #-12]
b2000e8c:	e51b0008 	ldr	r0, [fp, #-8]
b2000e90:	eb0012c0 	bl	b2005998 <strtok_fst>
b2000e94:	e50b0008 	str	r0, [fp, #-8]
b2000e98:	e30802dc 	movw	r0, #33500	; 0x82dc
b2000e9c:	e34b0200 	movt	r0, #45568	; 0xb200
b2000ea0:	eb00113a 	bl	b2005390 <put_str>
b2000ea4:	e24b306c 	sub	r3, fp, #108	; 0x6c
b2000ea8:	e1a00003 	mov	r0, r3
b2000eac:	eb001137 	bl	b2005390 <put_str>
b2000eb0:	e51b3008 	ldr	r3, [fp, #-8]
b2000eb4:	e3530000 	cmp	r3, #0
b2000eb8:	1affffe9 	bne	b2000e64 <test_sys_getsubdir_and_getfdir+0x154>
b2000ebc:	e3080314 	movw	r0, #33556	; 0x8314
b2000ec0:	e34b0200 	movt	r0, #45568	; 0xb200
b2000ec4:	eb00061c 	bl	b200273c <printk>
b2000ec8:	e320f000 	nop	{0}
b2000ecc:	e24bd004 	sub	sp, fp, #4
b2000ed0:	e8bd8800 	pop	{fp, pc}

b2000ed4 <test_sys_chdir>:
b2000ed4:	e92d4800 	push	{fp, lr}
b2000ed8:	e28db004 	add	fp, sp, #4
b2000edc:	e308032c 	movw	r0, #33580	; 0x832c
b2000ee0:	e34b0200 	movt	r0, #45568	; 0xb200
b2000ee4:	eb001129 	bl	b2005390 <put_str>
b2000ee8:	ebfffc44 	bl	b2000000 <lsdir>
b2000eec:	e3080348 	movw	r0, #33608	; 0x8348
b2000ef0:	e34b0200 	movt	r0, #45568	; 0xb200
b2000ef4:	eb001125 	bl	b2005390 <put_str>
b2000ef8:	e3080360 	movw	r0, #33632	; 0x8360
b2000efc:	e34b0200 	movt	r0, #45568	; 0xb200
b2000f00:	eb001b8f 	bl	b2007d44 <__chdir>
b2000f04:	e1a03000 	mov	r3, r0
b2000f08:	e3530000 	cmp	r3, #0
b2000f0c:	aa000002 	bge	b2000f1c <test_sys_chdir+0x48>
b2000f10:	e3080368 	movw	r0, #33640	; 0x8368
b2000f14:	e34b0200 	movt	r0, #45568	; 0xb200
b2000f18:	eb00111c 	bl	b2005390 <put_str>
b2000f1c:	ebfffc37 	bl	b2000000 <lsdir>
b2000f20:	e3080348 	movw	r0, #33608	; 0x8348
b2000f24:	e34b0200 	movt	r0, #45568	; 0xb200
b2000f28:	eb001118 	bl	b2005390 <put_str>
b2000f2c:	e308037c 	movw	r0, #33660	; 0x837c
b2000f30:	e34b0200 	movt	r0, #45568	; 0xb200
b2000f34:	eb001b82 	bl	b2007d44 <__chdir>
b2000f38:	e1a03000 	mov	r3, r0
b2000f3c:	e3530000 	cmp	r3, #0
b2000f40:	aa000002 	bge	b2000f50 <test_sys_chdir+0x7c>
b2000f44:	e3080368 	movw	r0, #33640	; 0x8368
b2000f48:	e34b0200 	movt	r0, #45568	; 0xb200
b2000f4c:	eb00110f 	bl	b2005390 <put_str>
b2000f50:	ebfffc2a 	bl	b2000000 <lsdir>
b2000f54:	e3080348 	movw	r0, #33608	; 0x8348
b2000f58:	e34b0200 	movt	r0, #45568	; 0xb200
b2000f5c:	eb00110b 	bl	b2005390 <put_str>
b2000f60:	e308037c 	movw	r0, #33660	; 0x837c
b2000f64:	e34b0200 	movt	r0, #45568	; 0xb200
b2000f68:	eb001b75 	bl	b2007d44 <__chdir>
b2000f6c:	e1a03000 	mov	r3, r0
b2000f70:	e3530000 	cmp	r3, #0
b2000f74:	aa000002 	bge	b2000f84 <test_sys_chdir+0xb0>
b2000f78:	e3080368 	movw	r0, #33640	; 0x8368
b2000f7c:	e34b0200 	movt	r0, #45568	; 0xb200
b2000f80:	eb001102 	bl	b2005390 <put_str>
b2000f84:	e3080380 	movw	r0, #33664	; 0x8380
b2000f88:	e34b0200 	movt	r0, #45568	; 0xb200
b2000f8c:	eb0010ff 	bl	b2005390 <put_str>
b2000f90:	ebfffc1a 	bl	b2000000 <lsdir>
b2000f94:	e320f000 	nop	{0}
b2000f98:	e8bd8800 	pop	{fp, pc}

b2000f9c <irq_entry>:
b2000f9c:	e92d5fff 	push	{r0, r1, r2, r3, r4, r5, r6, r7, r8, r9, sl, fp, ip, lr}
b2000fa0:	eb00040e 	bl	b2001fe0 <getActivateIrqNum>
b2000fa4:	e3500042 	cmp	r0, #66	; 0x42
b2000fa8:	1a000011 	bne	b2000ff4 <non_ostick_irq>
b2000fac:	e8bd5fff 	pop	{r0, r1, r2, r3, r4, r5, r6, r7, r8, r9, sl, fp, ip, lr}
b2000fb0:	e24ee004 	sub	lr, lr, #4
b2000fb4:	e1a0900e 	mov	r9, lr
b2000fb8:	e14fc000 	mrs	ip, SPSR
b2000fbc:	e59fd0ac 	ldr	sp, [pc, #172]	; b2001070 <data_abort+0x4>
b2000fc0:	e10fa000 	mrs	sl, CPSR
b2000fc4:	e3caa01f 	bic	sl, sl, #31
b2000fc8:	e38aa01f 	orr	sl, sl, #31
b2000fcc:	e38aa0c0 	orr	sl, sl, #192	; 0xc0
b2000fd0:	e129f00a 	msr	CPSR_fc, sl
b2000fd4:	e92d5fff 	push	{r0, r1, r2, r3, r4, r5, r6, r7, r8, r9, sl, fp, ip, lr}
b2000fd8:	e1a0000d 	mov	r0, sp
b2000fdc:	e10fa000 	mrs	sl, CPSR
b2000fe0:	e3caa01f 	bic	sl, sl, #31
b2000fe4:	e38aa013 	orr	sl, sl, #19
b2000fe8:	e38aa0c0 	orr	sl, sl, #192	; 0xc0
b2000fec:	e129f00a 	msr	CPSR_fc, sl
b2000ff0:	eb000555 	bl	b200254c <timer0_ISR>

b2000ff4 <non_ostick_irq>:
b2000ff4:	e8bd5fff 	pop	{r0, r1, r2, r3, r4, r5, r6, r7, r8, r9, sl, fp, ip, lr}
b2000ff8:	ea000538 	b	b20024e0 <irqs_handler>

b2000ffc <svc_entry>:
b2000ffc:	e1a0900e 	mov	r9, lr
b2001000:	e14fc000 	mrs	ip, SPSR
b2001004:	e10fa000 	mrs	sl, CPSR
b2001008:	e3caa01f 	bic	sl, sl, #31
b200100c:	e38aa01f 	orr	sl, sl, #31
b2001010:	e38aa0c0 	orr	sl, sl, #192	; 0xc0
b2001014:	e129f00a 	msr	CPSR_fc, sl
b2001018:	e1a0e009 	mov	lr, r9
b200101c:	e92d5fff 	push	{r0, r1, r2, r3, r4, r5, r6, r7, r8, r9, sl, fp, ip, lr}
b2001020:	e1a0100d 	mov	r1, sp
b2001024:	e10fa000 	mrs	sl, CPSR
b2001028:	e3caa01f 	bic	sl, sl, #31
b200102c:	e38aa013 	orr	sl, sl, #19
b2001030:	e38aa0c0 	orr	sl, sl, #192	; 0xc0
b2001034:	e129f00a 	msr	CPSR_fc, sl
b2001038:	e92d000f 	push	{r0, r1, r2, r3}
b200103c:	eb0012b4 	bl	b2005b14 <syscall_handler>
b2001040:	e8bd000f 	pop	{r0, r1, r2, r3}
b2001044:	e10fa000 	mrs	sl, CPSR
b2001048:	e3caa01f 	bic	sl, sl, #31
b200104c:	e38aa01f 	orr	sl, sl, #31
b2001050:	e38aa0c0 	orr	sl, sl, #192	; 0xc0
b2001054:	e129f00a 	msr	CPSR_fc, sl
b2001058:	e8bd5fff 	pop	{r0, r1, r2, r3, r4, r5, r6, r7, r8, r9, sl, fp, ip, lr}
b200105c:	e14fa000 	mrs	sl, SPSR
b2001060:	e129f00a 	msr	CPSR_fc, sl
b2001064:	e12fff3e 	blx	lr

b2001068 <prefetch_abort_entry>:
b2001068:	ea00058b 	b	b200269c <prefetch_abort_handler>

b200106c <data_abort>:
b200106c:	ea000593 	b	b20026c0 <data_abort_handler>
b2001070:	9df41000 	ldclls	0, cr1, [r4]

b2001074 <file_in_ram_init>:
b2001074:	e92d4800 	push	{fp, lr}
b2001078:	e28db004 	add	fp, sp, #4
b200107c:	e24dd008 	sub	sp, sp, #8
b2001080:	eb00005e 	bl	b2001200 <path_tree_init>
b2001084:	e1a03000 	mov	r3, r0
b2001088:	e3530000 	cmp	r3, #0
b200108c:	aa000001 	bge	b2001098 <file_in_ram_init+0x24>
b2001090:	e3e03000 	mvn	r3, #0
b2001094:	ea000056 	b	b20011f4 <file_in_ram_init+0x180>
b2001098:	eb00007d 	bl	b2001294 <create_root_path>
b200109c:	e1a03000 	mov	r3, r0
b20010a0:	e3530000 	cmp	r3, #0
b20010a4:	aa000001 	bge	b20010b0 <file_in_ram_init+0x3c>
b20010a8:	e3e03000 	mvn	r3, #0
b20010ac:	ea000050 	b	b20011f4 <file_in_ram_init+0x180>
b20010b0:	e3083ed4 	movw	r3, #36564	; 0x8ed4
b20010b4:	e34b3200 	movt	r3, #45568	; 0xb200
b20010b8:	e5933000 	ldr	r3, [r3]
b20010bc:	e308139c 	movw	r1, #33692	; 0x839c
b20010c0:	e34b1200 	movt	r1, #45568	; 0xb200
b20010c4:	e1a00003 	mov	r0, r3
b20010c8:	eb0000ae 	bl	b2001388 <create_path_node>
b20010cc:	e50b0008 	str	r0, [fp, #-8]
b20010d0:	e51b3008 	ldr	r3, [fp, #-8]
b20010d4:	e3530000 	cmp	r3, #0
b20010d8:	1a000001 	bne	b20010e4 <file_in_ram_init+0x70>
b20010dc:	e3e03000 	mvn	r3, #0
b20010e0:	ea000043 	b	b20011f4 <file_in_ram_init+0x180>
b20010e4:	e3083ed4 	movw	r3, #36564	; 0x8ed4
b20010e8:	e34b3200 	movt	r3, #45568	; 0xb200
b20010ec:	e5933000 	ldr	r3, [r3]
b20010f0:	e30813a4 	movw	r1, #33700	; 0x83a4
b20010f4:	e34b1200 	movt	r1, #45568	; 0xb200
b20010f8:	e1a00003 	mov	r0, r3
b20010fc:	eb0000a1 	bl	b2001388 <create_path_node>
b2001100:	e50b000c 	str	r0, [fp, #-12]
b2001104:	e51b300c 	ldr	r3, [fp, #-12]
b2001108:	e3530000 	cmp	r3, #0
b200110c:	1a000001 	bne	b2001118 <file_in_ram_init+0xa4>
b2001110:	e3e03000 	mvn	r3, #0
b2001114:	ea000036 	b	b20011f4 <file_in_ram_init+0x180>
b2001118:	e3a02000 	mov	r2, #0
b200111c:	e30813ac 	movw	r1, #33708	; 0x83ac
b2001120:	e34b1200 	movt	r1, #45568	; 0xb200
b2001124:	e51b0008 	ldr	r0, [fp, #-8]
b2001128:	eb00015c 	bl	b20016a0 <create_file_under_node>
b200112c:	e3a02001 	mov	r2, #1
b2001130:	e30813bc 	movw	r1, #33724	; 0x83bc
b2001134:	e34b1200 	movt	r1, #45568	; 0xb200
b2001138:	e51b0008 	ldr	r0, [fp, #-8]
b200113c:	eb000157 	bl	b20016a0 <create_file_under_node>
b2001140:	e3a02002 	mov	r2, #2
b2001144:	e30813cc 	movw	r1, #33740	; 0x83cc
b2001148:	e34b1200 	movt	r1, #45568	; 0xb200
b200114c:	e51b0008 	ldr	r0, [fp, #-8]
b2001150:	eb000152 	bl	b20016a0 <create_file_under_node>
b2001154:	e3083ed4 	movw	r3, #36564	; 0x8ed4
b2001158:	e34b3200 	movt	r3, #45568	; 0xb200
b200115c:	e5933000 	ldr	r3, [r3]
b2001160:	e3a02004 	mov	r2, #4
b2001164:	e30813d4 	movw	r1, #33748	; 0x83d4
b2001168:	e34b1200 	movt	r1, #45568	; 0xb200
b200116c:	e1a00003 	mov	r0, r3
b2001170:	eb00014a 	bl	b20016a0 <create_file_under_node>
b2001174:	e3083ed4 	movw	r3, #36564	; 0x8ed4
b2001178:	e34b3200 	movt	r3, #45568	; 0xb200
b200117c:	e5933000 	ldr	r3, [r3]
b2001180:	e3a02004 	mov	r2, #4
b2001184:	e30813e4 	movw	r1, #33764	; 0x83e4
b2001188:	e34b1200 	movt	r1, #45568	; 0xb200
b200118c:	e1a00003 	mov	r0, r3
b2001190:	eb000142 	bl	b20016a0 <create_file_under_node>
b2001194:	e3083ed4 	movw	r3, #36564	; 0x8ed4
b2001198:	e34b3200 	movt	r3, #45568	; 0xb200
b200119c:	e5933000 	ldr	r3, [r3]
b20011a0:	e3a02004 	mov	r2, #4
b20011a4:	e30813f4 	movw	r1, #33780	; 0x83f4
b20011a8:	e34b1200 	movt	r1, #45568	; 0xb200
b20011ac:	e1a00003 	mov	r0, r3
b20011b0:	eb00013a 	bl	b20016a0 <create_file_under_node>
b20011b4:	e3083ed4 	movw	r3, #36564	; 0x8ed4
b20011b8:	e34b3200 	movt	r3, #45568	; 0xb200
b20011bc:	e5933000 	ldr	r3, [r3]
b20011c0:	e3a02004 	mov	r2, #4
b20011c4:	e3081404 	movw	r1, #33796	; 0x8404
b20011c8:	e34b1200 	movt	r1, #45568	; 0xb200
b20011cc:	e1a00003 	mov	r0, r3
b20011d0:	eb000132 	bl	b20016a0 <create_file_under_node>
b20011d4:	e3083ed4 	movw	r3, #36564	; 0x8ed4
b20011d8:	e34b3200 	movt	r3, #45568	; 0xb200
b20011dc:	e5933000 	ldr	r3, [r3]
b20011e0:	e3a02004 	mov	r2, #4
b20011e4:	e3081414 	movw	r1, #33812	; 0x8414
b20011e8:	e34b1200 	movt	r1, #45568	; 0xb200
b20011ec:	e1a00003 	mov	r0, r3
b20011f0:	eb00012a 	bl	b20016a0 <create_file_under_node>
b20011f4:	e1a00003 	mov	r0, r3
b20011f8:	e24bd004 	sub	sp, fp, #4
b20011fc:	e8bd8800 	pop	{fp, pc}

b2001200 <path_tree_init>:
b2001200:	e92d4800 	push	{fp, lr}
b2001204:	e28db004 	add	fp, sp, #4
b2001208:	eb0007a9 	bl	b20030b4 <page_alloc>
b200120c:	e1a02000 	mov	r2, r0
b2001210:	e30930e8 	movw	r3, #37096	; 0x90e8
b2001214:	e34b3200 	movt	r3, #45568	; 0xb200
b2001218:	e5832000 	str	r2, [r3]
b200121c:	e30930e8 	movw	r3, #37096	; 0x90e8
b2001220:	e34b3200 	movt	r3, #45568	; 0xb200
b2001224:	e5933000 	ldr	r3, [r3]
b2001228:	e3530000 	cmp	r3, #0
b200122c:	1a000001 	bne	b2001238 <path_tree_init+0x38>
b2001230:	e3e03000 	mvn	r3, #0
b2001234:	ea000014 	b	b200128c <path_tree_init+0x8c>
b2001238:	e30930e8 	movw	r3, #37096	; 0x90e8
b200123c:	e34b3200 	movt	r3, #45568	; 0xb200
b2001240:	e5933000 	ldr	r3, [r3]
b2001244:	e5932010 	ldr	r2, [r3, #16]
b2001248:	e30930e8 	movw	r3, #37096	; 0x90e8
b200124c:	e34b3200 	movt	r3, #45568	; 0xb200
b2001250:	e5832004 	str	r2, [r3, #4]
b2001254:	e30930e8 	movw	r3, #37096	; 0x90e8
b2001258:	e34b3200 	movt	r3, #45568	; 0xb200
b200125c:	e5933000 	ldr	r3, [r3]
b2001260:	e3a02002 	mov	r2, #2
b2001264:	e5832008 	str	r2, [r3, #8]
b2001268:	e30930e8 	movw	r3, #37096	; 0x90e8
b200126c:	e34b3200 	movt	r3, #45568	; 0xb200
b2001270:	e3a02000 	mov	r2, #0
b2001274:	e5832008 	str	r2, [r3, #8]
b2001278:	e30930e8 	movw	r3, #37096	; 0x90e8
b200127c:	e34b3200 	movt	r3, #45568	; 0xb200
b2001280:	e3a02000 	mov	r2, #0
b2001284:	e583200c 	str	r2, [r3, #12]
b2001288:	e3a03000 	mov	r3, #0
b200128c:	e1a00003 	mov	r0, r3
b2001290:	e8bd8800 	pop	{fp, pc}

b2001294 <create_root_path>:
b2001294:	e52db004 	push	{fp}		; (str fp, [sp, #-4]!)
b2001298:	e28db000 	add	fp, sp, #0
b200129c:	e3083ed4 	movw	r3, #36564	; 0x8ed4
b20012a0:	e34b3200 	movt	r3, #45568	; 0xb200
b20012a4:	e5933000 	ldr	r3, [r3]
b20012a8:	e3530000 	cmp	r3, #0
b20012ac:	0a000001 	beq	b20012b8 <create_root_path+0x24>
b20012b0:	e3e03000 	mvn	r3, #0
b20012b4:	ea00002f 	b	b2001378 <create_root_path+0xe4>
b20012b8:	e30930e8 	movw	r3, #37096	; 0x90e8
b20012bc:	e34b3200 	movt	r3, #45568	; 0xb200
b20012c0:	e5932004 	ldr	r2, [r3, #4]
b20012c4:	e3083ed4 	movw	r3, #36564	; 0x8ed4
b20012c8:	e34b3200 	movt	r3, #45568	; 0xb200
b20012cc:	e5832000 	str	r2, [r3]
b20012d0:	e30930e8 	movw	r3, #37096	; 0x90e8
b20012d4:	e34b3200 	movt	r3, #45568	; 0xb200
b20012d8:	e5933004 	ldr	r3, [r3, #4]
b20012dc:	e2832024 	add	r2, r3, #36	; 0x24
b20012e0:	e30930e8 	movw	r3, #37096	; 0x90e8
b20012e4:	e34b3200 	movt	r3, #45568	; 0xb200
b20012e8:	e5832004 	str	r2, [r3, #4]
b20012ec:	e3083ed4 	movw	r3, #36564	; 0x8ed4
b20012f0:	e34b3200 	movt	r3, #45568	; 0xb200
b20012f4:	e5933000 	ldr	r3, [r3]
b20012f8:	e3a02000 	mov	r2, #0
b20012fc:	e5832000 	str	r2, [r3]
b2001300:	e3083ed4 	movw	r3, #36564	; 0x8ed4
b2001304:	e34b3200 	movt	r3, #45568	; 0xb200
b2001308:	e5933000 	ldr	r3, [r3]
b200130c:	e3a02000 	mov	r2, #0
b2001310:	e5832004 	str	r2, [r3, #4]
b2001314:	e3083ed4 	movw	r3, #36564	; 0x8ed4
b2001318:	e34b3200 	movt	r3, #45568	; 0xb200
b200131c:	e5933000 	ldr	r3, [r3]
b2001320:	e3a02000 	mov	r2, #0
b2001324:	e5832008 	str	r2, [r3, #8]
b2001328:	e3083ed4 	movw	r3, #36564	; 0x8ed4
b200132c:	e34b3200 	movt	r3, #45568	; 0xb200
b2001330:	e5933000 	ldr	r3, [r3]
b2001334:	e3a02000 	mov	r2, #0
b2001338:	e583200c 	str	r2, [r3, #12]
b200133c:	e3083ed4 	movw	r3, #36564	; 0x8ed4
b2001340:	e34b3200 	movt	r3, #45568	; 0xb200
b2001344:	e5932000 	ldr	r2, [r3]
b2001348:	e3083ed4 	movw	r3, #36564	; 0x8ed4
b200134c:	e34b3200 	movt	r3, #45568	; 0xb200
b2001350:	e5933000 	ldr	r3, [r3]
b2001354:	e2822010 	add	r2, r2, #16
b2001358:	e5832020 	str	r2, [r3, #32]
b200135c:	e3083ed4 	movw	r3, #36564	; 0x8ed4
b2001360:	e34b3200 	movt	r3, #45568	; 0xb200
b2001364:	e5932000 	ldr	r2, [r3]
b2001368:	e3083424 	movw	r3, #33828	; 0x8424
b200136c:	e34b3200 	movt	r3, #45568	; 0xb200
b2001370:	e5823020 	str	r3, [r2, #32]
b2001374:	e3a03000 	mov	r3, #0
b2001378:	e1a00003 	mov	r0, r3
b200137c:	e28bd000 	add	sp, fp, #0
b2001380:	e49db004 	pop	{fp}		; (ldr fp, [sp], #4)
b2001384:	e12fff1e 	bx	lr

b2001388 <create_path_node>:
b2001388:	e92d4800 	push	{fp, lr}
b200138c:	e28db004 	add	fp, sp, #4
b2001390:	e24dd018 	sub	sp, sp, #24
b2001394:	e50b0018 	str	r0, [fp, #-24]	; 0xffffffe8
b2001398:	e50b101c 	str	r1, [fp, #-28]	; 0xffffffe4
b200139c:	e3083ed4 	movw	r3, #36564	; 0x8ed4
b20013a0:	e34b3200 	movt	r3, #45568	; 0xb200
b20013a4:	e5933000 	ldr	r3, [r3]
b20013a8:	e3530000 	cmp	r3, #0
b20013ac:	0a000002 	beq	b20013bc <create_path_node+0x34>
b20013b0:	e51b3018 	ldr	r3, [fp, #-24]	; 0xffffffe8
b20013b4:	e3530000 	cmp	r3, #0
b20013b8:	1a000001 	bne	b20013c4 <create_path_node+0x3c>
b20013bc:	e3a03000 	mov	r3, #0
b20013c0:	ea000046 	b	b20014e0 <create_path_node+0x158>
b20013c4:	e30930e8 	movw	r3, #37096	; 0x90e8
b20013c8:	e34b3200 	movt	r3, #45568	; 0xb200
b20013cc:	e5933004 	ldr	r3, [r3, #4]
b20013d0:	e50b300c 	str	r3, [fp, #-12]
b20013d4:	e30930e8 	movw	r3, #37096	; 0x90e8
b20013d8:	e34b3200 	movt	r3, #45568	; 0xb200
b20013dc:	e5933004 	ldr	r3, [r3, #4]
b20013e0:	e2832024 	add	r2, r3, #36	; 0x24
b20013e4:	e30930e8 	movw	r3, #37096	; 0x90e8
b20013e8:	e34b3200 	movt	r3, #45568	; 0xb200
b20013ec:	e5832004 	str	r2, [r3, #4]
b20013f0:	e51b300c 	ldr	r3, [fp, #-12]
b20013f4:	e3a02000 	mov	r2, #0
b20013f8:	e5832000 	str	r2, [r3]
b20013fc:	e51b300c 	ldr	r3, [fp, #-12]
b2001400:	e51b2018 	ldr	r2, [fp, #-24]	; 0xffffffe8
b2001404:	e5832004 	str	r2, [r3, #4]
b2001408:	e51b300c 	ldr	r3, [fp, #-12]
b200140c:	e3a02000 	mov	r2, #0
b2001410:	e5832008 	str	r2, [r3, #8]
b2001414:	e51b300c 	ldr	r3, [fp, #-12]
b2001418:	e3a02000 	mov	r2, #0
b200141c:	e583200c 	str	r2, [r3, #12]
b2001420:	e51b300c 	ldr	r3, [fp, #-12]
b2001424:	e2833010 	add	r3, r3, #16
b2001428:	e3a02010 	mov	r2, #16
b200142c:	e3a01000 	mov	r1, #0
b2001430:	e1a00003 	mov	r0, r3
b2001434:	eb0005f0 	bl	b2002bfc <_memset>
b2001438:	e51b300c 	ldr	r3, [fp, #-12]
b200143c:	e2832010 	add	r2, r3, #16
b2001440:	e51b300c 	ldr	r3, [fp, #-12]
b2001444:	e5832020 	str	r2, [r3, #32]
b2001448:	e51b300c 	ldr	r3, [fp, #-12]
b200144c:	e5933020 	ldr	r3, [r3, #32]
b2001450:	e50b3008 	str	r3, [fp, #-8]
b2001454:	ea000009 	b	b2001480 <create_path_node+0xf8>
b2001458:	e51b301c 	ldr	r3, [fp, #-28]	; 0xffffffe4
b200145c:	e5d32000 	ldrb	r2, [r3]
b2001460:	e51b3008 	ldr	r3, [fp, #-8]
b2001464:	e5c32000 	strb	r2, [r3]
b2001468:	e51b3008 	ldr	r3, [fp, #-8]
b200146c:	e2833001 	add	r3, r3, #1
b2001470:	e50b3008 	str	r3, [fp, #-8]
b2001474:	e51b301c 	ldr	r3, [fp, #-28]	; 0xffffffe4
b2001478:	e2833001 	add	r3, r3, #1
b200147c:	e50b301c 	str	r3, [fp, #-28]	; 0xffffffe4
b2001480:	e51b301c 	ldr	r3, [fp, #-28]	; 0xffffffe4
b2001484:	e5d33000 	ldrb	r3, [r3]
b2001488:	e3530000 	cmp	r3, #0
b200148c:	1afffff1 	bne	b2001458 <create_path_node+0xd0>
b2001490:	e51b300c 	ldr	r3, [fp, #-12]
b2001494:	e5933004 	ldr	r3, [r3, #4]
b2001498:	e5933000 	ldr	r3, [r3]
b200149c:	e3530000 	cmp	r3, #0
b20014a0:	0a000009 	beq	b20014cc <create_path_node+0x144>
b20014a4:	e51b300c 	ldr	r3, [fp, #-12]
b20014a8:	e5933004 	ldr	r3, [r3, #4]
b20014ac:	e5933000 	ldr	r3, [r3]
b20014b0:	e1a00003 	mov	r0, r3
b20014b4:	eb00000c 	bl	b20014ec <find_end_sibling>
b20014b8:	e50b0010 	str	r0, [fp, #-16]
b20014bc:	e51b3010 	ldr	r3, [fp, #-16]
b20014c0:	e51b200c 	ldr	r2, [fp, #-12]
b20014c4:	e5832008 	str	r2, [r3, #8]
b20014c8:	ea000003 	b	b20014dc <create_path_node+0x154>
b20014cc:	e51b300c 	ldr	r3, [fp, #-12]
b20014d0:	e5933004 	ldr	r3, [r3, #4]
b20014d4:	e51b200c 	ldr	r2, [fp, #-12]
b20014d8:	e5832000 	str	r2, [r3]
b20014dc:	e51b300c 	ldr	r3, [fp, #-12]
b20014e0:	e1a00003 	mov	r0, r3
b20014e4:	e24bd004 	sub	sp, fp, #4
b20014e8:	e8bd8800 	pop	{fp, pc}

b20014ec <find_end_sibling>:
b20014ec:	e52db004 	push	{fp}		; (str fp, [sp, #-4]!)
b20014f0:	e28db000 	add	fp, sp, #0
b20014f4:	e24dd014 	sub	sp, sp, #20
b20014f8:	e50b0010 	str	r0, [fp, #-16]
b20014fc:	e51b3010 	ldr	r3, [fp, #-16]
b2001500:	e50b3008 	str	r3, [fp, #-8]
b2001504:	ea000002 	b	b2001514 <find_end_sibling+0x28>
b2001508:	e51b3008 	ldr	r3, [fp, #-8]
b200150c:	e5933008 	ldr	r3, [r3, #8]
b2001510:	e50b3008 	str	r3, [fp, #-8]
b2001514:	e51b3008 	ldr	r3, [fp, #-8]
b2001518:	e5933008 	ldr	r3, [r3, #8]
b200151c:	e3530000 	cmp	r3, #0
b2001520:	1afffff8 	bne	b2001508 <find_end_sibling+0x1c>
b2001524:	e51b3008 	ldr	r3, [fp, #-8]
b2001528:	e1a00003 	mov	r0, r3
b200152c:	e28bd000 	add	sp, fp, #0
b2001530:	e49db004 	pop	{fp}		; (ldr fp, [sp], #4)
b2001534:	e12fff1e 	bx	lr

b2001538 <print_under_node>:
b2001538:	e92d4810 	push	{r4, fp, lr}
b200153c:	e28db008 	add	fp, sp, #8
b2001540:	e24dd014 	sub	sp, sp, #20
b2001544:	e50b0018 	str	r0, [fp, #-24]	; 0xffffffe8
b2001548:	e51b3018 	ldr	r3, [fp, #-24]	; 0xffffffe8
b200154c:	e3530000 	cmp	r3, #0
b2001550:	0a00003c 	beq	b2001648 <print_under_node+0x110>
b2001554:	e51b3018 	ldr	r3, [fp, #-24]	; 0xffffffe8
b2001558:	e5933000 	ldr	r3, [r3]
b200155c:	e50b3010 	str	r3, [fp, #-16]
b2001560:	e51b3018 	ldr	r3, [fp, #-24]	; 0xffffffe8
b2001564:	e593300c 	ldr	r3, [r3, #12]
b2001568:	e50b3014 	str	r3, [fp, #-20]	; 0xffffffec
b200156c:	ea000016 	b	b20015cc <print_under_node+0x94>
b2001570:	e51b3010 	ldr	r3, [fp, #-16]
b2001574:	e5934020 	ldr	r4, [r3, #32]
b2001578:	e51b3010 	ldr	r3, [fp, #-16]
b200157c:	e5933020 	ldr	r3, [r3, #32]
b2001580:	e1a00003 	mov	r0, r3
b2001584:	eb001053 	bl	b20056d8 <_strlen>
b2001588:	e1a03000 	mov	r3, r0
b200158c:	e1a02003 	mov	r2, r3
b2001590:	e1a01004 	mov	r1, r4
b2001594:	e3a00a09 	mov	r0, #36864	; 0x9000
b2001598:	e34404e0 	movt	r0, #17632	; 0x44e0
b200159c:	eb001860 	bl	b2007724 <uart_tx_str>
b20015a0:	e3a0100d 	mov	r1, #13
b20015a4:	e3a00a09 	mov	r0, #36864	; 0x9000
b20015a8:	e34404e0 	movt	r0, #17632	; 0x44e0
b20015ac:	eb001837 	bl	b2007690 <uart_putC>
b20015b0:	e3a0100a 	mov	r1, #10
b20015b4:	e3a00a09 	mov	r0, #36864	; 0x9000
b20015b8:	e34404e0 	movt	r0, #17632	; 0x44e0
b20015bc:	eb001833 	bl	b2007690 <uart_putC>
b20015c0:	e51b3010 	ldr	r3, [fp, #-16]
b20015c4:	e5933008 	ldr	r3, [r3, #8]
b20015c8:	e50b3010 	str	r3, [fp, #-16]
b20015cc:	e51b3010 	ldr	r3, [fp, #-16]
b20015d0:	e3530000 	cmp	r3, #0
b20015d4:	1affffe5 	bne	b2001570 <print_under_node+0x38>
b20015d8:	ea000016 	b	b2001638 <print_under_node+0x100>
b20015dc:	e51b3014 	ldr	r3, [fp, #-20]	; 0xffffffec
b20015e0:	e5934024 	ldr	r4, [r3, #36]	; 0x24
b20015e4:	e51b3014 	ldr	r3, [fp, #-20]	; 0xffffffec
b20015e8:	e5933024 	ldr	r3, [r3, #36]	; 0x24
b20015ec:	e1a00003 	mov	r0, r3
b20015f0:	eb001038 	bl	b20056d8 <_strlen>
b20015f4:	e1a03000 	mov	r3, r0
b20015f8:	e1a02003 	mov	r2, r3
b20015fc:	e1a01004 	mov	r1, r4
b2001600:	e3a00a09 	mov	r0, #36864	; 0x9000
b2001604:	e34404e0 	movt	r0, #17632	; 0x44e0
b2001608:	eb001845 	bl	b2007724 <uart_tx_str>
b200160c:	e3a0100d 	mov	r1, #13
b2001610:	e3a00a09 	mov	r0, #36864	; 0x9000
b2001614:	e34404e0 	movt	r0, #17632	; 0x44e0
b2001618:	eb00181c 	bl	b2007690 <uart_putC>
b200161c:	e3a0100a 	mov	r1, #10
b2001620:	e3a00a09 	mov	r0, #36864	; 0x9000
b2001624:	e34404e0 	movt	r0, #17632	; 0x44e0
b2001628:	eb001818 	bl	b2007690 <uart_putC>
b200162c:	e51b3014 	ldr	r3, [fp, #-20]	; 0xffffffec
b2001630:	e5933000 	ldr	r3, [r3]
b2001634:	e50b3014 	str	r3, [fp, #-20]	; 0xffffffec
b2001638:	e51b3014 	ldr	r3, [fp, #-20]	; 0xffffffec
b200163c:	e3530000 	cmp	r3, #0
b2001640:	1affffe5 	bne	b20015dc <print_under_node+0xa4>
b2001644:	ea000000 	b	b200164c <print_under_node+0x114>
b2001648:	e320f000 	nop	{0}
b200164c:	e24bd008 	sub	sp, fp, #8
b2001650:	e8bd8810 	pop	{r4, fp, pc}

b2001654 <find_end_filesibling>:
b2001654:	e52db004 	push	{fp}		; (str fp, [sp, #-4]!)
b2001658:	e28db000 	add	fp, sp, #0
b200165c:	e24dd014 	sub	sp, sp, #20
b2001660:	e50b0010 	str	r0, [fp, #-16]
b2001664:	e51b3010 	ldr	r3, [fp, #-16]
b2001668:	e50b3008 	str	r3, [fp, #-8]
b200166c:	ea000002 	b	b200167c <find_end_filesibling+0x28>
b2001670:	e51b3008 	ldr	r3, [fp, #-8]
b2001674:	e5933000 	ldr	r3, [r3]
b2001678:	e50b3008 	str	r3, [fp, #-8]
b200167c:	e51b3008 	ldr	r3, [fp, #-8]
b2001680:	e5933000 	ldr	r3, [r3]
b2001684:	e3530000 	cmp	r3, #0
b2001688:	1afffff8 	bne	b2001670 <find_end_filesibling+0x1c>
b200168c:	e51b3008 	ldr	r3, [fp, #-8]
b2001690:	e1a00003 	mov	r0, r3
b2001694:	e28bd000 	add	sp, fp, #0
b2001698:	e49db004 	pop	{fp}		; (ldr fp, [sp], #4)
b200169c:	e12fff1e 	bx	lr

b20016a0 <create_file_under_node>:
b20016a0:	e92d4800 	push	{fp, lr}
b20016a4:	e28db004 	add	fp, sp, #4
b20016a8:	e24dd020 	sub	sp, sp, #32
b20016ac:	e50b0018 	str	r0, [fp, #-24]	; 0xffffffe8
b20016b0:	e50b101c 	str	r1, [fp, #-28]	; 0xffffffe4
b20016b4:	e50b2020 	str	r2, [fp, #-32]	; 0xffffffe0
b20016b8:	e3083ed4 	movw	r3, #36564	; 0x8ed4
b20016bc:	e34b3200 	movt	r3, #45568	; 0xb200
b20016c0:	e5933000 	ldr	r3, [r3]
b20016c4:	e3530000 	cmp	r3, #0
b20016c8:	0a000002 	beq	b20016d8 <create_file_under_node+0x38>
b20016cc:	e51b3018 	ldr	r3, [fp, #-24]	; 0xffffffe8
b20016d0:	e3530000 	cmp	r3, #0
b20016d4:	1a000001 	bne	b20016e0 <create_file_under_node+0x40>
b20016d8:	e3a03000 	mov	r3, #0
b20016dc:	ea00006d 	b	b2001898 <create_file_under_node+0x1f8>
b20016e0:	e30930e8 	movw	r3, #37096	; 0x90e8
b20016e4:	e34b3200 	movt	r3, #45568	; 0xb200
b20016e8:	e5933004 	ldr	r3, [r3, #4]
b20016ec:	e50b300c 	str	r3, [fp, #-12]
b20016f0:	e30930e8 	movw	r3, #37096	; 0x90e8
b20016f4:	e34b3200 	movt	r3, #45568	; 0xb200
b20016f8:	e5933004 	ldr	r3, [r3, #4]
b20016fc:	e2832030 	add	r2, r3, #48	; 0x30
b2001700:	e30930e8 	movw	r3, #37096	; 0x90e8
b2001704:	e34b3200 	movt	r3, #45568	; 0xb200
b2001708:	e5832004 	str	r2, [r3, #4]
b200170c:	e51b300c 	ldr	r3, [fp, #-12]
b2001710:	e51b2018 	ldr	r2, [fp, #-24]	; 0xffffffe8
b2001714:	e5832008 	str	r2, [r3, #8]
b2001718:	e51b300c 	ldr	r3, [fp, #-12]
b200171c:	e2833014 	add	r3, r3, #20
b2001720:	e3a02010 	mov	r2, #16
b2001724:	e3a01000 	mov	r1, #0
b2001728:	e1a00003 	mov	r0, r3
b200172c:	eb000532 	bl	b2002bfc <_memset>
b2001730:	e51b300c 	ldr	r3, [fp, #-12]
b2001734:	e2832014 	add	r2, r3, #20
b2001738:	e51b300c 	ldr	r3, [fp, #-12]
b200173c:	e5832024 	str	r2, [r3, #36]	; 0x24
b2001740:	e51b300c 	ldr	r3, [fp, #-12]
b2001744:	e5933024 	ldr	r3, [r3, #36]	; 0x24
b2001748:	e50b3008 	str	r3, [fp, #-8]
b200174c:	ea000009 	b	b2001778 <create_file_under_node+0xd8>
b2001750:	e51b301c 	ldr	r3, [fp, #-28]	; 0xffffffe4
b2001754:	e5d32000 	ldrb	r2, [r3]
b2001758:	e51b3008 	ldr	r3, [fp, #-8]
b200175c:	e5c32000 	strb	r2, [r3]
b2001760:	e51b3008 	ldr	r3, [fp, #-8]
b2001764:	e2833001 	add	r3, r3, #1
b2001768:	e50b3008 	str	r3, [fp, #-8]
b200176c:	e51b301c 	ldr	r3, [fp, #-28]	; 0xffffffe4
b2001770:	e2833001 	add	r3, r3, #1
b2001774:	e50b301c 	str	r3, [fp, #-28]	; 0xffffffe4
b2001778:	e51b301c 	ldr	r3, [fp, #-28]	; 0xffffffe4
b200177c:	e5d33000 	ldrb	r3, [r3]
b2001780:	e3530000 	cmp	r3, #0
b2001784:	1afffff1 	bne	b2001750 <create_file_under_node+0xb0>
b2001788:	e51b2020 	ldr	r2, [fp, #-32]	; 0xffffffe0
b200178c:	e51b300c 	ldr	r3, [fp, #-12]
b2001790:	e5832004 	str	r2, [r3, #4]
b2001794:	e51b300c 	ldr	r3, [fp, #-12]
b2001798:	e5933004 	ldr	r3, [r3, #4]
b200179c:	e3530002 	cmp	r3, #2
b20017a0:	0a000016 	beq	b2001800 <create_file_under_node+0x160>
b20017a4:	e3530002 	cmp	r3, #2
b20017a8:	8a00001d 	bhi	b2001824 <create_file_under_node+0x184>
b20017ac:	e3530000 	cmp	r3, #0
b20017b0:	0a000002 	beq	b20017c0 <create_file_under_node+0x120>
b20017b4:	e3530001 	cmp	r3, #1
b20017b8:	0a000008 	beq	b20017e0 <create_file_under_node+0x140>
b20017bc:	ea000018 	b	b2001824 <create_file_under_node+0x184>
b20017c0:	e51b200c 	ldr	r2, [fp, #-12]
b20017c4:	e3013a44 	movw	r3, #6724	; 0x1a44
b20017c8:	e34b3200 	movt	r3, #45568	; 0xb200
b20017cc:	e582300c 	str	r3, [r2, #12]
b20017d0:	e51b300c 	ldr	r3, [fp, #-12]
b20017d4:	e3a02000 	mov	r2, #0
b20017d8:	e5832010 	str	r2, [r3, #16]
b20017dc:	ea000017 	b	b2001840 <create_file_under_node+0x1a0>
b20017e0:	e51b300c 	ldr	r3, [fp, #-12]
b20017e4:	e3a02000 	mov	r2, #0
b20017e8:	e583200c 	str	r2, [r3, #12]
b20017ec:	e51b200c 	ldr	r2, [fp, #-12]
b20017f0:	e3013ac8 	movw	r3, #6856	; 0x1ac8
b20017f4:	e34b3200 	movt	r3, #45568	; 0xb200
b20017f8:	e5823010 	str	r3, [r2, #16]
b20017fc:	ea00000f 	b	b2001840 <create_file_under_node+0x1a0>
b2001800:	e51b200c 	ldr	r2, [fp, #-12]
b2001804:	e3013a44 	movw	r3, #6724	; 0x1a44
b2001808:	e34b3200 	movt	r3, #45568	; 0xb200
b200180c:	e582300c 	str	r3, [r2, #12]
b2001810:	e51b200c 	ldr	r2, [fp, #-12]
b2001814:	e3013ac8 	movw	r3, #6856	; 0x1ac8
b2001818:	e34b3200 	movt	r3, #45568	; 0xb200
b200181c:	e5823010 	str	r3, [r2, #16]
b2001820:	ea000006 	b	b2001840 <create_file_under_node+0x1a0>
b2001824:	e51b300c 	ldr	r3, [fp, #-12]
b2001828:	e3a02000 	mov	r2, #0
b200182c:	e583200c 	str	r2, [r3, #12]
b2001830:	e51b300c 	ldr	r3, [fp, #-12]
b2001834:	e3a02000 	mov	r2, #0
b2001838:	e5832010 	str	r2, [r3, #16]
b200183c:	e320f000 	nop	{0}
b2001840:	e51b300c 	ldr	r3, [fp, #-12]
b2001844:	e3a02000 	mov	r2, #0
b2001848:	e5832000 	str	r2, [r3]
b200184c:	e51b3018 	ldr	r3, [fp, #-24]	; 0xffffffe8
b2001850:	e593300c 	ldr	r3, [r3, #12]
b2001854:	e3530000 	cmp	r3, #0
b2001858:	1a000003 	bne	b200186c <create_file_under_node+0x1cc>
b200185c:	e51b3018 	ldr	r3, [fp, #-24]	; 0xffffffe8
b2001860:	e51b200c 	ldr	r2, [fp, #-12]
b2001864:	e583200c 	str	r2, [r3, #12]
b2001868:	ea000007 	b	b200188c <create_file_under_node+0x1ec>
b200186c:	e51b3018 	ldr	r3, [fp, #-24]	; 0xffffffe8
b2001870:	e593300c 	ldr	r3, [r3, #12]
b2001874:	e1a00003 	mov	r0, r3
b2001878:	ebffff75 	bl	b2001654 <find_end_filesibling>
b200187c:	e50b0010 	str	r0, [fp, #-16]
b2001880:	e51b3010 	ldr	r3, [fp, #-16]
b2001884:	e51b200c 	ldr	r2, [fp, #-12]
b2001888:	e5832000 	str	r2, [r3]
b200188c:	e51b000c 	ldr	r0, [fp, #-12]
b2001890:	eb000003 	bl	b20018a4 <file_list_push>
b2001894:	e51b300c 	ldr	r3, [fp, #-12]
b2001898:	e1a00003 	mov	r0, r3
b200189c:	e24bd004 	sub	sp, fp, #4
b20018a0:	e8bd8800 	pop	{fp, pc}

b20018a4 <file_list_push>:
b20018a4:	e52db004 	push	{fp}		; (str fp, [sp, #-4]!)
b20018a8:	e28db000 	add	fp, sp, #0
b20018ac:	e24dd014 	sub	sp, sp, #20
b20018b0:	e50b0010 	str	r0, [fp, #-16]
b20018b4:	e3083ed8 	movw	r3, #36568	; 0x8ed8
b20018b8:	e34b3200 	movt	r3, #45568	; 0xb200
b20018bc:	e5933000 	ldr	r3, [r3]
b20018c0:	e3530000 	cmp	r3, #0
b20018c4:	1a00000a 	bne	b20018f4 <file_list_push+0x50>
b20018c8:	e3083ed8 	movw	r3, #36568	; 0x8ed8
b20018cc:	e34b3200 	movt	r3, #45568	; 0xb200
b20018d0:	e51b2010 	ldr	r2, [fp, #-16]
b20018d4:	e5832000 	str	r2, [r3]
b20018d8:	e51b3010 	ldr	r3, [fp, #-16]
b20018dc:	e3a02000 	mov	r2, #0
b20018e0:	e5832028 	str	r2, [r3, #40]	; 0x28
b20018e4:	e51b3010 	ldr	r3, [fp, #-16]
b20018e8:	e3a02000 	mov	r2, #0
b20018ec:	e583202c 	str	r2, [r3, #44]	; 0x2c
b20018f0:	ea00002a 	b	b20019a0 <file_list_push+0xfc>
b20018f4:	e3083ed8 	movw	r3, #36568	; 0x8ed8
b20018f8:	e34b3200 	movt	r3, #45568	; 0xb200
b20018fc:	e5933000 	ldr	r3, [r3]
b2001900:	e5933028 	ldr	r3, [r3, #40]	; 0x28
b2001904:	e3530000 	cmp	r3, #0
b2001908:	1a00000d 	bne	b2001944 <file_list_push+0xa0>
b200190c:	e3083ed8 	movw	r3, #36568	; 0x8ed8
b2001910:	e34b3200 	movt	r3, #45568	; 0xb200
b2001914:	e5933000 	ldr	r3, [r3]
b2001918:	e51b2010 	ldr	r2, [fp, #-16]
b200191c:	e5832028 	str	r2, [r3, #40]	; 0x28
b2001920:	e3083ed8 	movw	r3, #36568	; 0x8ed8
b2001924:	e34b3200 	movt	r3, #45568	; 0xb200
b2001928:	e5932000 	ldr	r2, [r3]
b200192c:	e51b3010 	ldr	r3, [fp, #-16]
b2001930:	e583202c 	str	r2, [r3, #44]	; 0x2c
b2001934:	e51b3010 	ldr	r3, [fp, #-16]
b2001938:	e3a02000 	mov	r2, #0
b200193c:	e5832028 	str	r2, [r3, #40]	; 0x28
b2001940:	ea000016 	b	b20019a0 <file_list_push+0xfc>
b2001944:	e3083ed8 	movw	r3, #36568	; 0x8ed8
b2001948:	e34b3200 	movt	r3, #45568	; 0xb200
b200194c:	e5933000 	ldr	r3, [r3]
b2001950:	e50b3008 	str	r3, [fp, #-8]
b2001954:	ea000002 	b	b2001964 <file_list_push+0xc0>
b2001958:	e51b3008 	ldr	r3, [fp, #-8]
b200195c:	e5933028 	ldr	r3, [r3, #40]	; 0x28
b2001960:	e50b3008 	str	r3, [fp, #-8]
b2001964:	e51b3008 	ldr	r3, [fp, #-8]
b2001968:	e5933028 	ldr	r3, [r3, #40]	; 0x28
b200196c:	e3530000 	cmp	r3, #0
b2001970:	1afffff8 	bne	b2001958 <file_list_push+0xb4>
b2001974:	e51b3008 	ldr	r3, [fp, #-8]
b2001978:	e50b300c 	str	r3, [fp, #-12]
b200197c:	e51b300c 	ldr	r3, [fp, #-12]
b2001980:	e51b2010 	ldr	r2, [fp, #-16]
b2001984:	e5832028 	str	r2, [r3, #40]	; 0x28
b2001988:	e51b3010 	ldr	r3, [fp, #-16]
b200198c:	e51b200c 	ldr	r2, [fp, #-12]
b2001990:	e583202c 	str	r2, [r3, #44]	; 0x2c
b2001994:	e51b3010 	ldr	r3, [fp, #-16]
b2001998:	e3a02000 	mov	r2, #0
b200199c:	e5832028 	str	r2, [r3, #40]	; 0x28
b20019a0:	e28bd000 	add	sp, fp, #0
b20019a4:	e49db004 	pop	{fp}		; (ldr fp, [sp], #4)
b20019a8:	e12fff1e 	bx	lr

b20019ac <print_file_list>:
b20019ac:	e92d4810 	push	{r4, fp, lr}
b20019b0:	e28db008 	add	fp, sp, #8
b20019b4:	e24dd00c 	sub	sp, sp, #12
b20019b8:	e3083ed8 	movw	r3, #36568	; 0x8ed8
b20019bc:	e34b3200 	movt	r3, #45568	; 0xb200
b20019c0:	e5933000 	ldr	r3, [r3]
b20019c4:	e50b3010 	str	r3, [fp, #-16]
b20019c8:	ea000016 	b	b2001a28 <print_file_list+0x7c>
b20019cc:	e51b3010 	ldr	r3, [fp, #-16]
b20019d0:	e5934024 	ldr	r4, [r3, #36]	; 0x24
b20019d4:	e51b3010 	ldr	r3, [fp, #-16]
b20019d8:	e5933024 	ldr	r3, [r3, #36]	; 0x24
b20019dc:	e1a00003 	mov	r0, r3
b20019e0:	eb000f3c 	bl	b20056d8 <_strlen>
b20019e4:	e1a03000 	mov	r3, r0
b20019e8:	e1a02003 	mov	r2, r3
b20019ec:	e1a01004 	mov	r1, r4
b20019f0:	e3a00a09 	mov	r0, #36864	; 0x9000
b20019f4:	e34404e0 	movt	r0, #17632	; 0x44e0
b20019f8:	eb001749 	bl	b2007724 <uart_tx_str>
b20019fc:	e3a0100d 	mov	r1, #13
b2001a00:	e3a00a09 	mov	r0, #36864	; 0x9000
b2001a04:	e34404e0 	movt	r0, #17632	; 0x44e0
b2001a08:	eb001720 	bl	b2007690 <uart_putC>
b2001a0c:	e3a0100a 	mov	r1, #10
b2001a10:	e3a00a09 	mov	r0, #36864	; 0x9000
b2001a14:	e34404e0 	movt	r0, #17632	; 0x44e0
b2001a18:	eb00171c 	bl	b2007690 <uart_putC>
b2001a1c:	e51b3010 	ldr	r3, [fp, #-16]
b2001a20:	e5933028 	ldr	r3, [r3, #40]	; 0x28
b2001a24:	e50b3010 	str	r3, [fp, #-16]
b2001a28:	e51b3010 	ldr	r3, [fp, #-16]
b2001a2c:	e3530000 	cmp	r3, #0
b2001a30:	1affffe5 	bne	b20019cc <print_file_list+0x20>
b2001a34:	e320f000 	nop	{0}
b2001a38:	e320f000 	nop	{0}
b2001a3c:	e24bd008 	sub	sp, fp, #8
b2001a40:	e8bd8810 	pop	{r4, fp, pc}

b2001a44 <console_read_func>:
b2001a44:	e92d4800 	push	{fp, lr}
b2001a48:	e28db004 	add	fp, sp, #4
b2001a4c:	e24dd010 	sub	sp, sp, #16
b2001a50:	e50b0010 	str	r0, [fp, #-16]
b2001a54:	e50b1014 	str	r1, [fp, #-20]	; 0xffffffec
b2001a58:	e51b3010 	ldr	r3, [fp, #-16]
b2001a5c:	e50b3008 	str	r3, [fp, #-8]
b2001a60:	e3a03000 	mov	r3, #0
b2001a64:	e50b300c 	str	r3, [fp, #-12]
b2001a68:	ea00000f 	b	b2001aac <console_read_func+0x68>
b2001a6c:	e3a00a09 	mov	r0, #36864	; 0x9000
b2001a70:	e34404e0 	movt	r0, #17632	; 0x44e0
b2001a74:	eb001718 	bl	b20076dc <uart_getC>
b2001a78:	e1a03000 	mov	r3, r0
b2001a7c:	e1a02003 	mov	r2, r3
b2001a80:	e51b3008 	ldr	r3, [fp, #-8]
b2001a84:	e5c32000 	strb	r2, [r3]
b2001a88:	e51b3008 	ldr	r3, [fp, #-8]
b2001a8c:	e2833001 	add	r3, r3, #1
b2001a90:	e50b3008 	str	r3, [fp, #-8]
b2001a94:	e51b300c 	ldr	r3, [fp, #-12]
b2001a98:	e2833001 	add	r3, r3, #1
b2001a9c:	e50b300c 	str	r3, [fp, #-12]
b2001aa0:	e51b3014 	ldr	r3, [fp, #-20]	; 0xffffffec
b2001aa4:	e2433001 	sub	r3, r3, #1
b2001aa8:	e50b3014 	str	r3, [fp, #-20]	; 0xffffffec
b2001aac:	e51b3014 	ldr	r3, [fp, #-20]	; 0xffffffec
b2001ab0:	e3530000 	cmp	r3, #0
b2001ab4:	1affffec 	bne	b2001a6c <console_read_func+0x28>
b2001ab8:	e51b300c 	ldr	r3, [fp, #-12]
b2001abc:	e1a00003 	mov	r0, r3
b2001ac0:	e24bd004 	sub	sp, fp, #4
b2001ac4:	e8bd8800 	pop	{fp, pc}

b2001ac8 <console_write_func>:
b2001ac8:	e92d4800 	push	{fp, lr}
b2001acc:	e28db004 	add	fp, sp, #4
b2001ad0:	e24dd010 	sub	sp, sp, #16
b2001ad4:	e50b0010 	str	r0, [fp, #-16]
b2001ad8:	e50b1014 	str	r1, [fp, #-20]	; 0xffffffec
b2001adc:	e51b3010 	ldr	r3, [fp, #-16]
b2001ae0:	e50b3008 	str	r3, [fp, #-8]
b2001ae4:	e3a03000 	mov	r3, #0
b2001ae8:	e50b300c 	str	r3, [fp, #-12]
b2001aec:	ea00000e 	b	b2001b2c <console_write_func+0x64>
b2001af0:	e51b3008 	ldr	r3, [fp, #-8]
b2001af4:	e5d33000 	ldrb	r3, [r3]
b2001af8:	e1a01003 	mov	r1, r3
b2001afc:	e3a00a09 	mov	r0, #36864	; 0x9000
b2001b00:	e34404e0 	movt	r0, #17632	; 0x44e0
b2001b04:	eb0016e1 	bl	b2007690 <uart_putC>
b2001b08:	e51b3008 	ldr	r3, [fp, #-8]
b2001b0c:	e2833001 	add	r3, r3, #1
b2001b10:	e50b3008 	str	r3, [fp, #-8]
b2001b14:	e51b300c 	ldr	r3, [fp, #-12]
b2001b18:	e2833001 	add	r3, r3, #1
b2001b1c:	e50b300c 	str	r3, [fp, #-12]
b2001b20:	e51b3014 	ldr	r3, [fp, #-20]	; 0xffffffec
b2001b24:	e2433001 	sub	r3, r3, #1
b2001b28:	e50b3014 	str	r3, [fp, #-20]	; 0xffffffec
b2001b2c:	e51b3014 	ldr	r3, [fp, #-20]	; 0xffffffec
b2001b30:	e3530000 	cmp	r3, #0
b2001b34:	1affffed 	bne	b2001af0 <console_write_func+0x28>
b2001b38:	e51b300c 	ldr	r3, [fp, #-12]
b2001b3c:	e1a00003 	mov	r0, r3
b2001b40:	e24bd004 	sub	sp, fp, #4
b2001b44:	e8bd8800 	pop	{fp, pc}

b2001b48 <find_file>:
b2001b48:	e92d4800 	push	{fp, lr}
b2001b4c:	e28db004 	add	fp, sp, #4
b2001b50:	e24dd010 	sub	sp, sp, #16
b2001b54:	e50b0010 	str	r0, [fp, #-16]
b2001b58:	e3083ed8 	movw	r3, #36568	; 0x8ed8
b2001b5c:	e34b3200 	movt	r3, #45568	; 0xb200
b2001b60:	e5933000 	ldr	r3, [r3]
b2001b64:	e50b3008 	str	r3, [fp, #-8]
b2001b68:	ea00000c 	b	b2001ba0 <find_file+0x58>
b2001b6c:	e51b3008 	ldr	r3, [fp, #-8]
b2001b70:	e5933024 	ldr	r3, [r3, #36]	; 0x24
b2001b74:	e1a01003 	mov	r1, r3
b2001b78:	e51b0010 	ldr	r0, [fp, #-16]
b2001b7c:	eb000eeb 	bl	b2005730 <_strcmp>
b2001b80:	e1a03000 	mov	r3, r0
b2001b84:	e3530000 	cmp	r3, #0
b2001b88:	1a000001 	bne	b2001b94 <find_file+0x4c>
b2001b8c:	e51b3008 	ldr	r3, [fp, #-8]
b2001b90:	ea000011 	b	b2001bdc <find_file+0x94>
b2001b94:	e51b3008 	ldr	r3, [fp, #-8]
b2001b98:	e5933028 	ldr	r3, [r3, #40]	; 0x28
b2001b9c:	e50b3008 	str	r3, [fp, #-8]
b2001ba0:	e51b3008 	ldr	r3, [fp, #-8]
b2001ba4:	e5933028 	ldr	r3, [r3, #40]	; 0x28
b2001ba8:	e3530000 	cmp	r3, #0
b2001bac:	1affffee 	bne	b2001b6c <find_file+0x24>
b2001bb0:	e51b3008 	ldr	r3, [fp, #-8]
b2001bb4:	e5933024 	ldr	r3, [r3, #36]	; 0x24
b2001bb8:	e1a01003 	mov	r1, r3
b2001bbc:	e51b0010 	ldr	r0, [fp, #-16]
b2001bc0:	eb000eda 	bl	b2005730 <_strcmp>
b2001bc4:	e1a03000 	mov	r3, r0
b2001bc8:	e3530000 	cmp	r3, #0
b2001bcc:	1a000001 	bne	b2001bd8 <find_file+0x90>
b2001bd0:	e51b3008 	ldr	r3, [fp, #-8]
b2001bd4:	ea000000 	b	b2001bdc <find_file+0x94>
b2001bd8:	e3a03000 	mov	r3, #0
b2001bdc:	e1a00003 	mov	r0, r3
b2001be0:	e24bd004 	sub	sp, fp, #4
b2001be4:	e8bd8800 	pop	{fp, pc}

b2001be8 <file_open>:
b2001be8:	e92d4800 	push	{fp, lr}
b2001bec:	e28db004 	add	fp, sp, #4
b2001bf0:	e24dd018 	sub	sp, sp, #24
b2001bf4:	e50b0018 	str	r0, [fp, #-24]	; 0xffffffe8
b2001bf8:	e50b101c 	str	r1, [fp, #-28]	; 0xffffffe4
b2001bfc:	e51b301c 	ldr	r3, [fp, #-28]	; 0xffffffe4
b2001c00:	e50b3010 	str	r3, [fp, #-16]
b2001c04:	e3e03000 	mvn	r3, #0
b2001c08:	e50b3008 	str	r3, [fp, #-8]
b2001c0c:	e51b0018 	ldr	r0, [fp, #-24]	; 0xffffffe8
b2001c10:	ebffffcc 	bl	b2001b48 <find_file>
b2001c14:	e50b0014 	str	r0, [fp, #-20]	; 0xffffffec
b2001c18:	e51b3014 	ldr	r3, [fp, #-20]	; 0xffffffec
b2001c1c:	e3530000 	cmp	r3, #0
b2001c20:	1a000001 	bne	b2001c2c <file_open+0x44>
b2001c24:	e3e03000 	mvn	r3, #0
b2001c28:	ea00001e 	b	b2001ca8 <file_open+0xc0>
b2001c2c:	e3a03000 	mov	r3, #0
b2001c30:	e50b300c 	str	r3, [fp, #-12]
b2001c34:	ea000017 	b	b2001c98 <file_open+0xb0>
b2001c38:	e51b2010 	ldr	r2, [fp, #-16]
b2001c3c:	e51b300c 	ldr	r3, [fp, #-12]
b2001c40:	e2833008 	add	r3, r3, #8
b2001c44:	e1a03103 	lsl	r3, r3, #2
b2001c48:	e0823003 	add	r3, r2, r3
b2001c4c:	e5933004 	ldr	r3, [r3, #4]
b2001c50:	e3530000 	cmp	r3, #0
b2001c54:	1a00000c 	bne	b2001c8c <file_open+0xa4>
b2001c58:	e51b300c 	ldr	r3, [fp, #-12]
b2001c5c:	e3530002 	cmp	r3, #2
b2001c60:	0a000009 	beq	b2001c8c <file_open+0xa4>
b2001c64:	e51b2010 	ldr	r2, [fp, #-16]
b2001c68:	e51b300c 	ldr	r3, [fp, #-12]
b2001c6c:	e2833008 	add	r3, r3, #8
b2001c70:	e1a03103 	lsl	r3, r3, #2
b2001c74:	e0823003 	add	r3, r2, r3
b2001c78:	e51b2014 	ldr	r2, [fp, #-20]	; 0xffffffec
b2001c7c:	e5832004 	str	r2, [r3, #4]
b2001c80:	e51b300c 	ldr	r3, [fp, #-12]
b2001c84:	e50b3008 	str	r3, [fp, #-8]
b2001c88:	ea000005 	b	b2001ca4 <file_open+0xbc>
b2001c8c:	e51b300c 	ldr	r3, [fp, #-12]
b2001c90:	e2833001 	add	r3, r3, #1
b2001c94:	e50b300c 	str	r3, [fp, #-12]
b2001c98:	e51b300c 	ldr	r3, [fp, #-12]
b2001c9c:	e3530007 	cmp	r3, #7
b2001ca0:	daffffe4 	ble	b2001c38 <file_open+0x50>
b2001ca4:	e51b3008 	ldr	r3, [fp, #-8]
b2001ca8:	e1a00003 	mov	r0, r3
b2001cac:	e24bd004 	sub	sp, fp, #4
b2001cb0:	e8bd8800 	pop	{fp, pc}

b2001cb4 <find_target_subdir>:
b2001cb4:	e92d4800 	push	{fp, lr}
b2001cb8:	e28db004 	add	fp, sp, #4
b2001cbc:	e24dd010 	sub	sp, sp, #16
b2001cc0:	e50b0010 	str	r0, [fp, #-16]
b2001cc4:	e50b1014 	str	r1, [fp, #-20]	; 0xffffffec
b2001cc8:	e51b3010 	ldr	r3, [fp, #-16]
b2001ccc:	e5933000 	ldr	r3, [r3]
b2001cd0:	e50b3008 	str	r3, [fp, #-8]
b2001cd4:	e308142c 	movw	r1, #33836	; 0x842c
b2001cd8:	e34b1200 	movt	r1, #45568	; 0xb200
b2001cdc:	e51b0014 	ldr	r0, [fp, #-20]	; 0xffffffec
b2001ce0:	eb000e92 	bl	b2005730 <_strcmp>
b2001ce4:	e50b000c 	str	r0, [fp, #-12]
b2001ce8:	e51b300c 	ldr	r3, [fp, #-12]
b2001cec:	e3530000 	cmp	r3, #0
b2001cf0:	0a000012 	beq	b2001d40 <find_target_subdir+0x8c>
b2001cf4:	ea00000c 	b	b2001d2c <find_target_subdir+0x78>
b2001cf8:	e51b3008 	ldr	r3, [fp, #-8]
b2001cfc:	e5933020 	ldr	r3, [r3, #32]
b2001d00:	e51b1014 	ldr	r1, [fp, #-20]	; 0xffffffec
b2001d04:	e1a00003 	mov	r0, r3
b2001d08:	eb000e88 	bl	b2005730 <_strcmp>
b2001d0c:	e1a03000 	mov	r3, r0
b2001d10:	e3530000 	cmp	r3, #0
b2001d14:	1a000001 	bne	b2001d20 <find_target_subdir+0x6c>
b2001d18:	e51b3008 	ldr	r3, [fp, #-8]
b2001d1c:	ea000014 	b	b2001d74 <find_target_subdir+0xc0>
b2001d20:	e51b3008 	ldr	r3, [fp, #-8]
b2001d24:	e5933008 	ldr	r3, [r3, #8]
b2001d28:	e50b3008 	str	r3, [fp, #-8]
b2001d2c:	e51b3008 	ldr	r3, [fp, #-8]
b2001d30:	e3530000 	cmp	r3, #0
b2001d34:	1affffef 	bne	b2001cf8 <find_target_subdir+0x44>
b2001d38:	e3a03000 	mov	r3, #0
b2001d3c:	ea00000c 	b	b2001d74 <find_target_subdir+0xc0>
b2001d40:	e51b300c 	ldr	r3, [fp, #-12]
b2001d44:	e3530000 	cmp	r3, #0
b2001d48:	1a000008 	bne	b2001d70 <find_target_subdir+0xbc>
b2001d4c:	e51b3010 	ldr	r3, [fp, #-16]
b2001d50:	e5933004 	ldr	r3, [r3, #4]
b2001d54:	e3530000 	cmp	r3, #0
b2001d58:	1a000001 	bne	b2001d64 <find_target_subdir+0xb0>
b2001d5c:	e3a03000 	mov	r3, #0
b2001d60:	ea000003 	b	b2001d74 <find_target_subdir+0xc0>
b2001d64:	e51b3010 	ldr	r3, [fp, #-16]
b2001d68:	e5933004 	ldr	r3, [r3, #4]
b2001d6c:	ea000000 	b	b2001d74 <find_target_subdir+0xc0>
b2001d70:	e3a03000 	mov	r3, #0
b2001d74:	e1a00003 	mov	r0, r3
b2001d78:	e24bd004 	sub	sp, fp, #4
b2001d7c:	e8bd8800 	pop	{fp, pc}

b2001d80 <fork_test>:
b2001d80:	e92d4800 	push	{fp, lr}
b2001d84:	e28db004 	add	fp, sp, #4
b2001d88:	e24dd008 	sub	sp, sp, #8
b2001d8c:	e3a01000 	mov	r1, #0
b2001d90:	e3010dd8 	movw	r0, #7640	; 0x1dd8
b2001d94:	e34b0200 	movt	r0, #45568	; 0xb200
b2001d98:	eb001747 	bl	b2007abc <__do_taskCreate>
b2001d9c:	e3a03000 	mov	r3, #0
b2001da0:	e50b3008 	str	r3, [fp, #-8]
b2001da4:	ea000002 	b	b2001db4 <fork_test+0x34>
b2001da8:	e51b3008 	ldr	r3, [fp, #-8]
b2001dac:	e2833001 	add	r3, r3, #1
b2001db0:	e50b3008 	str	r3, [fp, #-8]
b2001db4:	e51b2008 	ldr	r2, [fp, #-8]
b2001db8:	e3003d3f 	movw	r3, #3391	; 0xd3f
b2001dbc:	e3403003 	movt	r3, #3
b2001dc0:	e1520003 	cmp	r2, r3
b2001dc4:	dafffff7 	ble	b2001da8 <fork_test+0x28>
b2001dc8:	e3a03000 	mov	r3, #0
b2001dcc:	e1a00003 	mov	r0, r3
b2001dd0:	e24bd004 	sub	sp, fp, #4
b2001dd4:	e8bd8800 	pop	{fp, pc}

b2001dd8 <fork_test_main>:
b2001dd8:	e92d4800 	push	{fp, lr}
b2001ddc:	e28db004 	add	fp, sp, #4
b2001de0:	e24dd020 	sub	sp, sp, #32
b2001de4:	e3080430 	movw	r0, #33840	; 0x8430
b2001de8:	e34b0200 	movt	r0, #45568	; 0xb200
b2001dec:	eb000d7b 	bl	b20053e0 <uprintf>
b2001df0:	e3080460 	movw	r0, #33888	; 0x8460
b2001df4:	e34b0200 	movt	r0, #45568	; 0xb200
b2001df8:	eb000d78 	bl	b20053e0 <uprintf>
b2001dfc:	eb00173e 	bl	b2007afc <__malloc_blk>
b2001e00:	e50b000c 	str	r0, [fp, #-12]
b2001e04:	e51b100c 	ldr	r1, [fp, #-12]
b2001e08:	e3080494 	movw	r0, #33940	; 0x8494
b2001e0c:	e34b0200 	movt	r0, #45568	; 0xb200
b2001e10:	eb000d72 	bl	b20053e0 <uprintf>
b2001e14:	eb001738 	bl	b2007afc <__malloc_blk>
b2001e18:	e50b0010 	str	r0, [fp, #-16]
b2001e1c:	e51b1010 	ldr	r1, [fp, #-16]
b2001e20:	e30804b0 	movw	r0, #33968	; 0x84b0
b2001e24:	e34b0200 	movt	r0, #45568	; 0xb200
b2001e28:	eb000d6c 	bl	b20053e0 <uprintf>
b2001e2c:	eb001732 	bl	b2007afc <__malloc_blk>
b2001e30:	e50b0014 	str	r0, [fp, #-20]	; 0xffffffec
b2001e34:	e51b1014 	ldr	r1, [fp, #-20]	; 0xffffffec
b2001e38:	e30804cc 	movw	r0, #33996	; 0x84cc
b2001e3c:	e34b0200 	movt	r0, #45568	; 0xb200
b2001e40:	eb000d66 	bl	b20053e0 <uprintf>
b2001e44:	e51b0010 	ldr	r0, [fp, #-16]
b2001e48:	eb001731 	bl	b2007b14 <__mfree_blk>
b2001e4c:	e51b000c 	ldr	r0, [fp, #-12]
b2001e50:	eb00172f 	bl	b2007b14 <__mfree_blk>
b2001e54:	e51b0014 	ldr	r0, [fp, #-20]	; 0xffffffec
b2001e58:	eb00172d 	bl	b2007b14 <__mfree_blk>
b2001e5c:	e3080430 	movw	r0, #33840	; 0x8430
b2001e60:	e34b0200 	movt	r0, #45568	; 0xb200
b2001e64:	eb000d5d 	bl	b20053e0 <uprintf>
b2001e68:	e30804e8 	movw	r0, #34024	; 0x84e8
b2001e6c:	e34b0200 	movt	r0, #45568	; 0xb200
b2001e70:	eb000d5a 	bl	b20053e0 <uprintf>
b2001e74:	eb00170a 	bl	b2007aa4 <__fork>
b2001e78:	e50b0018 	str	r0, [fp, #-24]	; 0xffffffe8
b2001e7c:	e51b1018 	ldr	r1, [fp, #-24]	; 0xffffffe8
b2001e80:	e308050c 	movw	r0, #34060	; 0x850c
b2001e84:	e34b0200 	movt	r0, #45568	; 0xb200
b2001e88:	eb000d54 	bl	b20053e0 <uprintf>
b2001e8c:	e51b3018 	ldr	r3, [fp, #-24]	; 0xffffffe8
b2001e90:	e3530000 	cmp	r3, #0
b2001e94:	0a000012 	beq	b2001ee4 <fork_test_main+0x10c>
b2001e98:	e3a03000 	mov	r3, #0
b2001e9c:	e50b3008 	str	r3, [fp, #-8]
b2001ea0:	ea000002 	b	b2001eb0 <fork_test_main+0xd8>
b2001ea4:	e51b3008 	ldr	r3, [fp, #-8]
b2001ea8:	e2833001 	add	r3, r3, #1
b2001eac:	e50b3008 	str	r3, [fp, #-8]
b2001eb0:	e51b2008 	ldr	r2, [fp, #-8]
b2001eb4:	e308369f 	movw	r3, #34463	; 0x869f
b2001eb8:	e3403001 	movt	r3, #1
b2001ebc:	e1520003 	cmp	r2, r3
b2001ec0:	dafffff7 	ble	b2001ea4 <fork_test_main+0xcc>
b2001ec4:	eb0016eb 	bl	b2007a78 <__gettid>
b2001ec8:	e50b0020 	str	r0, [fp, #-32]	; 0xffffffe0
b2001ecc:	e51b1020 	ldr	r1, [fp, #-32]	; 0xffffffe0
b2001ed0:	e3080520 	movw	r0, #34080	; 0x8520
b2001ed4:	e34b0200 	movt	r0, #45568	; 0xb200
b2001ed8:	eb000d40 	bl	b20053e0 <uprintf>
b2001edc:	eb0016eb 	bl	b2007a90 <__exit>
b2001ee0:	ea000006 	b	b2001f00 <fork_test_main+0x128>
b2001ee4:	eb0016e3 	bl	b2007a78 <__gettid>
b2001ee8:	e50b001c 	str	r0, [fp, #-28]	; 0xffffffe4
b2001eec:	e51b101c 	ldr	r1, [fp, #-28]	; 0xffffffe4
b2001ef0:	e308053c 	movw	r0, #34108	; 0x853c
b2001ef4:	e34b0200 	movt	r0, #45568	; 0xb200
b2001ef8:	eb000d38 	bl	b20053e0 <uprintf>
b2001efc:	eb0016e3 	bl	b2007a90 <__exit>
b2001f00:	e320f000 	nop	{0}
b2001f04:	e24bd004 	sub	sp, fp, #4
b2001f08:	e8bd8800 	pop	{fp, pc}

b2001f0c <dataSyncBarrier>:
b2001f0c:	e52db004 	push	{fp}		; (str fp, [sp, #-4]!)
b2001f10:	e28db000 	add	fp, sp, #0
b2001f14:	f57ff04f 	dsb	sy
b2001f18:	e320f000 	nop	{0}
b2001f1c:	e28bd000 	add	sp, fp, #0
b2001f20:	e49db004 	pop	{fp}		; (ldr fp, [sp], #4)
b2001f24:	e12fff1e 	bx	lr

b2001f28 <SYSTEM_INT_Enable>:
b2001f28:	e52db004 	push	{fp}		; (str fp, [sp, #-4]!)
b2001f2c:	e28db000 	add	fp, sp, #0
b2001f30:	e24dd014 	sub	sp, sp, #20
b2001f34:	e50b0010 	str	r0, [fp, #-16]
b2001f38:	e51b3010 	ldr	r3, [fp, #-16]
b2001f3c:	e1a032c3 	asr	r3, r3, #5
b2001f40:	e50b3008 	str	r3, [fp, #-8]
b2001f44:	e51b3010 	ldr	r3, [fp, #-16]
b2001f48:	e203301f 	and	r3, r3, #31
b2001f4c:	e3a02001 	mov	r2, #1
b2001f50:	e1a02312 	lsl	r2, r2, r3
b2001f54:	e51b3008 	ldr	r3, [fp, #-8]
b2001f58:	e1a03283 	lsl	r3, r3, #5
b2001f5c:	e1a01003 	mov	r1, r3
b2001f60:	e3a03088 	mov	r3, #136	; 0x88
b2001f64:	e3443820 	movt	r3, #18464	; 0x4820
b2001f68:	e0813003 	add	r3, r1, r3
b2001f6c:	e6ef2072 	uxtb	r2, r2
b2001f70:	e5c32000 	strb	r2, [r3]
b2001f74:	e320f000 	nop	{0}
b2001f78:	e28bd000 	add	sp, fp, #0
b2001f7c:	e49db004 	pop	{fp}		; (ldr fp, [sp], #4)
b2001f80:	e12fff1e 	bx	lr

b2001f84 <SYSTEM_INT_disable>:
b2001f84:	e52db004 	push	{fp}		; (str fp, [sp, #-4]!)
b2001f88:	e28db000 	add	fp, sp, #0
b2001f8c:	e24dd014 	sub	sp, sp, #20
b2001f90:	e50b0010 	str	r0, [fp, #-16]
b2001f94:	e51b3010 	ldr	r3, [fp, #-16]
b2001f98:	e1a032c3 	asr	r3, r3, #5
b2001f9c:	e50b3008 	str	r3, [fp, #-8]
b2001fa0:	e51b3010 	ldr	r3, [fp, #-16]
b2001fa4:	e203301f 	and	r3, r3, #31
b2001fa8:	e3a02001 	mov	r2, #1
b2001fac:	e1a02312 	lsl	r2, r2, r3
b2001fb0:	e51b3008 	ldr	r3, [fp, #-8]
b2001fb4:	e1a03283 	lsl	r3, r3, #5
b2001fb8:	e1a01003 	mov	r1, r3
b2001fbc:	e3a0308c 	mov	r3, #140	; 0x8c
b2001fc0:	e3443820 	movt	r3, #18464	; 0x4820
b2001fc4:	e0813003 	add	r3, r1, r3
b2001fc8:	e6ef2072 	uxtb	r2, r2
b2001fcc:	e5c32000 	strb	r2, [r3]
b2001fd0:	e320f000 	nop	{0}
b2001fd4:	e28bd000 	add	sp, fp, #0
b2001fd8:	e49db004 	pop	{fp}		; (ldr fp, [sp], #4)
b2001fdc:	e12fff1e 	bx	lr

b2001fe0 <getActivateIrqNum>:
b2001fe0:	e52db004 	push	{fp}		; (str fp, [sp, #-4]!)
b2001fe4:	e28db000 	add	fp, sp, #0
b2001fe8:	e3a03040 	mov	r3, #64	; 0x40
b2001fec:	e3443820 	movt	r3, #18464	; 0x4820
b2001ff0:	e5d33000 	ldrb	r3, [r3]
b2001ff4:	e6ef3073 	uxtb	r3, r3
b2001ff8:	e203307f 	and	r3, r3, #127	; 0x7f
b2001ffc:	e1a00003 	mov	r0, r3
b2002000:	e28bd000 	add	sp, fp, #0
b2002004:	e49db004 	pop	{fp}		; (ldr fp, [sp], #4)
b2002008:	e12fff1e 	bx	lr

b200200c <setIntRouteAndPriority>:
b200200c:	e52db004 	push	{fp}		; (str fp, [sp, #-4]!)
b2002010:	e28db000 	add	fp, sp, #0
b2002014:	e24dd014 	sub	sp, sp, #20
b2002018:	e50b0008 	str	r0, [fp, #-8]
b200201c:	e50b100c 	str	r1, [fp, #-12]
b2002020:	e50b2010 	str	r2, [fp, #-16]
b2002024:	e51b300c 	ldr	r3, [fp, #-12]
b2002028:	e6ef3073 	uxtb	r3, r3
b200202c:	e1a03103 	lsl	r3, r3, #2
b2002030:	e6ef1073 	uxtb	r1, r3
b2002034:	e51b3010 	ldr	r3, [fp, #-16]
b2002038:	e6ef2073 	uxtb	r2, r3
b200203c:	e51b3008 	ldr	r3, [fp, #-8]
b2002040:	e1a00103 	lsl	r0, r3, #2
b2002044:	e3a03c01 	mov	r3, #256	; 0x100
b2002048:	e3443820 	movt	r3, #18464	; 0x4820
b200204c:	e0803003 	add	r3, r0, r3
b2002050:	e1812002 	orr	r2, r1, r2
b2002054:	e6ef2072 	uxtb	r2, r2
b2002058:	e5c32000 	strb	r2, [r3]
b200205c:	e320f000 	nop	{0}
b2002060:	e28bd000 	add	sp, fp, #0
b2002064:	e49db004 	pop	{fp}		; (ldr fp, [sp], #4)
b2002068:	e12fff1e 	bx	lr

b200206c <setIntRoute>:
b200206c:	e52db004 	push	{fp}		; (str fp, [sp, #-4]!)
b2002070:	e28db000 	add	fp, sp, #0
b2002074:	e24dd00c 	sub	sp, sp, #12
b2002078:	e50b0008 	str	r0, [fp, #-8]
b200207c:	e50b100c 	str	r1, [fp, #-12]
b2002080:	e51b3008 	ldr	r3, [fp, #-8]
b2002084:	e1a02103 	lsl	r2, r3, #2
b2002088:	e3a03c01 	mov	r3, #256	; 0x100
b200208c:	e3443820 	movt	r3, #18464	; 0x4820
b2002090:	e0823003 	add	r3, r2, r3
b2002094:	e5d33000 	ldrb	r3, [r3]
b2002098:	e6ef1073 	uxtb	r1, r3
b200209c:	e51b300c 	ldr	r3, [fp, #-12]
b20020a0:	e6ef2073 	uxtb	r2, r3
b20020a4:	e51b3008 	ldr	r3, [fp, #-8]
b20020a8:	e1a00103 	lsl	r0, r3, #2
b20020ac:	e3a03c01 	mov	r3, #256	; 0x100
b20020b0:	e3443820 	movt	r3, #18464	; 0x4820
b20020b4:	e0803003 	add	r3, r0, r3
b20020b8:	e1812002 	orr	r2, r1, r2
b20020bc:	e6ef2072 	uxtb	r2, r2
b20020c0:	e5c32000 	strb	r2, [r3]
b20020c4:	e320f000 	nop	{0}
b20020c8:	e28bd000 	add	sp, fp, #0
b20020cc:	e49db004 	pop	{fp}		; (ldr fp, [sp], #4)
b20020d0:	e12fff1e 	bx	lr

b20020d4 <cpsrEnableIRQ>:
b20020d4:	e52db004 	push	{fp}		; (str fp, [sp, #-4]!)
b20020d8:	e28db000 	add	fp, sp, #0
b20020dc:	e10f0000 	mrs	r0, CPSR
b20020e0:	e3c00080 	bic	r0, r0, #128	; 0x80
b20020e4:	e121f000 	msr	CPSR_c, r0
b20020e8:	e320f000 	nop	{0}
b20020ec:	e28bd000 	add	sp, fp, #0
b20020f0:	e49db004 	pop	{fp}		; (ldr fp, [sp], #4)
b20020f4:	e12fff1e 	bx	lr

b20020f8 <cpsrDisableIRQ>:
b20020f8:	e52db004 	push	{fp}		; (str fp, [sp, #-4]!)
b20020fc:	e28db000 	add	fp, sp, #0
b2002100:	e10f0000 	mrs	r0, CPSR
b2002104:	e3800080 	orr	r0, r0, #128	; 0x80
b2002108:	e121f000 	msr	CPSR_c, r0
b200210c:	e320f000 	nop	{0}
b2002110:	e28bd000 	add	sp, fp, #0
b2002114:	e49db004 	pop	{fp}		; (ldr fp, [sp], #4)
b2002118:	e12fff1e 	bx	lr

b200211c <cpsrDisableFIQ>:
b200211c:	e52db004 	push	{fp}		; (str fp, [sp, #-4]!)
b2002120:	e28db000 	add	fp, sp, #0
b2002124:	e10f0000 	mrs	r0, CPSR
b2002128:	e3800040 	orr	r0, r0, #64	; 0x40
b200212c:	e121f000 	msr	CPSR_c, r0
b2002130:	e320f000 	nop	{0}
b2002134:	e28bd000 	add	sp, fp, #0
b2002138:	e49db004 	pop	{fp}		; (ldr fp, [sp], #4)
b200213c:	e12fff1e 	bx	lr

b2002140 <cpsrEnableFIQ>:
b2002140:	e52db004 	push	{fp}		; (str fp, [sp, #-4]!)
b2002144:	e28db000 	add	fp, sp, #0
b2002148:	e10f0000 	mrs	r0, CPSR
b200214c:	e3c00040 	bic	r0, r0, #64	; 0x40
b2002150:	e121f000 	msr	CPSR_c, r0
b2002154:	e320f000 	nop	{0}
b2002158:	e28bd000 	add	sp, fp, #0
b200215c:	e49db004 	pop	{fp}		; (ldr fp, [sp], #4)
b2002160:	e12fff1e 	bx	lr

b2002164 <setNewIrqAgr>:
b2002164:	e52db004 	push	{fp}		; (str fp, [sp, #-4]!)
b2002168:	e28db000 	add	fp, sp, #0
b200216c:	e3a03048 	mov	r3, #72	; 0x48
b2002170:	e3443820 	movt	r3, #18464	; 0x4820
b2002174:	e5d33000 	ldrb	r3, [r3]
b2002178:	e6ef2073 	uxtb	r2, r3
b200217c:	e3a03048 	mov	r3, #72	; 0x48
b2002180:	e3443820 	movt	r3, #18464	; 0x4820
b2002184:	e3822001 	orr	r2, r2, #1
b2002188:	e6ef2072 	uxtb	r2, r2
b200218c:	e5c32000 	strb	r2, [r3]
b2002190:	e320f000 	nop	{0}
b2002194:	e28bd000 	add	sp, fp, #0
b2002198:	e49db004 	pop	{fp}		; (ldr fp, [sp], #4)
b200219c:	e12fff1e 	bx	lr

b20021a0 <getIntVectorAddr>:
b20021a0:	e52db004 	push	{fp}		; (str fp, [sp, #-4]!)
b20021a4:	e28db000 	add	fp, sp, #0
b20021a8:	e24dd00c 	sub	sp, sp, #12
b20021ac:	ee113f10 	mrc	15, 0, r3, cr1, cr0, {0}
b20021b0:	e50b3008 	str	r3, [fp, #-8]
b20021b4:	e51b3008 	ldr	r3, [fp, #-8]
b20021b8:	e2033a02 	and	r3, r3, #8192	; 0x2000
b20021bc:	e3530000 	cmp	r3, #0
b20021c0:	0a000002 	beq	b20021d0 <getIntVectorAddr+0x30>
b20021c4:	e3a03000 	mov	r3, #0
b20021c8:	e34f3fff 	movt	r3, #65535	; 0xffff
b20021cc:	ea000002 	b	b20021dc <getIntVectorAddr+0x3c>
b20021d0:	ee1c3f10 	mrc	15, 0, r3, cr12, cr0, {0}
b20021d4:	e50b3008 	str	r3, [fp, #-8]
b20021d8:	e51b3008 	ldr	r3, [fp, #-8]
b20021dc:	e1a00003 	mov	r0, r3
b20021e0:	e28bd000 	add	sp, fp, #0
b20021e4:	e49db004 	pop	{fp}		; (ldr fp, [sp], #4)
b20021e8:	e12fff1e 	bx	lr

b20021ec <irq_handler_array_init>:
b20021ec:	e52db004 	push	{fp}		; (str fp, [sp, #-4]!)
b20021f0:	e28db000 	add	fp, sp, #0
b20021f4:	e24dd00c 	sub	sp, sp, #12
b20021f8:	e3a03000 	mov	r3, #0
b20021fc:	e50b3008 	str	r3, [fp, #-8]
b2002200:	ea000007 	b	b2002224 <irq_handler_array_init+0x38>
b2002204:	e3083edc 	movw	r3, #36572	; 0x8edc
b2002208:	e34b3200 	movt	r3, #45568	; 0xb200
b200220c:	e51b2008 	ldr	r2, [fp, #-8]
b2002210:	e3a01000 	mov	r1, #0
b2002214:	e7831102 	str	r1, [r3, r2, lsl #2]
b2002218:	e51b3008 	ldr	r3, [fp, #-8]
b200221c:	e2833001 	add	r3, r3, #1
b2002220:	e50b3008 	str	r3, [fp, #-8]
b2002224:	e51b3008 	ldr	r3, [fp, #-8]
b2002228:	e353007f 	cmp	r3, #127	; 0x7f
b200222c:	dafffff4 	ble	b2002204 <irq_handler_array_init+0x18>
b2002230:	e320f000 	nop	{0}
b2002234:	e320f000 	nop	{0}
b2002238:	e28bd000 	add	sp, fp, #0
b200223c:	e49db004 	pop	{fp}		; (ldr fp, [sp], #4)
b2002240:	e12fff1e 	bx	lr

b2002244 <interrupt_init>:
b2002244:	e92d4800 	push	{fp, lr}
b2002248:	e28db004 	add	fp, sp, #4
b200224c:	ebffffe6 	bl	b20021ec <irq_handler_array_init>
b2002250:	ebffff2d 	bl	b2001f0c <dataSyncBarrier>
b2002254:	e320f000 	nop	{0}
b2002258:	e8bd8800 	pop	{fp, pc}

b200225c <disableIrqThroughCpsr>:
b200225c:	e92d4800 	push	{fp, lr}
b2002260:	e28db004 	add	fp, sp, #4
b2002264:	ebffff28 	bl	b2001f0c <dataSyncBarrier>
b2002268:	ebffffa2 	bl	b20020f8 <cpsrDisableIRQ>
b200226c:	e320f000 	nop	{0}
b2002270:	e8bd8800 	pop	{fp, pc}

b2002274 <eableINT_NUM>:
b2002274:	e52db004 	push	{fp}		; (str fp, [sp, #-4]!)
b2002278:	e28db000 	add	fp, sp, #0
b200227c:	e24dd00c 	sub	sp, sp, #12
b2002280:	e1a03000 	mov	r3, r0
b2002284:	e54b3005 	strb	r3, [fp, #-5]
b2002288:	e55b3005 	ldrb	r3, [fp, #-5]
b200228c:	e1a032a3 	lsr	r3, r3, #5
b2002290:	e6ef3073 	uxtb	r3, r3
b2002294:	e3530003 	cmp	r3, #3
b2002298:	979ff103 	ldrls	pc, [pc, r3, lsl #2]
b200229c:	ea000027 	b	b2002340 <eableINT_NUM+0xcc>
b20022a0:	b20022b0 	andlt	r2, r0, #176, 4
b20022a4:	b20022d4 	andlt	r2, r0, #212, 4	; 0x4000000d
b20022a8:	b20022f8 	andlt	r2, r0, #248, 4	; 0x8000000f
b20022ac:	b200231c 	andlt	r2, r0, #28, 6	; 0x70000000
b20022b0:	e55b3005 	ldrb	r3, [fp, #-5]
b20022b4:	e203301f 	and	r3, r3, #31
b20022b8:	e3a02001 	mov	r2, #1
b20022bc:	e1a02312 	lsl	r2, r2, r3
b20022c0:	e3a03088 	mov	r3, #136	; 0x88
b20022c4:	e3443820 	movt	r3, #18464	; 0x4820
b20022c8:	e6ef2072 	uxtb	r2, r2
b20022cc:	e5c32000 	strb	r2, [r3]
b20022d0:	ea00001a 	b	b2002340 <eableINT_NUM+0xcc>
b20022d4:	e55b3005 	ldrb	r3, [fp, #-5]
b20022d8:	e203301f 	and	r3, r3, #31
b20022dc:	e3a02001 	mov	r2, #1
b20022e0:	e1a02312 	lsl	r2, r2, r3
b20022e4:	e3a030a8 	mov	r3, #168	; 0xa8
b20022e8:	e3443820 	movt	r3, #18464	; 0x4820
b20022ec:	e6ef2072 	uxtb	r2, r2
b20022f0:	e5c32000 	strb	r2, [r3]
b20022f4:	ea000011 	b	b2002340 <eableINT_NUM+0xcc>
b20022f8:	e55b3005 	ldrb	r3, [fp, #-5]
b20022fc:	e203301f 	and	r3, r3, #31
b2002300:	e3a02001 	mov	r2, #1
b2002304:	e1a02312 	lsl	r2, r2, r3
b2002308:	e3a030c8 	mov	r3, #200	; 0xc8
b200230c:	e3443820 	movt	r3, #18464	; 0x4820
b2002310:	e6ef2072 	uxtb	r2, r2
b2002314:	e5c32000 	strb	r2, [r3]
b2002318:	ea000008 	b	b2002340 <eableINT_NUM+0xcc>
b200231c:	e55b3005 	ldrb	r3, [fp, #-5]
b2002320:	e203301f 	and	r3, r3, #31
b2002324:	e3a02001 	mov	r2, #1
b2002328:	e1a02312 	lsl	r2, r2, r3
b200232c:	e3a030e8 	mov	r3, #232	; 0xe8
b2002330:	e3443820 	movt	r3, #18464	; 0x4820
b2002334:	e6ef2072 	uxtb	r2, r2
b2002338:	e5c32000 	strb	r2, [r3]
b200233c:	e320f000 	nop	{0}
b2002340:	e320f000 	nop	{0}
b2002344:	e28bd000 	add	sp, fp, #0
b2002348:	e49db004 	pop	{fp}		; (ldr fp, [sp], #4)
b200234c:	e12fff1e 	bx	lr

b2002350 <disableINT_NUM>:
b2002350:	e52db004 	push	{fp}		; (str fp, [sp, #-4]!)
b2002354:	e28db000 	add	fp, sp, #0
b2002358:	e24dd00c 	sub	sp, sp, #12
b200235c:	e1a03000 	mov	r3, r0
b2002360:	e54b3005 	strb	r3, [fp, #-5]
b2002364:	e55b3005 	ldrb	r3, [fp, #-5]
b2002368:	e1a032a3 	lsr	r3, r3, #5
b200236c:	e6ef3073 	uxtb	r3, r3
b2002370:	e3530003 	cmp	r3, #3
b2002374:	979ff103 	ldrls	pc, [pc, r3, lsl #2]
b2002378:	ea000027 	b	b200241c <disableINT_NUM+0xcc>
b200237c:	b200238c 	andlt	r2, r0, #140, 6	; 0x30000002
b2002380:	b20023b0 	andlt	r2, r0, #176, 6	; 0xc0000002
b2002384:	b20023d4 	andlt	r2, r0, #212, 6	; 0x50000003
b2002388:	b20023f8 	andlt	r2, r0, #248, 6	; 0xe0000003
b200238c:	e55b3005 	ldrb	r3, [fp, #-5]
b2002390:	e203301f 	and	r3, r3, #31
b2002394:	e3a02001 	mov	r2, #1
b2002398:	e1a02312 	lsl	r2, r2, r3
b200239c:	e3a0308c 	mov	r3, #140	; 0x8c
b20023a0:	e3443820 	movt	r3, #18464	; 0x4820
b20023a4:	e6ef2072 	uxtb	r2, r2
b20023a8:	e5c32000 	strb	r2, [r3]
b20023ac:	ea00001a 	b	b200241c <disableINT_NUM+0xcc>
b20023b0:	e55b3005 	ldrb	r3, [fp, #-5]
b20023b4:	e203301f 	and	r3, r3, #31
b20023b8:	e3a02001 	mov	r2, #1
b20023bc:	e1a02312 	lsl	r2, r2, r3
b20023c0:	e3a030ac 	mov	r3, #172	; 0xac
b20023c4:	e3443820 	movt	r3, #18464	; 0x4820
b20023c8:	e6ef2072 	uxtb	r2, r2
b20023cc:	e5c32000 	strb	r2, [r3]
b20023d0:	ea000011 	b	b200241c <disableINT_NUM+0xcc>
b20023d4:	e55b3005 	ldrb	r3, [fp, #-5]
b20023d8:	e203301f 	and	r3, r3, #31
b20023dc:	e3a02001 	mov	r2, #1
b20023e0:	e1a02312 	lsl	r2, r2, r3
b20023e4:	e3a030cc 	mov	r3, #204	; 0xcc
b20023e8:	e3443820 	movt	r3, #18464	; 0x4820
b20023ec:	e6ef2072 	uxtb	r2, r2
b20023f0:	e5c32000 	strb	r2, [r3]
b20023f4:	ea000008 	b	b200241c <disableINT_NUM+0xcc>
b20023f8:	e55b3005 	ldrb	r3, [fp, #-5]
b20023fc:	e203301f 	and	r3, r3, #31
b2002400:	e3a02001 	mov	r2, #1
b2002404:	e1a02312 	lsl	r2, r2, r3
b2002408:	e3a030ec 	mov	r3, #236	; 0xec
b200240c:	e3443820 	movt	r3, #18464	; 0x4820
b2002410:	e6ef2072 	uxtb	r2, r2
b2002414:	e5c32000 	strb	r2, [r3]
b2002418:	e320f000 	nop	{0}
b200241c:	e320f000 	nop	{0}
b2002420:	e28bd000 	add	sp, fp, #0
b2002424:	e49db004 	pop	{fp}		; (ldr fp, [sp], #4)
b2002428:	e12fff1e 	bx	lr

b200242c <irq_isr_bind>:
b200242c:	e92d4800 	push	{fp, lr}
b2002430:	e28db004 	add	fp, sp, #4
b2002434:	e24dd008 	sub	sp, sp, #8
b2002438:	e1a03000 	mov	r3, r0
b200243c:	e50b100c 	str	r1, [fp, #-12]
b2002440:	e54b3005 	strb	r3, [fp, #-5]
b2002444:	e55b2005 	ldrb	r2, [fp, #-5]
b2002448:	e3083edc 	movw	r3, #36572	; 0x8edc
b200244c:	e34b3200 	movt	r3, #45568	; 0xb200
b2002450:	e51b100c 	ldr	r1, [fp, #-12]
b2002454:	e7831102 	str	r1, [r3, r2, lsl #2]
b2002458:	e55b2005 	ldrb	r2, [fp, #-5]
b200245c:	e3a03c01 	mov	r3, #256	; 0x100
b2002460:	e3443820 	movt	r3, #18464	; 0x4820
b2002464:	e0823003 	add	r3, r2, r3
b2002468:	e3a02000 	mov	r2, #0
b200246c:	e5c32000 	strb	r2, [r3]
b2002470:	e55b3005 	ldrb	r3, [fp, #-5]
b2002474:	e1a00003 	mov	r0, r3
b2002478:	ebffff7d 	bl	b2002274 <eableINT_NUM>
b200247c:	e320f000 	nop	{0}
b2002480:	e24bd004 	sub	sp, fp, #4
b2002484:	e8bd8800 	pop	{fp, pc}

b2002488 <irq_isr_unbind>:
b2002488:	e92d4800 	push	{fp, lr}
b200248c:	e28db004 	add	fp, sp, #4
b2002490:	e24dd008 	sub	sp, sp, #8
b2002494:	e1a03000 	mov	r3, r0
b2002498:	e54b3005 	strb	r3, [fp, #-5]
b200249c:	e55b3005 	ldrb	r3, [fp, #-5]
b20024a0:	e1a00003 	mov	r0, r3
b20024a4:	ebffffa9 	bl	b2002350 <disableINT_NUM>
b20024a8:	e55b2005 	ldrb	r2, [fp, #-5]
b20024ac:	e3a03c01 	mov	r3, #256	; 0x100
b20024b0:	e3443820 	movt	r3, #18464	; 0x4820
b20024b4:	e0823003 	add	r3, r2, r3
b20024b8:	e3a02000 	mov	r2, #0
b20024bc:	e5c32000 	strb	r2, [r3]
b20024c0:	e55b2005 	ldrb	r2, [fp, #-5]
b20024c4:	e3083edc 	movw	r3, #36572	; 0x8edc
b20024c8:	e34b3200 	movt	r3, #45568	; 0xb200
b20024cc:	e3a01000 	mov	r1, #0
b20024d0:	e7831102 	str	r1, [r3, r2, lsl #2]
b20024d4:	e320f000 	nop	{0}
b20024d8:	e24bd004 	sub	sp, fp, #4
b20024dc:	e8bd8800 	pop	{fp, pc}

b20024e0 <irqs_handler>:
b20024e0:	e24ee004 	sub	lr, lr, #4
b20024e4:	e92d580f 	push	{r0, r1, r2, r3, fp, ip, lr}
b20024e8:	e28db018 	add	fp, sp, #24
b20024ec:	e24dd00c 	sub	sp, sp, #12
b20024f0:	ebfffeba 	bl	b2001fe0 <getActivateIrqNum>
b20024f4:	e1a03000 	mov	r3, r0
b20024f8:	e54b301d 	strb	r3, [fp, #-29]	; 0xffffffe3
b20024fc:	e55b201d 	ldrb	r2, [fp, #-29]	; 0xffffffe3
b2002500:	e3083edc 	movw	r3, #36572	; 0x8edc
b2002504:	e34b3200 	movt	r3, #45568	; 0xb200
b2002508:	e7933102 	ldr	r3, [r3, r2, lsl #2]
b200250c:	e3530000 	cmp	r3, #0
b2002510:	0a00000a 	beq	b2002540 <irqs_handler+0x60>
b2002514:	e55b201d 	ldrb	r2, [fp, #-29]	; 0xffffffe3
b2002518:	e3083edc 	movw	r3, #36572	; 0x8edc
b200251c:	e34b3200 	movt	r3, #45568	; 0xb200
b2002520:	e7933102 	ldr	r3, [r3, r2, lsl #2]
b2002524:	e12fff33 	blx	r3
b2002528:	ebfffe77 	bl	b2001f0c <dataSyncBarrier>
b200252c:	e3a03048 	mov	r3, #72	; 0x48
b2002530:	e3443820 	movt	r3, #18464	; 0x4820
b2002534:	e3a02001 	mov	r2, #1
b2002538:	e5c32000 	strb	r2, [r3]
b200253c:	ea000000 	b	b2002544 <irqs_handler+0x64>
b2002540:	e320f000 	nop	{0}
b2002544:	e24bd018 	sub	sp, fp, #24
b2002548:	e8fd980f 	ldm	sp!, {r0, r1, r2, r3, fp, ip, pc}^

b200254c <timer0_ISR>:
b200254c:	e92d4800 	push	{fp, lr}
b2002550:	e28db004 	add	fp, sp, #4
b2002554:	e24dd008 	sub	sp, sp, #8
b2002558:	e50b0008 	str	r0, [fp, #-8]
b200255c:	e3a03a05 	mov	r3, #20480	; 0x5000
b2002560:	e34434e0 	movt	r3, #17632	; 0x44e0
b2002564:	e3a02002 	mov	r2, #2
b2002568:	e5832028 	str	r2, [r3, #40]	; 0x28
b200256c:	e3a00003 	mov	r0, #3
b2002570:	eb00151e 	bl	b20079f0 <usrLedToggle>
b2002574:	e30930e4 	movw	r3, #37092	; 0x90e4
b2002578:	e34b3200 	movt	r3, #45568	; 0xb200
b200257c:	e5933000 	ldr	r3, [r3]
b2002580:	e51b2008 	ldr	r2, [fp, #-8]
b2002584:	e583201c 	str	r2, [r3, #28]
b2002588:	e30930e4 	movw	r3, #37092	; 0x90e4
b200258c:	e34b3200 	movt	r3, #45568	; 0xb200
b2002590:	e5933000 	ldr	r3, [r3]
b2002594:	e3a02001 	mov	r2, #1
b2002598:	e5832018 	str	r2, [r3, #24]
b200259c:	e30930e4 	movw	r3, #37092	; 0x90e4
b20025a0:	e34b3200 	movt	r3, #45568	; 0xb200
b20025a4:	e3a02000 	mov	r2, #0
b20025a8:	e5832000 	str	r2, [r3]
b20025ac:	eb00118e 	bl	b2006bec <schedFuncContextPrepare>
b20025b0:	e3a03048 	mov	r3, #72	; 0x48
b20025b4:	e3443820 	movt	r3, #18464	; 0x4820
b20025b8:	e3a02001 	mov	r2, #1
b20025bc:	e5c32000 	strb	r2, [r3]
b20025c0:	e3083ec8 	movw	r3, #36552	; 0x8ec8
b20025c4:	e34b3200 	movt	r3, #45568	; 0xb200
b20025c8:	e5933000 	ldr	r3, [r3]
b20025cc:	e1a00003 	mov	r0, r3
b20025d0:	eb000b49 	bl	b20052fc <_call_sched>
b20025d4:	e320f000 	nop	{0}
b20025d8:	e24bd004 	sub	sp, fp, #4
b20025dc:	e8bd8800 	pop	{fp, pc}

b20025e0 <timer2_ISR>:
b20025e0:	e92d4800 	push	{fp, lr}
b20025e4:	e28db004 	add	fp, sp, #4
b20025e8:	e3080558 	movw	r0, #34136	; 0x8558
b20025ec:	e34b0200 	movt	r0, #45568	; 0xb200
b20025f0:	eb000051 	bl	b200273c <printk>
b20025f4:	e3a00002 	mov	r0, #2
b20025f8:	eb0014fc 	bl	b20079f0 <usrLedToggle>
b20025fc:	e3a00001 	mov	r0, #1
b2002600:	eb0014fa 	bl	b20079f0 <usrLedToggle>
b2002604:	e3a00000 	mov	r0, #0
b2002608:	eb0014f8 	bl	b20079f0 <usrLedToggle>
b200260c:	e3a03000 	mov	r3, #0
b2002610:	e3443804 	movt	r3, #18436	; 0x4804
b2002614:	e3a02002 	mov	r2, #2
b2002618:	e5832028 	str	r2, [r3, #40]	; 0x28
b200261c:	e320f000 	nop	{0}
b2002620:	e8bd8800 	pop	{fp, pc}

b2002624 <set_exception_entry>:
b2002624:	e52db004 	push	{fp}		; (str fp, [sp, #-4]!)
b2002628:	e28db000 	add	fp, sp, #0
b200262c:	e24dd014 	sub	sp, sp, #20
b2002630:	e50b0010 	str	r0, [fp, #-16]
b2002634:	e51b3010 	ldr	r3, [fp, #-16]
b2002638:	e50b3008 	str	r3, [fp, #-8]
b200263c:	e51b3008 	ldr	r3, [fp, #-8]
b2002640:	e2833004 	add	r3, r3, #4
b2002644:	e50b3008 	str	r3, [fp, #-8]
b2002648:	e3a03000 	mov	r3, #0
b200264c:	e50b300c 	str	r3, [fp, #-12]
b2002650:	ea000009 	b	b200267c <set_exception_entry+0x58>
b2002654:	e51b2008 	ldr	r2, [fp, #-8]
b2002658:	e30f3014 	movw	r3, #61460	; 0xf014
b200265c:	e34e359f 	movt	r3, #58783	; 0xe59f
b2002660:	e5823000 	str	r3, [r2]
b2002664:	e51b3008 	ldr	r3, [fp, #-8]
b2002668:	e2833004 	add	r3, r3, #4
b200266c:	e50b3008 	str	r3, [fp, #-8]
b2002670:	e51b300c 	ldr	r3, [fp, #-12]
b2002674:	e2833001 	add	r3, r3, #1
b2002678:	e50b300c 	str	r3, [fp, #-12]
b200267c:	e51b300c 	ldr	r3, [fp, #-12]
b2002680:	e3530006 	cmp	r3, #6
b2002684:	dafffff2 	ble	b2002654 <set_exception_entry+0x30>
b2002688:	e320f000 	nop	{0}
b200268c:	e320f000 	nop	{0}
b2002690:	e28bd000 	add	sp, fp, #0
b2002694:	e49db004 	pop	{fp}		; (ldr fp, [sp], #4)
b2002698:	e12fff1e 	bx	lr

b200269c <prefetch_abort_handler>:
b200269c:	e24ee004 	sub	lr, lr, #4
b20026a0:	e92d581f 	push	{r0, r1, r2, r3, r4, fp, ip, lr}
b20026a4:	e28db01c 	add	fp, sp, #28
b20026a8:	e3080560 	movw	r0, #34144	; 0x8560
b20026ac:	e34b0200 	movt	r0, #45568	; 0xb200
b20026b0:	eb000021 	bl	b200273c <printk>
b20026b4:	e320f000 	nop	{0}
b20026b8:	e24bd01c 	sub	sp, fp, #28
b20026bc:	e8fd981f 	ldm	sp!, {r0, r1, r2, r3, r4, fp, ip, pc}^

b20026c0 <data_abort_handler>:
b20026c0:	e24ee004 	sub	lr, lr, #4
b20026c4:	e92d581f 	push	{r0, r1, r2, r3, r4, fp, ip, lr}
b20026c8:	e28db01c 	add	fp, sp, #28
b20026cc:	e308057c 	movw	r0, #34172	; 0x857c
b20026d0:	e34b0200 	movt	r0, #45568	; 0xb200
b20026d4:	eb000018 	bl	b200273c <printk>
b20026d8:	e320f000 	nop	{0}
b20026dc:	e24bd01c 	sub	sp, fp, #28
b20026e0:	e8fd981f 	ldm	sp!, {r0, r1, r2, r3, r4, fp, ip, pc}^

b20026e4 <terminal_printC>:
b20026e4:	e92d4800 	push	{fp, lr}
b20026e8:	e28db004 	add	fp, sp, #4
b20026ec:	e24dd008 	sub	sp, sp, #8
b20026f0:	e50b0008 	str	r0, [fp, #-8]
b20026f4:	e51b3008 	ldr	r3, [fp, #-8]
b20026f8:	e6ef3073 	uxtb	r3, r3
b20026fc:	e1a01003 	mov	r1, r3
b2002700:	e3a00a09 	mov	r0, #36864	; 0x9000
b2002704:	e34404e0 	movt	r0, #17632	; 0x44e0
b2002708:	eb0013e0 	bl	b2007690 <uart_putC>
b200270c:	e320f000 	nop	{0}
b2002710:	e24bd004 	sub	sp, fp, #4
b2002714:	e8bd8800 	pop	{fp, pc}

b2002718 <print_char>:
b2002718:	e92d4800 	push	{fp, lr}
b200271c:	e28db004 	add	fp, sp, #4
b2002720:	e24dd008 	sub	sp, sp, #8
b2002724:	e50b0008 	str	r0, [fp, #-8]
b2002728:	e51b0008 	ldr	r0, [fp, #-8]
b200272c:	ebffffec 	bl	b20026e4 <terminal_printC>
b2002730:	e320f000 	nop	{0}
b2002734:	e24bd004 	sub	sp, fp, #4
b2002738:	e8bd8800 	pop	{fp, pc}

b200273c <printk>:
b200273c:	e92d000f 	push	{r0, r1, r2, r3}
b2002740:	e92d4800 	push	{fp, lr}
b2002744:	e28db004 	add	fp, sp, #4
b2002748:	e24dd008 	sub	sp, sp, #8
b200274c:	e28b3008 	add	r3, fp, #8
b2002750:	e50b300c 	str	r3, [fp, #-12]
b2002754:	e51b100c 	ldr	r1, [fp, #-12]
b2002758:	e59b0004 	ldr	r0, [fp, #4]
b200275c:	eb000006 	bl	b200277c <kprint>
b2002760:	e50b0008 	str	r0, [fp, #-8]
b2002764:	e51b3008 	ldr	r3, [fp, #-8]
b2002768:	e1a00003 	mov	r0, r3
b200276c:	e24bd004 	sub	sp, fp, #4
b2002770:	e8bd4800 	pop	{fp, lr}
b2002774:	e28dd010 	add	sp, sp, #16
b2002778:	e12fff1e 	bx	lr

b200277c <kprint>:
b200277c:	e92d4810 	push	{r4, fp, lr}
b2002780:	e28db008 	add	fp, sp, #8
b2002784:	e24dd01c 	sub	sp, sp, #28
b2002788:	e50b0020 	str	r0, [fp, #-32]	; 0xffffffe0
b200278c:	e50b1024 	str	r1, [fp, #-36]	; 0xffffffdc
b2002790:	ea000005 	b	b20027ac <kprint+0x30>
b2002794:	e3540000 	cmp	r4, #0
b2002798:	1a000001 	bne	b20027a4 <kprint+0x28>
b200279c:	e3a03000 	mov	r3, #0
b20027a0:	ea000070 	b	b2002968 <kprint+0x1ec>
b20027a4:	e1a00004 	mov	r0, r4
b20027a8:	ebffffda 	bl	b2002718 <print_char>
b20027ac:	e51b3020 	ldr	r3, [fp, #-32]	; 0xffffffe0
b20027b0:	e2832001 	add	r2, r3, #1
b20027b4:	e50b2020 	str	r2, [fp, #-32]	; 0xffffffe0
b20027b8:	e5d33000 	ldrb	r3, [r3]
b20027bc:	e1a04003 	mov	r4, r3
b20027c0:	e3540025 	cmp	r4, #37	; 0x25
b20027c4:	1afffff2 	bne	b2002794 <kprint+0x18>
b20027c8:	e3a03020 	mov	r3, #32
b20027cc:	e54b3015 	strb	r3, [fp, #-21]	; 0xffffffeb
b20027d0:	e3e03000 	mvn	r3, #0
b20027d4:	e50b301c 	str	r3, [fp, #-28]	; 0xffffffe4
b20027d8:	e51b3020 	ldr	r3, [fp, #-32]	; 0xffffffe0
b20027dc:	e2832001 	add	r2, r3, #1
b20027e0:	e50b2020 	str	r2, [fp, #-32]	; 0xffffffe0
b20027e4:	e5d33000 	ldrb	r3, [r3]
b20027e8:	e1a04003 	mov	r4, r3
b20027ec:	e3540078 	cmp	r4, #120	; 0x78
b20027f0:	caffffed 	bgt	b20027ac <kprint+0x30>
b20027f4:	e3540063 	cmp	r4, #99	; 0x63
b20027f8:	aa000004 	bge	b2002810 <kprint+0x94>
b20027fc:	e354002d 	cmp	r4, #45	; 0x2d
b2002800:	0a00001c 	beq	b2002878 <kprint+0xfc>
b2002804:	e3540030 	cmp	r4, #48	; 0x30
b2002808:	0a00001d 	beq	b2002884 <kprint+0x108>
b200280c:	ea000054 	b	b2002964 <kprint+0x1e8>
b2002810:	e2443063 	sub	r3, r4, #99	; 0x63
b2002814:	e3530015 	cmp	r3, #21
b2002818:	979ff103 	ldrls	pc, [pc, r3, lsl #2]
b200281c:	eaffffe2 	b	b20027ac <kprint+0x30>
b2002820:	b2002890 	andlt	r2, r0, #144, 16	; 0x900000
b2002824:	b200290c 	andlt	r2, r0, #12, 18	; 0x30000
b2002828:	b20027ac 	andlt	r2, r0, #172, 14	; 0x2b00000
b200282c:	b20027ac 	andlt	r2, r0, #172, 14	; 0x2b00000
b2002830:	b20027ac 	andlt	r2, r0, #172, 14	; 0x2b00000
b2002834:	b20027ac 	andlt	r2, r0, #172, 14	; 0x2b00000
b2002838:	b20027ac 	andlt	r2, r0, #172, 14	; 0x2b00000
b200283c:	b20027ac 	andlt	r2, r0, #172, 14	; 0x2b00000
b2002840:	b20027ac 	andlt	r2, r0, #172, 14	; 0x2b00000
b2002844:	b20027ac 	andlt	r2, r0, #172, 14	; 0x2b00000
b2002848:	b20027ac 	andlt	r2, r0, #172, 14	; 0x2b00000
b200284c:	b20027ac 	andlt	r2, r0, #172, 14	; 0x2b00000
b2002850:	b20027ac 	andlt	r2, r0, #172, 14	; 0x2b00000
b2002854:	b20028ac 	andlt	r2, r0, #172, 16	; 0xac0000
b2002858:	b20027ac 	andlt	r2, r0, #172, 14	; 0x2b00000
b200285c:	b20027ac 	andlt	r2, r0, #172, 14	; 0x2b00000
b2002860:	b20027ac 	andlt	r2, r0, #172, 14	; 0x2b00000
b2002864:	b20027ac 	andlt	r2, r0, #172, 14	; 0x2b00000
b2002868:	b200292c 	andlt	r2, r0, #44, 18	; 0xb0000
b200286c:	b20027ac 	andlt	r2, r0, #172, 14	; 0x2b00000
b2002870:	b20027ac 	andlt	r2, r0, #172, 14	; 0x2b00000
b2002874:	b20028dc 	andlt	r2, r0, #220, 16	; 0xdc0000
b2002878:	e3a0302d 	mov	r3, #45	; 0x2d
b200287c:	e54b3015 	strb	r3, [fp, #-21]	; 0xffffffeb
b2002880:	eaffffd4 	b	b20027d8 <kprint+0x5c>
b2002884:	e3a03030 	mov	r3, #48	; 0x30
b2002888:	e54b3015 	strb	r3, [fp, #-21]	; 0xffffffeb
b200288c:	eaffffd1 	b	b20027d8 <kprint+0x5c>
b2002890:	e51b3024 	ldr	r3, [fp, #-36]	; 0xffffffdc
b2002894:	e2832004 	add	r2, r3, #4
b2002898:	e50b2024 	str	r2, [fp, #-36]	; 0xffffffdc
b200289c:	e5933000 	ldr	r3, [r3]
b20028a0:	e1a00003 	mov	r0, r3
b20028a4:	ebffff9b 	bl	b2002718 <print_char>
b20028a8:	ea00002d 	b	b2002964 <kprint+0x1e8>
b20028ac:	e3a00030 	mov	r0, #48	; 0x30
b20028b0:	ebffff98 	bl	b2002718 <print_char>
b20028b4:	e3a00078 	mov	r0, #120	; 0x78
b20028b8:	ebffff96 	bl	b2002718 <print_char>
b20028bc:	e51b3024 	ldr	r3, [fp, #-36]	; 0xffffffdc
b20028c0:	e2832004 	add	r2, r3, #4
b20028c4:	e50b2024 	str	r2, [fp, #-36]	; 0xffffffdc
b20028c8:	e5933000 	ldr	r3, [r3]
b20028cc:	e50b3010 	str	r3, [fp, #-16]
b20028d0:	e3a03010 	mov	r3, #16
b20028d4:	e50b3014 	str	r3, [fp, #-20]	; 0xffffffec
b20028d8:	ea00001b 	b	b200294c <kprint+0x1d0>
b20028dc:	e3a00030 	mov	r0, #48	; 0x30
b20028e0:	ebffff8c 	bl	b2002718 <print_char>
b20028e4:	e3a00078 	mov	r0, #120	; 0x78
b20028e8:	ebffff8a 	bl	b2002718 <print_char>
b20028ec:	e51b3024 	ldr	r3, [fp, #-36]	; 0xffffffdc
b20028f0:	e2832004 	add	r2, r3, #4
b20028f4:	e50b2024 	str	r2, [fp, #-36]	; 0xffffffdc
b20028f8:	e5933000 	ldr	r3, [r3]
b20028fc:	e50b3010 	str	r3, [fp, #-16]
b2002900:	e3a03010 	mov	r3, #16
b2002904:	e50b3014 	str	r3, [fp, #-20]	; 0xffffffec
b2002908:	ea00000f 	b	b200294c <kprint+0x1d0>
b200290c:	e51b3024 	ldr	r3, [fp, #-36]	; 0xffffffdc
b2002910:	e2832004 	add	r2, r3, #4
b2002914:	e50b2024 	str	r2, [fp, #-36]	; 0xffffffdc
b2002918:	e5933000 	ldr	r3, [r3]
b200291c:	e50b3010 	str	r3, [fp, #-16]
b2002920:	e3a0300a 	mov	r3, #10
b2002924:	e50b3014 	str	r3, [fp, #-20]	; 0xffffffec
b2002928:	ea000007 	b	b200294c <kprint+0x1d0>
b200292c:	e51b3024 	ldr	r3, [fp, #-36]	; 0xffffffdc
b2002930:	e2832004 	add	r2, r3, #4
b2002934:	e50b2024 	str	r2, [fp, #-36]	; 0xffffffdc
b2002938:	e5933000 	ldr	r3, [r3]
b200293c:	e50b3010 	str	r3, [fp, #-16]
b2002940:	e3a0300a 	mov	r3, #10
b2002944:	e50b3014 	str	r3, [fp, #-20]	; 0xffffffec
b2002948:	e320f000 	nop	{0}
b200294c:	e55b3015 	ldrb	r3, [fp, #-21]	; 0xffffffeb
b2002950:	e51b201c 	ldr	r2, [fp, #-28]	; 0xffffffe4
b2002954:	e51b1014 	ldr	r1, [fp, #-20]	; 0xffffffec
b2002958:	e51b0010 	ldr	r0, [fp, #-16]
b200295c:	eb000004 	bl	b2002974 <print_va>
b2002960:	e320f000 	nop	{0}
b2002964:	eaffff90 	b	b20027ac <kprint+0x30>
b2002968:	e1a00003 	mov	r0, r3
b200296c:	e24bd008 	sub	sp, fp, #8
b2002970:	e8bd8810 	pop	{r4, fp, pc}

b2002974 <print_va>:
b2002974:	e92d4800 	push	{fp, lr}
b2002978:	e28db004 	add	fp, sp, #4
b200297c:	e24dd010 	sub	sp, sp, #16
b2002980:	e50b0008 	str	r0, [fp, #-8]
b2002984:	e50b100c 	str	r1, [fp, #-12]
b2002988:	e50b2010 	str	r2, [fp, #-16]
b200298c:	e50b3014 	str	r3, [fp, #-20]	; 0xffffffec
b2002990:	e51b2008 	ldr	r2, [fp, #-8]
b2002994:	e51b300c 	ldr	r3, [fp, #-12]
b2002998:	e1520003 	cmp	r2, r3
b200299c:	3a00000c 	bcc	b20029d4 <print_va+0x60>
b20029a0:	e51b100c 	ldr	r1, [fp, #-12]
b20029a4:	e51b0008 	ldr	r0, [fp, #-8]
b20029a8:	eb0014fe 	bl	b2007da8 <__udivsi3>
b20029ac:	e1a03000 	mov	r3, r0
b20029b0:	e1a00003 	mov	r0, r3
b20029b4:	e51b3010 	ldr	r3, [fp, #-16]
b20029b8:	e2432001 	sub	r2, r3, #1
b20029bc:	e51b3014 	ldr	r3, [fp, #-20]	; 0xffffffec
b20029c0:	e51b100c 	ldr	r1, [fp, #-12]
b20029c4:	ebffffea 	bl	b2002974 <print_va>
b20029c8:	ea000007 	b	b20029ec <print_va+0x78>
b20029cc:	e51b0014 	ldr	r0, [fp, #-20]	; 0xffffffec
b20029d0:	ebffff50 	bl	b2002718 <print_char>
b20029d4:	e51b3010 	ldr	r3, [fp, #-16]
b20029d8:	e2433001 	sub	r3, r3, #1
b20029dc:	e50b3010 	str	r3, [fp, #-16]
b20029e0:	e51b3010 	ldr	r3, [fp, #-16]
b20029e4:	e3530000 	cmp	r3, #0
b20029e8:	cafffff7 	bgt	b20029cc <print_va+0x58>
b20029ec:	e51b3008 	ldr	r3, [fp, #-8]
b20029f0:	e51b100c 	ldr	r1, [fp, #-12]
b20029f4:	e1a00003 	mov	r0, r3
b20029f8:	eb001527 	bl	b2007e9c <__aeabi_uidivmod>
b20029fc:	e1a03001 	mov	r3, r1
b2002a00:	e1a02003 	mov	r2, r3
b2002a04:	e3083594 	movw	r3, #34196	; 0x8594
b2002a08:	e34b3200 	movt	r3, #45568	; 0xb200
b2002a0c:	e7d33002 	ldrb	r3, [r3, r2]
b2002a10:	e1a00003 	mov	r0, r3
b2002a14:	ebffff3f 	bl	b2002718 <print_char>
b2002a18:	e320f000 	nop	{0}
b2002a1c:	e24bd004 	sub	sp, fp, #4
b2002a20:	e8bd8800 	pop	{fp, pc}

b2002a24 <kernal_entry>:
b2002a24:	e92d4810 	push	{r4, fp, lr}
b2002a28:	e28db008 	add	fp, sp, #8
b2002a2c:	e24dd014 	sub	sp, sp, #20
b2002a30:	e3a03801 	mov	r3, #65536	; 0x10000
b2002a34:	e50b3010 	str	r3, [fp, #-16]
b2002a38:	e3083ec4 	movw	r3, #36548	; 0x8ec4
b2002a3c:	e34b3200 	movt	r3, #45568	; 0xb200
b2002a40:	e5933000 	ldr	r3, [r3]
b2002a44:	e1a02003 	mov	r2, r3
b2002a48:	e51b3010 	ldr	r3, [fp, #-16]
b2002a4c:	e0823003 	add	r3, r2, r3
b2002a50:	e2433001 	sub	r3, r3, #1
b2002a54:	e50b3014 	str	r3, [fp, #-20]	; 0xffffffec
b2002a58:	e51b3014 	ldr	r3, [fp, #-20]	; 0xffffffec
b2002a5c:	e51b1010 	ldr	r1, [fp, #-16]
b2002a60:	e1a00003 	mov	r0, r3
b2002a64:	eb00150c 	bl	b2007e9c <__aeabi_uidivmod>
b2002a68:	e1a03001 	mov	r3, r1
b2002a6c:	e1a02003 	mov	r2, r3
b2002a70:	e51b3014 	ldr	r3, [fp, #-20]	; 0xffffffec
b2002a74:	e0433002 	sub	r3, r3, r2
b2002a78:	e3a02801 	mov	r2, #65536	; 0x10000
b2002a7c:	e3a01000 	mov	r1, #0
b2002a80:	e1a00003 	mov	r0, r3
b2002a84:	eb00005c 	bl	b2002bfc <_memset>
b2002a88:	eb0004c4 	bl	b2003da0 <mmu_init>
b2002a8c:	e30805a8 	movw	r0, #34216	; 0x85a8
b2002a90:	e34b0200 	movt	r0, #45568	; 0xb200
b2002a94:	ebffff28 	bl	b200273c <printk>
b2002a98:	e30805b8 	movw	r0, #34232	; 0x85b8
b2002a9c:	e34b0200 	movt	r0, #45568	; 0xb200
b2002aa0:	ebffff25 	bl	b200273c <printk>
b2002aa4:	eb0009e8 	bl	b200524c <READ_SP>
b2002aa8:	e1a04000 	mov	r4, r0
b2002aac:	eb0009e8 	bl	b2005254 <READ_CP15_c1>
b2002ab0:	e1a03000 	mov	r3, r0
b2002ab4:	e1a02003 	mov	r2, r3
b2002ab8:	e1a01004 	mov	r1, r4
b2002abc:	e30805d4 	movw	r0, #34260	; 0x85d4
b2002ac0:	e34b0200 	movt	r0, #45568	; 0xb200
b2002ac4:	ebffff1c 	bl	b200273c <printk>
b2002ac8:	eb0009dd 	bl	b2005244 <READ_CPSR>
b2002acc:	e1a03000 	mov	r3, r0
b2002ad0:	e1a01003 	mov	r1, r3
b2002ad4:	e30805f0 	movw	r0, #34288	; 0x85f0
b2002ad8:	e34b0200 	movt	r0, #45568	; 0xb200
b2002adc:	ebffff16 	bl	b200273c <printk>
b2002ae0:	ebfffdae 	bl	b20021a0 <getIntVectorAddr>
b2002ae4:	e1a03000 	mov	r3, r0
b2002ae8:	e1a01003 	mov	r1, r3
b2002aec:	e3080604 	movw	r0, #34308	; 0x8604
b2002af0:	e34b0200 	movt	r0, #45568	; 0xb200
b2002af4:	ebffff10 	bl	b200273c <printk>
b2002af8:	e3083ec4 	movw	r3, #36548	; 0x8ec4
b2002afc:	e34b3200 	movt	r3, #45568	; 0xb200
b2002b00:	e5933000 	ldr	r3, [r3]
b2002b04:	e1a01003 	mov	r1, r3
b2002b08:	e3080624 	movw	r0, #34340	; 0x8624
b2002b0c:	e34b0200 	movt	r0, #45568	; 0xb200
b2002b10:	ebffff09 	bl	b200273c <printk>
b2002b14:	e3a03801 	mov	r3, #65536	; 0x10000
b2002b18:	e50b3018 	str	r3, [fp, #-24]	; 0xffffffe8
b2002b1c:	e3083ec4 	movw	r3, #36548	; 0x8ec4
b2002b20:	e34b3200 	movt	r3, #45568	; 0xb200
b2002b24:	e5933000 	ldr	r3, [r3]
b2002b28:	e1a02003 	mov	r2, r3
b2002b2c:	e51b3018 	ldr	r3, [fp, #-24]	; 0xffffffe8
b2002b30:	e0823003 	add	r3, r2, r3
b2002b34:	e2433001 	sub	r3, r3, #1
b2002b38:	e50b301c 	str	r3, [fp, #-28]	; 0xffffffe4
b2002b3c:	e51b301c 	ldr	r3, [fp, #-28]	; 0xffffffe4
b2002b40:	e51b1018 	ldr	r1, [fp, #-24]	; 0xffffffe8
b2002b44:	e1a00003 	mov	r0, r3
b2002b48:	eb0014d3 	bl	b2007e9c <__aeabi_uidivmod>
b2002b4c:	e1a03001 	mov	r3, r1
b2002b50:	e1a02003 	mov	r2, r3
b2002b54:	e51b301c 	ldr	r3, [fp, #-28]	; 0xffffffe4
b2002b58:	e0433002 	sub	r3, r3, r2
b2002b5c:	e1a01003 	mov	r1, r3
b2002b60:	e3080640 	movw	r0, #34368	; 0x8640
b2002b64:	e34b0200 	movt	r0, #45568	; 0xb200
b2002b68:	ebfffef3 	bl	b200273c <printk>
b2002b6c:	eb001358 	bl	b20078d4 <usrLedInit>
b2002b70:	e3080670 	movw	r0, #34416	; 0x8670
b2002b74:	e34b0200 	movt	r0, #45568	; 0xb200
b2002b78:	ebfffeef 	bl	b200273c <printk>
b2002b7c:	ebfffdb0 	bl	b2002244 <interrupt_init>
b2002b80:	e308068c 	movw	r0, #34444	; 0x868c
b2002b84:	e34b0200 	movt	r0, #45568	; 0xb200
b2002b88:	ebfffeeb 	bl	b200273c <printk>
b2002b8c:	e3a00a05 	mov	r0, #20480	; 0x5000
b2002b90:	e34404e0 	movt	r0, #17632	; 0x44e0
b2002b94:	eb001217 	bl	b20073f8 <OsTickInit>
b2002b98:	e3a00042 	mov	r0, #66	; 0x42
b2002b9c:	eb00126a 	bl	b200754c <enableOsTick>
b2002ba0:	e30806a0 	movw	r0, #34464	; 0x86a0
b2002ba4:	e34b0200 	movt	r0, #45568	; 0xb200
b2002ba8:	ebfffee3 	bl	b200273c <printk>
b2002bac:	eb00007c 	bl	b2002da4 <page_list_init>
b2002bb0:	ebfff92f 	bl	b2001074 <file_in_ram_init>
b2002bb4:	e30806c0 	movw	r0, #34496	; 0x86c0
b2002bb8:	e34b0200 	movt	r0, #45568	; 0xb200
b2002bbc:	ebfffede 	bl	b200273c <printk>
b2002bc0:	eb001015 	bl	b2006c1c <task_init>
b2002bc4:	e3041c44 	movw	r1, #19524	; 0x4c44
b2002bc8:	e34b1200 	movt	r1, #45568	; 0xb200
b2002bcc:	e3a00004 	mov	r0, #4
b2002bd0:	eb001070 	bl	b2006d98 <do_ktaskCreate>
b2002bd4:	e30806d8 	movw	r0, #34520	; 0x86d8
b2002bd8:	e34b0200 	movt	r0, #45568	; 0xb200
b2002bdc:	ebfffed6 	bl	b200273c <printk>
b2002be0:	eb001001 	bl	b2006bec <schedFuncContextPrepare>
b2002be4:	e3083ec8 	movw	r3, #36552	; 0x8ec8
b2002be8:	e34b3200 	movt	r3, #45568	; 0xb200
b2002bec:	e5933000 	ldr	r3, [r3]
b2002bf0:	e1a00003 	mov	r0, r3
b2002bf4:	eb0009c0 	bl	b20052fc <_call_sched>
b2002bf8:	eafffffe 	b	b2002bf8 <kernal_entry+0x1d4>

b2002bfc <_memset>:
b2002bfc:	e52db004 	push	{fp}		; (str fp, [sp, #-4]!)
b2002c00:	e28db000 	add	fp, sp, #0
b2002c04:	e24dd01c 	sub	sp, sp, #28
b2002c08:	e50b0010 	str	r0, [fp, #-16]
b2002c0c:	e1a03001 	mov	r3, r1
b2002c10:	e50b2018 	str	r2, [fp, #-24]	; 0xffffffe8
b2002c14:	e54b3011 	strb	r3, [fp, #-17]	; 0xffffffef
b2002c18:	e51b3010 	ldr	r3, [fp, #-16]
b2002c1c:	e50b3008 	str	r3, [fp, #-8]
b2002c20:	e3a03000 	mov	r3, #0
b2002c24:	e50b300c 	str	r3, [fp, #-12]
b2002c28:	ea000008 	b	b2002c50 <_memset+0x54>
b2002c2c:	e51b3008 	ldr	r3, [fp, #-8]
b2002c30:	e55b2011 	ldrb	r2, [fp, #-17]	; 0xffffffef
b2002c34:	e5c32000 	strb	r2, [r3]
b2002c38:	e51b3008 	ldr	r3, [fp, #-8]
b2002c3c:	e2833001 	add	r3, r3, #1
b2002c40:	e50b3008 	str	r3, [fp, #-8]
b2002c44:	e51b300c 	ldr	r3, [fp, #-12]
b2002c48:	e2833001 	add	r3, r3, #1
b2002c4c:	e50b300c 	str	r3, [fp, #-12]
b2002c50:	e51b200c 	ldr	r2, [fp, #-12]
b2002c54:	e51b3018 	ldr	r3, [fp, #-24]	; 0xffffffe8
b2002c58:	e1520003 	cmp	r2, r3
b2002c5c:	3afffff2 	bcc	b2002c2c <_memset+0x30>
b2002c60:	e320f000 	nop	{0}
b2002c64:	e320f000 	nop	{0}
b2002c68:	e28bd000 	add	sp, fp, #0
b2002c6c:	e49db004 	pop	{fp}		; (ldr fp, [sp], #4)
b2002c70:	e12fff1e 	bx	lr

b2002c74 <_showmm>:
b2002c74:	e92d4800 	push	{fp, lr}
b2002c78:	e28db004 	add	fp, sp, #4
b2002c7c:	e24dd010 	sub	sp, sp, #16
b2002c80:	e50b0010 	str	r0, [fp, #-16]
b2002c84:	e50b1014 	str	r1, [fp, #-20]	; 0xffffffec
b2002c88:	e51b3010 	ldr	r3, [fp, #-16]
b2002c8c:	e50b3008 	str	r3, [fp, #-8]
b2002c90:	e30806ec 	movw	r0, #34540	; 0x86ec
b2002c94:	e34b0200 	movt	r0, #45568	; 0xb200
b2002c98:	ebfffea7 	bl	b200273c <printk>
b2002c9c:	e3a03000 	mov	r3, #0
b2002ca0:	e50b300c 	str	r3, [fp, #-12]
b2002ca4:	ea000016 	b	b2002d04 <_showmm+0x90>
b2002ca8:	e51b300c 	ldr	r3, [fp, #-12]
b2002cac:	e2033003 	and	r3, r3, #3
b2002cb0:	e3530000 	cmp	r3, #0
b2002cb4:	1a000006 	bne	b2002cd4 <_showmm+0x60>
b2002cb8:	e3080704 	movw	r0, #34564	; 0x8704
b2002cbc:	e34b0200 	movt	r0, #45568	; 0xb200
b2002cc0:	ebfffe9d 	bl	b200273c <printk>
b2002cc4:	e51b1008 	ldr	r1, [fp, #-8]
b2002cc8:	e3080708 	movw	r0, #34568	; 0x8708
b2002ccc:	e34b0200 	movt	r0, #45568	; 0xb200
b2002cd0:	ebfffe99 	bl	b200273c <printk>
b2002cd4:	e51b3008 	ldr	r3, [fp, #-8]
b2002cd8:	e5d33000 	ldrb	r3, [r3]
b2002cdc:	e1a01003 	mov	r1, r3
b2002ce0:	e3080710 	movw	r0, #34576	; 0x8710
b2002ce4:	e34b0200 	movt	r0, #45568	; 0xb200
b2002ce8:	ebfffe93 	bl	b200273c <printk>
b2002cec:	e51b3008 	ldr	r3, [fp, #-8]
b2002cf0:	e2833001 	add	r3, r3, #1
b2002cf4:	e50b3008 	str	r3, [fp, #-8]
b2002cf8:	e51b300c 	ldr	r3, [fp, #-12]
b2002cfc:	e2833001 	add	r3, r3, #1
b2002d00:	e50b300c 	str	r3, [fp, #-12]
b2002d04:	e51b200c 	ldr	r2, [fp, #-12]
b2002d08:	e51b3014 	ldr	r3, [fp, #-20]	; 0xffffffec
b2002d0c:	e1520003 	cmp	r2, r3
b2002d10:	3affffe4 	bcc	b2002ca8 <_showmm+0x34>
b2002d14:	e320f000 	nop	{0}
b2002d18:	e320f000 	nop	{0}
b2002d1c:	e24bd004 	sub	sp, fp, #4
b2002d20:	e8bd8800 	pop	{fp, pc}

b2002d24 <_memcpy>:
b2002d24:	e52db004 	push	{fp}		; (str fp, [sp, #-4]!)
b2002d28:	e28db000 	add	fp, sp, #0
b2002d2c:	e24dd01c 	sub	sp, sp, #28
b2002d30:	e50b0010 	str	r0, [fp, #-16]
b2002d34:	e50b1014 	str	r1, [fp, #-20]	; 0xffffffec
b2002d38:	e50b2018 	str	r2, [fp, #-24]	; 0xffffffe8
b2002d3c:	e51b3010 	ldr	r3, [fp, #-16]
b2002d40:	e50b3008 	str	r3, [fp, #-8]
b2002d44:	e51b3014 	ldr	r3, [fp, #-20]	; 0xffffffec
b2002d48:	e50b300c 	str	r3, [fp, #-12]
b2002d4c:	ea00000c 	b	b2002d84 <_memcpy+0x60>
b2002d50:	e51b300c 	ldr	r3, [fp, #-12]
b2002d54:	e5d32000 	ldrb	r2, [r3]
b2002d58:	e51b3008 	ldr	r3, [fp, #-8]
b2002d5c:	e5c32000 	strb	r2, [r3]
b2002d60:	e51b3008 	ldr	r3, [fp, #-8]
b2002d64:	e2833001 	add	r3, r3, #1
b2002d68:	e50b3008 	str	r3, [fp, #-8]
b2002d6c:	e51b300c 	ldr	r3, [fp, #-12]
b2002d70:	e2833001 	add	r3, r3, #1
b2002d74:	e50b300c 	str	r3, [fp, #-12]
b2002d78:	e51b3018 	ldr	r3, [fp, #-24]	; 0xffffffe8
b2002d7c:	e2433001 	sub	r3, r3, #1
b2002d80:	e50b3018 	str	r3, [fp, #-24]	; 0xffffffe8
b2002d84:	e51b3018 	ldr	r3, [fp, #-24]	; 0xffffffe8
b2002d88:	e3530000 	cmp	r3, #0
b2002d8c:	1affffef 	bne	b2002d50 <_memcpy+0x2c>
b2002d90:	e320f000 	nop	{0}
b2002d94:	e320f000 	nop	{0}
b2002d98:	e28bd000 	add	sp, fp, #0
b2002d9c:	e49db004 	pop	{fp}		; (ldr fp, [sp], #4)
b2002da0:	e12fff1e 	bx	lr

b2002da4 <page_list_init>:
b2002da4:	e92d4810 	push	{r4, fp, lr}
b2002da8:	e28db008 	add	fp, sp, #8
b2002dac:	e24dd014 	sub	sp, sp, #20
b2002db0:	e30930dc 	movw	r3, #37084	; 0x90dc
b2002db4:	e34b3200 	movt	r3, #45568	; 0xb200
b2002db8:	e30920f8 	movw	r2, #37112	; 0x90f8
b2002dbc:	e34b2200 	movt	r2, #45568	; 0xb200
b2002dc0:	e5832000 	str	r2, [r3]
b2002dc4:	e3a03000 	mov	r3, #0
b2002dc8:	e50b3010 	str	r3, [fp, #-16]
b2002dcc:	ea0000ad 	b	b2003088 <page_list_init+0x2e4>
b2002dd0:	e30930f8 	movw	r3, #37112	; 0x90f8
b2002dd4:	e34b3200 	movt	r3, #45568	; 0xb200
b2002dd8:	e51b2010 	ldr	r2, [fp, #-16]
b2002ddc:	e3a01028 	mov	r1, #40	; 0x28
b2002de0:	e0020291 	mul	r2, r1, r2
b2002de4:	e0833002 	add	r3, r3, r2
b2002de8:	e2833008 	add	r3, r3, #8
b2002dec:	e3a02000 	mov	r2, #0
b2002df0:	e5832000 	str	r2, [r3]
b2002df4:	e51b2010 	ldr	r2, [fp, #-16]
b2002df8:	e30930f8 	movw	r3, #37112	; 0x90f8
b2002dfc:	e34b3200 	movt	r3, #45568	; 0xb200
b2002e00:	e51b1010 	ldr	r1, [fp, #-16]
b2002e04:	e3a00028 	mov	r0, #40	; 0x28
b2002e08:	e0010190 	mul	r1, r0, r1
b2002e0c:	e0833001 	add	r3, r3, r1
b2002e10:	e283300c 	add	r3, r3, #12
b2002e14:	e5832000 	str	r2, [r3]
b2002e18:	e51b3010 	ldr	r3, [fp, #-16]
b2002e1c:	e1a04803 	lsl	r4, r3, #16
b2002e20:	e3a03801 	mov	r3, #65536	; 0x10000
b2002e24:	e50b3018 	str	r3, [fp, #-24]	; 0xffffffe8
b2002e28:	e3083ec4 	movw	r3, #36548	; 0x8ec4
b2002e2c:	e34b3200 	movt	r3, #45568	; 0xb200
b2002e30:	e5933000 	ldr	r3, [r3]
b2002e34:	e1a02003 	mov	r2, r3
b2002e38:	e51b3018 	ldr	r3, [fp, #-24]	; 0xffffffe8
b2002e3c:	e0823003 	add	r3, r2, r3
b2002e40:	e2433001 	sub	r3, r3, #1
b2002e44:	e50b301c 	str	r3, [fp, #-28]	; 0xffffffe4
b2002e48:	e51b301c 	ldr	r3, [fp, #-28]	; 0xffffffe4
b2002e4c:	e51b1018 	ldr	r1, [fp, #-24]	; 0xffffffe8
b2002e50:	e1a00003 	mov	r0, r3
b2002e54:	eb001410 	bl	b2007e9c <__aeabi_uidivmod>
b2002e58:	e1a03001 	mov	r3, r1
b2002e5c:	e1a02003 	mov	r2, r3
b2002e60:	e51b301c 	ldr	r3, [fp, #-28]	; 0xffffffe4
b2002e64:	e0433002 	sub	r3, r3, r2
b2002e68:	e0833004 	add	r3, r3, r4
b2002e6c:	e1a00003 	mov	r0, r3
b2002e70:	e30930f8 	movw	r3, #37112	; 0x90f8
b2002e74:	e34b3200 	movt	r3, #45568	; 0xb200
b2002e78:	e51b2010 	ldr	r2, [fp, #-16]
b2002e7c:	e3a01028 	mov	r1, #40	; 0x28
b2002e80:	e0020291 	mul	r2, r1, r2
b2002e84:	e0833002 	add	r3, r3, r2
b2002e88:	e2833010 	add	r3, r3, #16
b2002e8c:	e5830000 	str	r0, [r3]
b2002e90:	e30930f8 	movw	r3, #37112	; 0x90f8
b2002e94:	e34b3200 	movt	r3, #45568	; 0xb200
b2002e98:	e51b2010 	ldr	r2, [fp, #-16]
b2002e9c:	e3a01028 	mov	r1, #40	; 0x28
b2002ea0:	e0020291 	mul	r2, r1, r2
b2002ea4:	e0833002 	add	r3, r3, r2
b2002ea8:	e2833010 	add	r3, r3, #16
b2002eac:	e5933000 	ldr	r3, [r3]
b2002eb0:	e2833cff 	add	r3, r3, #65280	; 0xff00
b2002eb4:	e28330fc 	add	r3, r3, #252	; 0xfc
b2002eb8:	e30920f8 	movw	r2, #37112	; 0x90f8
b2002ebc:	e34b2200 	movt	r2, #45568	; 0xb200
b2002ec0:	e51b1010 	ldr	r1, [fp, #-16]
b2002ec4:	e3a00028 	mov	r0, #40	; 0x28
b2002ec8:	e0010190 	mul	r1, r0, r1
b2002ecc:	e0822001 	add	r2, r2, r1
b2002ed0:	e2822014 	add	r2, r2, #20
b2002ed4:	e5823000 	str	r3, [r2]
b2002ed8:	e30930f8 	movw	r3, #37112	; 0x90f8
b2002edc:	e34b3200 	movt	r3, #45568	; 0xb200
b2002ee0:	e51b2010 	ldr	r2, [fp, #-16]
b2002ee4:	e3a01028 	mov	r1, #40	; 0x28
b2002ee8:	e0020291 	mul	r2, r1, r2
b2002eec:	e0833002 	add	r3, r3, r2
b2002ef0:	e2833010 	add	r3, r3, #16
b2002ef4:	e5932000 	ldr	r2, [r3]
b2002ef8:	e30930f8 	movw	r3, #37112	; 0x90f8
b2002efc:	e34b3200 	movt	r3, #45568	; 0xb200
b2002f00:	e51b1010 	ldr	r1, [fp, #-16]
b2002f04:	e3a00028 	mov	r0, #40	; 0x28
b2002f08:	e0010190 	mul	r1, r0, r1
b2002f0c:	e0833001 	add	r3, r3, r1
b2002f10:	e283301c 	add	r3, r3, #28
b2002f14:	e5832000 	str	r2, [r3]
b2002f18:	e30930f8 	movw	r3, #37112	; 0x90f8
b2002f1c:	e34b3200 	movt	r3, #45568	; 0xb200
b2002f20:	e51b2010 	ldr	r2, [fp, #-16]
b2002f24:	e3a01028 	mov	r1, #40	; 0x28
b2002f28:	e0020291 	mul	r2, r1, r2
b2002f2c:	e0833002 	add	r3, r3, r2
b2002f30:	e2833010 	add	r3, r3, #16
b2002f34:	e5932000 	ldr	r2, [r3]
b2002f38:	e30930f8 	movw	r3, #37112	; 0x90f8
b2002f3c:	e34b3200 	movt	r3, #45568	; 0xb200
b2002f40:	e51b1010 	ldr	r1, [fp, #-16]
b2002f44:	e3a00028 	mov	r0, #40	; 0x28
b2002f48:	e0010190 	mul	r1, r0, r1
b2002f4c:	e0833001 	add	r3, r3, r1
b2002f50:	e2833018 	add	r3, r3, #24
b2002f54:	e5832000 	str	r2, [r3]
b2002f58:	e30930f8 	movw	r3, #37112	; 0x90f8
b2002f5c:	e34b3200 	movt	r3, #45568	; 0xb200
b2002f60:	e51b2010 	ldr	r2, [fp, #-16]
b2002f64:	e3a01028 	mov	r1, #40	; 0x28
b2002f68:	e0020291 	mul	r2, r1, r2
b2002f6c:	e0833002 	add	r3, r3, r2
b2002f70:	e2833020 	add	r3, r3, #32
b2002f74:	e3a02000 	mov	r2, #0
b2002f78:	e5832000 	str	r2, [r3]
b2002f7c:	e30930f8 	movw	r3, #37112	; 0x90f8
b2002f80:	e34b3200 	movt	r3, #45568	; 0xb200
b2002f84:	e51b2010 	ldr	r2, [fp, #-16]
b2002f88:	e3a01028 	mov	r1, #40	; 0x28
b2002f8c:	e0020291 	mul	r2, r1, r2
b2002f90:	e0833002 	add	r3, r3, r2
b2002f94:	e2833024 	add	r3, r3, #36	; 0x24
b2002f98:	e3a02000 	mov	r2, #0
b2002f9c:	e5832000 	str	r2, [r3]
b2002fa0:	e51b3010 	ldr	r3, [fp, #-16]
b2002fa4:	e30027ff 	movw	r2, #2047	; 0x7ff
b2002fa8:	e1530002 	cmp	r3, r2
b2002fac:	1a000008 	bne	b2002fd4 <page_list_init+0x230>
b2002fb0:	e30930f8 	movw	r3, #37112	; 0x90f8
b2002fb4:	e34b3200 	movt	r3, #45568	; 0xb200
b2002fb8:	e51b2010 	ldr	r2, [fp, #-16]
b2002fbc:	e3a01028 	mov	r1, #40	; 0x28
b2002fc0:	e0020291 	mul	r2, r1, r2
b2002fc4:	e0833002 	add	r3, r3, r2
b2002fc8:	e3a02000 	mov	r2, #0
b2002fcc:	e5832000 	str	r2, [r3]
b2002fd0:	ea00000d 	b	b200300c <page_list_init+0x268>
b2002fd4:	e51b3010 	ldr	r3, [fp, #-16]
b2002fd8:	e2833001 	add	r3, r3, #1
b2002fdc:	e3a02028 	mov	r2, #40	; 0x28
b2002fe0:	e0020392 	mul	r2, r2, r3
b2002fe4:	e30930f8 	movw	r3, #37112	; 0x90f8
b2002fe8:	e34b3200 	movt	r3, #45568	; 0xb200
b2002fec:	e0822003 	add	r2, r2, r3
b2002ff0:	e30930f8 	movw	r3, #37112	; 0x90f8
b2002ff4:	e34b3200 	movt	r3, #45568	; 0xb200
b2002ff8:	e51b1010 	ldr	r1, [fp, #-16]
b2002ffc:	e3a00028 	mov	r0, #40	; 0x28
b2003000:	e0010190 	mul	r1, r0, r1
b2003004:	e0833001 	add	r3, r3, r1
b2003008:	e5832000 	str	r2, [r3]
b200300c:	e51b3010 	ldr	r3, [fp, #-16]
b2003010:	e3530000 	cmp	r3, #0
b2003014:	1a000009 	bne	b2003040 <page_list_init+0x29c>
b2003018:	e30930f8 	movw	r3, #37112	; 0x90f8
b200301c:	e34b3200 	movt	r3, #45568	; 0xb200
b2003020:	e51b2010 	ldr	r2, [fp, #-16]
b2003024:	e3a01028 	mov	r1, #40	; 0x28
b2003028:	e0020291 	mul	r2, r1, r2
b200302c:	e0833002 	add	r3, r3, r2
b2003030:	e2833004 	add	r3, r3, #4
b2003034:	e3a02000 	mov	r2, #0
b2003038:	e5832000 	str	r2, [r3]
b200303c:	ea00000e 	b	b200307c <page_list_init+0x2d8>
b2003040:	e51b3010 	ldr	r3, [fp, #-16]
b2003044:	e2433001 	sub	r3, r3, #1
b2003048:	e3a02028 	mov	r2, #40	; 0x28
b200304c:	e0020392 	mul	r2, r2, r3
b2003050:	e30930f8 	movw	r3, #37112	; 0x90f8
b2003054:	e34b3200 	movt	r3, #45568	; 0xb200
b2003058:	e0822003 	add	r2, r2, r3
b200305c:	e30930f8 	movw	r3, #37112	; 0x90f8
b2003060:	e34b3200 	movt	r3, #45568	; 0xb200
b2003064:	e51b1010 	ldr	r1, [fp, #-16]
b2003068:	e3a00028 	mov	r0, #40	; 0x28
b200306c:	e0010190 	mul	r1, r0, r1
b2003070:	e0833001 	add	r3, r3, r1
b2003074:	e2833004 	add	r3, r3, #4
b2003078:	e5832000 	str	r2, [r3]
b200307c:	e51b3010 	ldr	r3, [fp, #-16]
b2003080:	e2833001 	add	r3, r3, #1
b2003084:	e50b3010 	str	r3, [fp, #-16]
b2003088:	e51b3010 	ldr	r3, [fp, #-16]
b200308c:	e3530b02 	cmp	r3, #2048	; 0x800
b2003090:	baffff4e 	blt	b2002dd0 <page_list_init+0x2c>
b2003094:	eb000006 	bl	b20030b4 <page_alloc>
b2003098:	e50b0014 	str	r0, [fp, #-20]	; 0xffffffec
b200309c:	e51b3014 	ldr	r3, [fp, #-20]	; 0xffffffec
b20030a0:	e3a02002 	mov	r2, #2
b20030a4:	e5832008 	str	r2, [r3, #8]
b20030a8:	e320f000 	nop	{0}
b20030ac:	e24bd008 	sub	sp, fp, #8
b20030b0:	e8bd8810 	pop	{r4, fp, pc}

b20030b4 <page_alloc>:
b20030b4:	e92d4800 	push	{fp, lr}
b20030b8:	e28db004 	add	fp, sp, #4
b20030bc:	e24dd008 	sub	sp, sp, #8
b20030c0:	e30930dc 	movw	r3, #37084	; 0x90dc
b20030c4:	e34b3200 	movt	r3, #45568	; 0xb200
b20030c8:	e5933000 	ldr	r3, [r3]
b20030cc:	e50b3008 	str	r3, [fp, #-8]
b20030d0:	e51b3008 	ldr	r3, [fp, #-8]
b20030d4:	e5932000 	ldr	r2, [r3]
b20030d8:	e30930dc 	movw	r3, #37084	; 0x90dc
b20030dc:	e34b3200 	movt	r3, #45568	; 0xb200
b20030e0:	e5832000 	str	r2, [r3]
b20030e4:	e30930dc 	movw	r3, #37084	; 0x90dc
b20030e8:	e34b3200 	movt	r3, #45568	; 0xb200
b20030ec:	e5933000 	ldr	r3, [r3]
b20030f0:	e3a02000 	mov	r2, #0
b20030f4:	e5832004 	str	r2, [r3, #4]
b20030f8:	e51b3008 	ldr	r3, [fp, #-8]
b20030fc:	e3a02000 	mov	r2, #0
b2003100:	e5832000 	str	r2, [r3]
b2003104:	e51b3008 	ldr	r3, [fp, #-8]
b2003108:	e3a02001 	mov	r2, #1
b200310c:	e5832008 	str	r2, [r3, #8]
b2003110:	e51b0008 	ldr	r0, [fp, #-8]
b2003114:	eb000041 	bl	b2003220 <insert_to_inuse_list>
b2003118:	e51b3008 	ldr	r3, [fp, #-8]
b200311c:	e1a00003 	mov	r0, r3
b2003120:	e24bd004 	sub	sp, fp, #4
b2003124:	e8bd8800 	pop	{fp, pc}

b2003128 <page_free>:
b2003128:	e92d4800 	push	{fp, lr}
b200312c:	e28db004 	add	fp, sp, #4
b2003130:	e24dd008 	sub	sp, sp, #8
b2003134:	e50b0008 	str	r0, [fp, #-8]
b2003138:	e51b3008 	ldr	r3, [fp, #-8]
b200313c:	e5933008 	ldr	r3, [r3, #8]
b2003140:	e3530000 	cmp	r3, #0
b2003144:	0a000004 	beq	b200315c <page_free+0x34>
b2003148:	e51b0008 	ldr	r0, [fp, #-8]
b200314c:	eb000061 	bl	b20032d8 <delete_from_inuse_list>
b2003150:	e51b0008 	ldr	r0, [fp, #-8]
b2003154:	eb000006 	bl	b2003174 <add_to_free_list_end>
b2003158:	ea000002 	b	b2003168 <page_free+0x40>
b200315c:	e3080718 	movw	r0, #34584	; 0x8718
b2003160:	e34b0200 	movt	r0, #45568	; 0xb200
b2003164:	ebfffd74 	bl	b200273c <printk>
b2003168:	e320f000 	nop	{0}
b200316c:	e24bd004 	sub	sp, fp, #4
b2003170:	e8bd8800 	pop	{fp, pc}

b2003174 <add_to_free_list_end>:
b2003174:	e52db004 	push	{fp}		; (str fp, [sp, #-4]!)
b2003178:	e28db000 	add	fp, sp, #0
b200317c:	e24dd014 	sub	sp, sp, #20
b2003180:	e50b0010 	str	r0, [fp, #-16]
b2003184:	e30930dc 	movw	r3, #37084	; 0x90dc
b2003188:	e34b3200 	movt	r3, #45568	; 0xb200
b200318c:	e5933000 	ldr	r3, [r3]
b2003190:	e3530000 	cmp	r3, #0
b2003194:	1a000007 	bne	b20031b8 <add_to_free_list_end+0x44>
b2003198:	e30930dc 	movw	r3, #37084	; 0x90dc
b200319c:	e34b3200 	movt	r3, #45568	; 0xb200
b20031a0:	e51b2010 	ldr	r2, [fp, #-16]
b20031a4:	e5832000 	str	r2, [r3]
b20031a8:	e51b3010 	ldr	r3, [fp, #-16]
b20031ac:	e3a02000 	mov	r2, #0
b20031b0:	e5832000 	str	r2, [r3]
b20031b4:	ea000016 	b	b2003214 <add_to_free_list_end+0xa0>
b20031b8:	e30930dc 	movw	r3, #37084	; 0x90dc
b20031bc:	e34b3200 	movt	r3, #45568	; 0xb200
b20031c0:	e5933000 	ldr	r3, [r3]
b20031c4:	e50b3008 	str	r3, [fp, #-8]
b20031c8:	ea000002 	b	b20031d8 <add_to_free_list_end+0x64>
b20031cc:	e51b3008 	ldr	r3, [fp, #-8]
b20031d0:	e5933000 	ldr	r3, [r3]
b20031d4:	e50b3008 	str	r3, [fp, #-8]
b20031d8:	e51b3008 	ldr	r3, [fp, #-8]
b20031dc:	e5933000 	ldr	r3, [r3]
b20031e0:	e3530000 	cmp	r3, #0
b20031e4:	1afffff8 	bne	b20031cc <add_to_free_list_end+0x58>
b20031e8:	e51b3008 	ldr	r3, [fp, #-8]
b20031ec:	e50b300c 	str	r3, [fp, #-12]
b20031f0:	e51b300c 	ldr	r3, [fp, #-12]
b20031f4:	e51b2010 	ldr	r2, [fp, #-16]
b20031f8:	e5832000 	str	r2, [r3]
b20031fc:	e51b3010 	ldr	r3, [fp, #-16]
b2003200:	e3a02000 	mov	r2, #0
b2003204:	e5832000 	str	r2, [r3]
b2003208:	e51b3010 	ldr	r3, [fp, #-16]
b200320c:	e51b200c 	ldr	r2, [fp, #-12]
b2003210:	e5832004 	str	r2, [r3, #4]
b2003214:	e28bd000 	add	sp, fp, #0
b2003218:	e49db004 	pop	{fp}		; (ldr fp, [sp], #4)
b200321c:	e12fff1e 	bx	lr

b2003220 <insert_to_inuse_list>:
b2003220:	e52db004 	push	{fp}		; (str fp, [sp, #-4]!)
b2003224:	e28db000 	add	fp, sp, #0
b2003228:	e24dd014 	sub	sp, sp, #20
b200322c:	e50b0010 	str	r0, [fp, #-16]
b2003230:	e30930e0 	movw	r3, #37088	; 0x90e0
b2003234:	e34b3200 	movt	r3, #45568	; 0xb200
b2003238:	e5933000 	ldr	r3, [r3]
b200323c:	e3530000 	cmp	r3, #0
b2003240:	1a00000a 	bne	b2003270 <insert_to_inuse_list+0x50>
b2003244:	e30930e0 	movw	r3, #37088	; 0x90e0
b2003248:	e34b3200 	movt	r3, #45568	; 0xb200
b200324c:	e51b2010 	ldr	r2, [fp, #-16]
b2003250:	e5832000 	str	r2, [r3]
b2003254:	e51b3010 	ldr	r3, [fp, #-16]
b2003258:	e3a02000 	mov	r2, #0
b200325c:	e5832000 	str	r2, [r3]
b2003260:	e51b3010 	ldr	r3, [fp, #-16]
b2003264:	e3a02000 	mov	r2, #0
b2003268:	e5832004 	str	r2, [r3, #4]
b200326c:	ea000016 	b	b20032cc <insert_to_inuse_list+0xac>
b2003270:	e30930e0 	movw	r3, #37088	; 0x90e0
b2003274:	e34b3200 	movt	r3, #45568	; 0xb200
b2003278:	e5933000 	ldr	r3, [r3]
b200327c:	e50b3008 	str	r3, [fp, #-8]
b2003280:	ea000002 	b	b2003290 <insert_to_inuse_list+0x70>
b2003284:	e51b3008 	ldr	r3, [fp, #-8]
b2003288:	e5933000 	ldr	r3, [r3]
b200328c:	e50b3008 	str	r3, [fp, #-8]
b2003290:	e51b3008 	ldr	r3, [fp, #-8]
b2003294:	e5933000 	ldr	r3, [r3]
b2003298:	e3530000 	cmp	r3, #0
b200329c:	1afffff8 	bne	b2003284 <insert_to_inuse_list+0x64>
b20032a0:	e51b3008 	ldr	r3, [fp, #-8]
b20032a4:	e50b300c 	str	r3, [fp, #-12]
b20032a8:	e51b300c 	ldr	r3, [fp, #-12]
b20032ac:	e51b2010 	ldr	r2, [fp, #-16]
b20032b0:	e5832000 	str	r2, [r3]
b20032b4:	e51b3010 	ldr	r3, [fp, #-16]
b20032b8:	e3a02000 	mov	r2, #0
b20032bc:	e5832000 	str	r2, [r3]
b20032c0:	e51b3010 	ldr	r3, [fp, #-16]
b20032c4:	e51b200c 	ldr	r2, [fp, #-12]
b20032c8:	e5832004 	str	r2, [r3, #4]
b20032cc:	e28bd000 	add	sp, fp, #0
b20032d0:	e49db004 	pop	{fp}		; (ldr fp, [sp], #4)
b20032d4:	e12fff1e 	bx	lr

b20032d8 <delete_from_inuse_list>:
b20032d8:	e52db004 	push	{fp}		; (str fp, [sp, #-4]!)
b20032dc:	e28db000 	add	fp, sp, #0
b20032e0:	e24dd014 	sub	sp, sp, #20
b20032e4:	e50b0010 	str	r0, [fp, #-16]
b20032e8:	e51b3010 	ldr	r3, [fp, #-16]
b20032ec:	e5933004 	ldr	r3, [r3, #4]
b20032f0:	e50b3008 	str	r3, [fp, #-8]
b20032f4:	e51b3010 	ldr	r3, [fp, #-16]
b20032f8:	e5933000 	ldr	r3, [r3]
b20032fc:	e50b300c 	str	r3, [fp, #-12]
b2003300:	e51b3008 	ldr	r3, [fp, #-8]
b2003304:	e3530000 	cmp	r3, #0
b2003308:	1a00000a 	bne	b2003338 <delete_from_inuse_list+0x60>
b200330c:	e30930e0 	movw	r3, #37088	; 0x90e0
b2003310:	e34b3200 	movt	r3, #45568	; 0xb200
b2003314:	e51b200c 	ldr	r2, [fp, #-12]
b2003318:	e5832000 	str	r2, [r3]
b200331c:	e51b300c 	ldr	r3, [fp, #-12]
b2003320:	e3a02000 	mov	r2, #0
b2003324:	e5832004 	str	r2, [r3, #4]
b2003328:	e51b3010 	ldr	r3, [fp, #-16]
b200332c:	e3a02000 	mov	r2, #0
b2003330:	e5832000 	str	r2, [r3]
b2003334:	ea000015 	b	b2003390 <delete_from_inuse_list+0xb8>
b2003338:	e51b300c 	ldr	r3, [fp, #-12]
b200333c:	e3530000 	cmp	r3, #0
b2003340:	1a000006 	bne	b2003360 <delete_from_inuse_list+0x88>
b2003344:	e51b3008 	ldr	r3, [fp, #-8]
b2003348:	e3a02000 	mov	r2, #0
b200334c:	e5832000 	str	r2, [r3]
b2003350:	e51b3010 	ldr	r3, [fp, #-16]
b2003354:	e3a02000 	mov	r2, #0
b2003358:	e5832004 	str	r2, [r3, #4]
b200335c:	ea00000b 	b	b2003390 <delete_from_inuse_list+0xb8>
b2003360:	e51b3008 	ldr	r3, [fp, #-8]
b2003364:	e51b200c 	ldr	r2, [fp, #-12]
b2003368:	e5832000 	str	r2, [r3]
b200336c:	e51b300c 	ldr	r3, [fp, #-12]
b2003370:	e51b2008 	ldr	r2, [fp, #-8]
b2003374:	e5832004 	str	r2, [r3, #4]
b2003378:	e51b3010 	ldr	r3, [fp, #-16]
b200337c:	e3a02000 	mov	r2, #0
b2003380:	e5832000 	str	r2, [r3]
b2003384:	e51b3010 	ldr	r3, [fp, #-16]
b2003388:	e3a02000 	mov	r2, #0
b200338c:	e5832004 	str	r2, [r3, #4]
b2003390:	e28bd000 	add	sp, fp, #0
b2003394:	e49db004 	pop	{fp}		; (ldr fp, [sp], #4)
b2003398:	e12fff1e 	bx	lr

b200339c <clean_area_content>:
b200339c:	e52db004 	push	{fp}		; (str fp, [sp, #-4]!)
b20033a0:	e28db000 	add	fp, sp, #0
b20033a4:	e24dd014 	sub	sp, sp, #20
b20033a8:	e50b0010 	str	r0, [fp, #-16]
b20033ac:	e51b3010 	ldr	r3, [fp, #-16]
b20033b0:	e50b3008 	str	r3, [fp, #-8]
b20033b4:	e3a03000 	mov	r3, #0
b20033b8:	e50b300c 	str	r3, [fp, #-12]
b20033bc:	ea000008 	b	b20033e4 <clean_area_content+0x48>
b20033c0:	e51b3008 	ldr	r3, [fp, #-8]
b20033c4:	e3a02000 	mov	r2, #0
b20033c8:	e5832000 	str	r2, [r3]
b20033cc:	e51b3008 	ldr	r3, [fp, #-8]
b20033d0:	e2833004 	add	r3, r3, #4
b20033d4:	e50b3008 	str	r3, [fp, #-8]
b20033d8:	e51b300c 	ldr	r3, [fp, #-12]
b20033dc:	e2833001 	add	r3, r3, #1
b20033e0:	e50b300c 	str	r3, [fp, #-12]
b20033e4:	e51b300c 	ldr	r3, [fp, #-12]
b20033e8:	e3530901 	cmp	r3, #16384	; 0x4000
b20033ec:	3afffff3 	bcc	b20033c0 <clean_area_content+0x24>
b20033f0:	e320f000 	nop	{0}
b20033f4:	e320f000 	nop	{0}
b20033f8:	e28bd000 	add	sp, fp, #0
b20033fc:	e49db004 	pop	{fp}		; (ldr fp, [sp], #4)
b2003400:	e12fff1e 	bx	lr

b2003404 <atleast_a_page_alloc>:
b2003404:	e52db004 	push	{fp}		; (str fp, [sp, #-4]!)
b2003408:	e28db000 	add	fp, sp, #0
b200340c:	e30930e0 	movw	r3, #37088	; 0x90e0
b2003410:	e34b3200 	movt	r3, #45568	; 0xb200
b2003414:	e5933000 	ldr	r3, [r3]
b2003418:	e3530000 	cmp	r3, #0
b200341c:	1a000001 	bne	b2003428 <atleast_a_page_alloc+0x24>
b2003420:	e3a03000 	mov	r3, #0
b2003424:	ea000000 	b	b200342c <atleast_a_page_alloc+0x28>
b2003428:	e3a03001 	mov	r3, #1
b200342c:	e1a00003 	mov	r0, r3
b2003430:	e28bd000 	add	sp, fp, #0
b2003434:	e49db004 	pop	{fp}		; (ldr fp, [sp], #4)
b2003438:	e12fff1e 	bx	lr

b200343c <find_page_list_end>:
b200343c:	e52db004 	push	{fp}		; (str fp, [sp, #-4]!)
b2003440:	e28db000 	add	fp, sp, #0
b2003444:	e24dd014 	sub	sp, sp, #20
b2003448:	e50b0010 	str	r0, [fp, #-16]
b200344c:	e51b3010 	ldr	r3, [fp, #-16]
b2003450:	e50b3008 	str	r3, [fp, #-8]
b2003454:	ea000002 	b	b2003464 <find_page_list_end+0x28>
b2003458:	e51b3008 	ldr	r3, [fp, #-8]
b200345c:	e5933000 	ldr	r3, [r3]
b2003460:	e50b3008 	str	r3, [fp, #-8]
b2003464:	e51b3008 	ldr	r3, [fp, #-8]
b2003468:	e3530000 	cmp	r3, #0
b200346c:	1afffff9 	bne	b2003458 <find_page_list_end+0x1c>
b2003470:	e51b3008 	ldr	r3, [fp, #-8]
b2003474:	e1a00003 	mov	r0, r3
b2003478:	e28bd000 	add	sp, fp, #0
b200347c:	e49db004 	pop	{fp}		; (ldr fp, [sp], #4)
b2003480:	e12fff1e 	bx	lr

b2003484 <find_aval_inuse_page>:
b2003484:	e52db004 	push	{fp}		; (str fp, [sp, #-4]!)
b2003488:	e28db000 	add	fp, sp, #0
b200348c:	e24dd00c 	sub	sp, sp, #12
b2003490:	e30930e0 	movw	r3, #37088	; 0x90e0
b2003494:	e34b3200 	movt	r3, #45568	; 0xb200
b2003498:	e5933000 	ldr	r3, [r3]
b200349c:	e50b3008 	str	r3, [fp, #-8]
b20034a0:	e51b3008 	ldr	r3, [fp, #-8]
b20034a4:	e3530000 	cmp	r3, #0
b20034a8:	0a000004 	beq	b20034c0 <find_aval_inuse_page+0x3c>
b20034ac:	e51b3008 	ldr	r3, [fp, #-8]
b20034b0:	e3a02001 	mov	r2, #1
b20034b4:	e5832008 	str	r2, [r3, #8]
b20034b8:	e51b3008 	ldr	r3, [fp, #-8]
b20034bc:	ea000000 	b	b20034c4 <find_aval_inuse_page+0x40>
b20034c0:	e3a03000 	mov	r3, #0
b20034c4:	e1a00003 	mov	r0, r3
b20034c8:	e28bd000 	add	sp, fp, #0
b20034cc:	e49db004 	pop	{fp}		; (ldr fp, [sp], #4)
b20034d0:	e12fff1e 	bx	lr

b20034d4 <memblks_init>:
b20034d4:	e52db004 	push	{fp}		; (str fp, [sp, #-4]!)
b20034d8:	e28db000 	add	fp, sp, #0
b20034dc:	e24dd024 	sub	sp, sp, #36	; 0x24
b20034e0:	e50b0018 	str	r0, [fp, #-24]	; 0xffffffe8
b20034e4:	e50b101c 	str	r1, [fp, #-28]	; 0xffffffe4
b20034e8:	e50b2020 	str	r2, [fp, #-32]	; 0xffffffe0
b20034ec:	e51b3018 	ldr	r3, [fp, #-24]	; 0xffffffe8
b20034f0:	e5933020 	ldr	r3, [r3, #32]
b20034f4:	e3530004 	cmp	r3, #4
b20034f8:	9a000001 	bls	b2003504 <memblks_init+0x30>
b20034fc:	e51b3018 	ldr	r3, [fp, #-24]	; 0xffffffe8
b2003500:	ea00002b 	b	b20035b4 <memblks_init+0xe0>
b2003504:	e51b301c 	ldr	r3, [fp, #-28]	; 0xffffffe4
b2003508:	e2833004 	add	r3, r3, #4
b200350c:	e50b3014 	str	r3, [fp, #-20]	; 0xffffffec
b2003510:	e51b3018 	ldr	r3, [fp, #-24]	; 0xffffffe8
b2003514:	e51b2014 	ldr	r2, [fp, #-20]	; 0xffffffec
b2003518:	e5832020 	str	r2, [r3, #32]
b200351c:	e51b3018 	ldr	r3, [fp, #-24]	; 0xffffffe8
b2003520:	e51b2020 	ldr	r2, [fp, #-32]	; 0xffffffe0
b2003524:	e5832024 	str	r2, [r3, #36]	; 0x24
b2003528:	e51b3018 	ldr	r3, [fp, #-24]	; 0xffffffe8
b200352c:	e593301c 	ldr	r3, [r3, #28]
b2003530:	e50b3008 	str	r3, [fp, #-8]
b2003534:	e51b3008 	ldr	r3, [fp, #-8]
b2003538:	e50b300c 	str	r3, [fp, #-12]
b200353c:	e3a03001 	mov	r3, #1
b2003540:	e50b3010 	str	r3, [fp, #-16]
b2003544:	ea000015 	b	b20035a0 <memblks_init+0xcc>
b2003548:	e51b3010 	ldr	r3, [fp, #-16]
b200354c:	e51b2020 	ldr	r2, [fp, #-32]	; 0xffffffe0
b2003550:	e1520003 	cmp	r2, r3
b2003554:	1a000003 	bne	b2003568 <memblks_init+0x94>
b2003558:	e51b3008 	ldr	r3, [fp, #-8]
b200355c:	e3a02000 	mov	r2, #0
b2003560:	e5832000 	str	r2, [r3]
b2003564:	ea000011 	b	b20035b0 <memblks_init+0xdc>
b2003568:	e51b200c 	ldr	r2, [fp, #-12]
b200356c:	e51b3014 	ldr	r3, [fp, #-20]	; 0xffffffec
b2003570:	e0823003 	add	r3, r2, r3
b2003574:	e50b300c 	str	r3, [fp, #-12]
b2003578:	e51b3008 	ldr	r3, [fp, #-8]
b200357c:	e51b200c 	ldr	r2, [fp, #-12]
b2003580:	e5832000 	str	r2, [r3]
b2003584:	e51b2008 	ldr	r2, [fp, #-8]
b2003588:	e51b3014 	ldr	r3, [fp, #-20]	; 0xffffffec
b200358c:	e0823003 	add	r3, r2, r3
b2003590:	e50b3008 	str	r3, [fp, #-8]
b2003594:	e51b3010 	ldr	r3, [fp, #-16]
b2003598:	e2833001 	add	r3, r3, #1
b200359c:	e50b3010 	str	r3, [fp, #-16]
b20035a0:	e51b3010 	ldr	r3, [fp, #-16]
b20035a4:	e51b2020 	ldr	r2, [fp, #-32]	; 0xffffffe0
b20035a8:	e1520003 	cmp	r2, r3
b20035ac:	2affffe5 	bcs	b2003548 <memblks_init+0x74>
b20035b0:	e51b3018 	ldr	r3, [fp, #-24]	; 0xffffffe8
b20035b4:	e1a00003 	mov	r0, r3
b20035b8:	e28bd000 	add	sp, fp, #0
b20035bc:	e49db004 	pop	{fp}		; (ldr fp, [sp], #4)
b20035c0:	e12fff1e 	bx	lr

b20035c4 <blk_alloc>:
b20035c4:	e92d4800 	push	{fp, lr}
b20035c8:	e28db004 	add	fp, sp, #4
b20035cc:	e24dd020 	sub	sp, sp, #32
b20035d0:	e50b0020 	str	r0, [fp, #-32]	; 0xffffffe0
b20035d4:	e51b3020 	ldr	r3, [fp, #-32]	; 0xffffffe0
b20035d8:	e5933008 	ldr	r3, [r3, #8]
b20035dc:	e3530003 	cmp	r3, #3
b20035e0:	1a000010 	bne	b2003628 <blk_alloc+0x64>
b20035e4:	e51b0020 	ldr	r0, [fp, #-32]	; 0xffffffe0
b20035e8:	eb0000d6 	bl	b2003948 <no_blks>
b20035ec:	e1a03000 	mov	r3, r0
b20035f0:	e3530000 	cmp	r3, #0
b20035f4:	1a00000b 	bne	b2003628 <blk_alloc+0x64>
b20035f8:	e51b3020 	ldr	r3, [fp, #-32]	; 0xffffffe0
b20035fc:	e593301c 	ldr	r3, [r3, #28]
b2003600:	e2833004 	add	r3, r3, #4
b2003604:	e50b3008 	str	r3, [fp, #-8]
b2003608:	e51b3020 	ldr	r3, [fp, #-32]	; 0xffffffe0
b200360c:	e593301c 	ldr	r3, [r3, #28]
b2003610:	e5933000 	ldr	r3, [r3]
b2003614:	e1a02003 	mov	r2, r3
b2003618:	e51b3020 	ldr	r3, [fp, #-32]	; 0xffffffe0
b200361c:	e583201c 	str	r2, [r3, #28]
b2003620:	e51b3008 	ldr	r3, [fp, #-8]
b2003624:	ea000055 	b	b2003780 <blk_alloc+0x1bc>
b2003628:	e51b3020 	ldr	r3, [fp, #-32]	; 0xffffffe0
b200362c:	e3530000 	cmp	r3, #0
b2003630:	1a000014 	bne	b2003688 <blk_alloc+0xc4>
b2003634:	ebfffe9e 	bl	b20030b4 <page_alloc>
b2003638:	e50b0020 	str	r0, [fp, #-32]	; 0xffffffe0
b200363c:	e3a02e3e 	mov	r2, #992	; 0x3e0
b2003640:	e3a0103c 	mov	r1, #60	; 0x3c
b2003644:	e51b0020 	ldr	r0, [fp, #-32]	; 0xffffffe0
b2003648:	ebffffa1 	bl	b20034d4 <memblks_init>
b200364c:	e50b0020 	str	r0, [fp, #-32]	; 0xffffffe0
b2003650:	e51b3020 	ldr	r3, [fp, #-32]	; 0xffffffe0
b2003654:	e593301c 	ldr	r3, [r3, #28]
b2003658:	e2833004 	add	r3, r3, #4
b200365c:	e50b3018 	str	r3, [fp, #-24]	; 0xffffffe8
b2003660:	e51b3020 	ldr	r3, [fp, #-32]	; 0xffffffe0
b2003664:	e593301c 	ldr	r3, [r3, #28]
b2003668:	e5933000 	ldr	r3, [r3]
b200366c:	e1a02003 	mov	r2, r3
b2003670:	e51b3020 	ldr	r3, [fp, #-32]	; 0xffffffe0
b2003674:	e583201c 	str	r2, [r3, #28]
b2003678:	e51b3020 	ldr	r3, [fp, #-32]	; 0xffffffe0
b200367c:	e593301c 	ldr	r3, [r3, #28]
b2003680:	e2833004 	add	r3, r3, #4
b2003684:	ea00003d 	b	b2003780 <blk_alloc+0x1bc>
b2003688:	e51b3020 	ldr	r3, [fp, #-32]	; 0xffffffe0
b200368c:	e5933020 	ldr	r3, [r3, #32]
b2003690:	e3530004 	cmp	r3, #4
b2003694:	8a000012 	bhi	b20036e4 <blk_alloc+0x120>
b2003698:	e3a02e3e 	mov	r2, #992	; 0x3e0
b200369c:	e3a0103c 	mov	r1, #60	; 0x3c
b20036a0:	e51b0020 	ldr	r0, [fp, #-32]	; 0xffffffe0
b20036a4:	ebffff8a 	bl	b20034d4 <memblks_init>
b20036a8:	e50b0020 	str	r0, [fp, #-32]	; 0xffffffe0
b20036ac:	e51b3020 	ldr	r3, [fp, #-32]	; 0xffffffe0
b20036b0:	e593301c 	ldr	r3, [r3, #28]
b20036b4:	e2833004 	add	r3, r3, #4
b20036b8:	e50b3014 	str	r3, [fp, #-20]	; 0xffffffec
b20036bc:	e51b3020 	ldr	r3, [fp, #-32]	; 0xffffffe0
b20036c0:	e593301c 	ldr	r3, [r3, #28]
b20036c4:	e5933000 	ldr	r3, [r3]
b20036c8:	e1a02003 	mov	r2, r3
b20036cc:	e51b3020 	ldr	r3, [fp, #-32]	; 0xffffffe0
b20036d0:	e583201c 	str	r2, [r3, #28]
b20036d4:	e51b3020 	ldr	r3, [fp, #-32]	; 0xffffffe0
b20036d8:	e593301c 	ldr	r3, [r3, #28]
b20036dc:	e2833004 	add	r3, r3, #4
b20036e0:	ea000026 	b	b2003780 <blk_alloc+0x1bc>
b20036e4:	e51b3020 	ldr	r3, [fp, #-32]	; 0xffffffe0
b20036e8:	e593301c 	ldr	r3, [r3, #28]
b20036ec:	e3530000 	cmp	r3, #0
b20036f0:	1a000017 	bne	b2003754 <blk_alloc+0x190>
b20036f4:	e51b3020 	ldr	r3, [fp, #-32]	; 0xffffffe0
b20036f8:	e3a02002 	mov	r2, #2
b20036fc:	e5832008 	str	r2, [r3, #8]
b2003700:	ebfffe6b 	bl	b20030b4 <page_alloc>
b2003704:	e50b0020 	str	r0, [fp, #-32]	; 0xffffffe0
b2003708:	e3a02e3e 	mov	r2, #992	; 0x3e0
b200370c:	e3a0103c 	mov	r1, #60	; 0x3c
b2003710:	e51b0020 	ldr	r0, [fp, #-32]	; 0xffffffe0
b2003714:	ebffff6e 	bl	b20034d4 <memblks_init>
b2003718:	e50b0020 	str	r0, [fp, #-32]	; 0xffffffe0
b200371c:	e51b3020 	ldr	r3, [fp, #-32]	; 0xffffffe0
b2003720:	e593301c 	ldr	r3, [r3, #28]
b2003724:	e2833004 	add	r3, r3, #4
b2003728:	e50b3010 	str	r3, [fp, #-16]
b200372c:	e51b3020 	ldr	r3, [fp, #-32]	; 0xffffffe0
b2003730:	e593301c 	ldr	r3, [r3, #28]
b2003734:	e5933000 	ldr	r3, [r3]
b2003738:	e1a02003 	mov	r2, r3
b200373c:	e51b3020 	ldr	r3, [fp, #-32]	; 0xffffffe0
b2003740:	e583201c 	str	r2, [r3, #28]
b2003744:	e51b3020 	ldr	r3, [fp, #-32]	; 0xffffffe0
b2003748:	e593301c 	ldr	r3, [r3, #28]
b200374c:	e2833004 	add	r3, r3, #4
b2003750:	ea00000a 	b	b2003780 <blk_alloc+0x1bc>
b2003754:	e51b3020 	ldr	r3, [fp, #-32]	; 0xffffffe0
b2003758:	e593301c 	ldr	r3, [r3, #28]
b200375c:	e2833004 	add	r3, r3, #4
b2003760:	e50b300c 	str	r3, [fp, #-12]
b2003764:	e51b3020 	ldr	r3, [fp, #-32]	; 0xffffffe0
b2003768:	e593301c 	ldr	r3, [r3, #28]
b200376c:	e5933000 	ldr	r3, [r3]
b2003770:	e1a02003 	mov	r2, r3
b2003774:	e51b3020 	ldr	r3, [fp, #-32]	; 0xffffffe0
b2003778:	e583201c 	str	r2, [r3, #28]
b200377c:	e51b300c 	ldr	r3, [fp, #-12]
b2003780:	e1a00003 	mov	r0, r3
b2003784:	e24bd004 	sub	sp, fp, #4
b2003788:	e8bd8800 	pop	{fp, pc}

b200378c <which_page>:
b200378c:	e52db004 	push	{fp}		; (str fp, [sp, #-4]!)
b2003790:	e28db000 	add	fp, sp, #0
b2003794:	e24dd01c 	sub	sp, sp, #28
b2003798:	e50b0018 	str	r0, [fp, #-24]	; 0xffffffe8
b200379c:	e51b3018 	ldr	r3, [fp, #-24]	; 0xffffffe8
b20037a0:	e50b300c 	str	r3, [fp, #-12]
b20037a4:	e51b300c 	ldr	r3, [fp, #-12]
b20037a8:	e1a03823 	lsr	r3, r3, #16
b20037ac:	e1a03803 	lsl	r3, r3, #16
b20037b0:	e50b3010 	str	r3, [fp, #-16]
b20037b4:	e30930e0 	movw	r3, #37088	; 0x90e0
b20037b8:	e34b3200 	movt	r3, #45568	; 0xb200
b20037bc:	e5933000 	ldr	r3, [r3]
b20037c0:	e50b3008 	str	r3, [fp, #-8]
b20037c4:	ea000007 	b	b20037e8 <which_page+0x5c>
b20037c8:	e51b3008 	ldr	r3, [fp, #-8]
b20037cc:	e5933010 	ldr	r3, [r3, #16]
b20037d0:	e51b2010 	ldr	r2, [fp, #-16]
b20037d4:	e1520003 	cmp	r2, r3
b20037d8:	0a000007 	beq	b20037fc <which_page+0x70>
b20037dc:	e51b3008 	ldr	r3, [fp, #-8]
b20037e0:	e5933000 	ldr	r3, [r3]
b20037e4:	e50b3008 	str	r3, [fp, #-8]
b20037e8:	e51b3008 	ldr	r3, [fp, #-8]
b20037ec:	e5933000 	ldr	r3, [r3]
b20037f0:	e3530000 	cmp	r3, #0
b20037f4:	1afffff3 	bne	b20037c8 <which_page+0x3c>
b20037f8:	ea000000 	b	b2003800 <which_page+0x74>
b20037fc:	e320f000 	nop	{0}
b2003800:	e51b3008 	ldr	r3, [fp, #-8]
b2003804:	e50b3014 	str	r3, [fp, #-20]	; 0xffffffec
b2003808:	e51b3014 	ldr	r3, [fp, #-20]	; 0xffffffec
b200380c:	e1a00003 	mov	r0, r3
b2003810:	e28bd000 	add	sp, fp, #0
b2003814:	e49db004 	pop	{fp}		; (ldr fp, [sp], #4)
b2003818:	e12fff1e 	bx	lr

b200381c <find_prev_blk>:
b200381c:	e52db004 	push	{fp}		; (str fp, [sp, #-4]!)
b2003820:	e28db000 	add	fp, sp, #0
b2003824:	e24dd014 	sub	sp, sp, #20
b2003828:	e50b0010 	str	r0, [fp, #-16]
b200382c:	e50b1014 	str	r1, [fp, #-20]	; 0xffffffec
b2003830:	e51b3010 	ldr	r3, [fp, #-16]
b2003834:	e5933020 	ldr	r3, [r3, #32]
b2003838:	e2633000 	rsb	r3, r3, #0
b200383c:	e51b2014 	ldr	r2, [fp, #-20]	; 0xffffffec
b2003840:	e0823003 	add	r3, r2, r3
b2003844:	e50b3008 	str	r3, [fp, #-8]
b2003848:	e51b3008 	ldr	r3, [fp, #-8]
b200384c:	e1a00003 	mov	r0, r3
b2003850:	e28bd000 	add	sp, fp, #0
b2003854:	e49db004 	pop	{fp}		; (ldr fp, [sp], #4)
b2003858:	e12fff1e 	bx	lr

b200385c <put_to_blklist_end>:
b200385c:	e52db004 	push	{fp}		; (str fp, [sp, #-4]!)
b2003860:	e28db000 	add	fp, sp, #0
b2003864:	e24dd014 	sub	sp, sp, #20
b2003868:	e50b0010 	str	r0, [fp, #-16]
b200386c:	e50b1014 	str	r1, [fp, #-20]	; 0xffffffec
b2003870:	e51b3010 	ldr	r3, [fp, #-16]
b2003874:	e593301c 	ldr	r3, [r3, #28]
b2003878:	e50b3008 	str	r3, [fp, #-8]
b200387c:	ea000002 	b	b200388c <put_to_blklist_end+0x30>
b2003880:	e51b3008 	ldr	r3, [fp, #-8]
b2003884:	e5933000 	ldr	r3, [r3]
b2003888:	e50b3008 	str	r3, [fp, #-8]
b200388c:	e51b3008 	ldr	r3, [fp, #-8]
b2003890:	e5933000 	ldr	r3, [r3]
b2003894:	e3530000 	cmp	r3, #0
b2003898:	1afffff8 	bne	b2003880 <put_to_blklist_end+0x24>
b200389c:	e51b3008 	ldr	r3, [fp, #-8]
b20038a0:	e50b300c 	str	r3, [fp, #-12]
b20038a4:	e51b2014 	ldr	r2, [fp, #-20]	; 0xffffffec
b20038a8:	e51b300c 	ldr	r3, [fp, #-12]
b20038ac:	e5832000 	str	r2, [r3]
b20038b0:	e51b3014 	ldr	r3, [fp, #-20]	; 0xffffffec
b20038b4:	e3a02000 	mov	r2, #0
b20038b8:	e5832000 	str	r2, [r3]
b20038bc:	e320f000 	nop	{0}
b20038c0:	e28bd000 	add	sp, fp, #0
b20038c4:	e49db004 	pop	{fp}		; (ldr fp, [sp], #4)
b20038c8:	e12fff1e 	bx	lr

b20038cc <free_blk>:
b20038cc:	e92d4800 	push	{fp, lr}
b20038d0:	e28db004 	add	fp, sp, #4
b20038d4:	e24dd010 	sub	sp, sp, #16
b20038d8:	e50b0010 	str	r0, [fp, #-16]
b20038dc:	e51b3010 	ldr	r3, [fp, #-16]
b20038e0:	e2433004 	sub	r3, r3, #4
b20038e4:	e50b3008 	str	r3, [fp, #-8]
b20038e8:	e51b0008 	ldr	r0, [fp, #-8]
b20038ec:	ebffffa6 	bl	b200378c <which_page>
b20038f0:	e50b000c 	str	r0, [fp, #-12]
b20038f4:	e51b1008 	ldr	r1, [fp, #-8]
b20038f8:	e51b000c 	ldr	r0, [fp, #-12]
b20038fc:	ebffffd6 	bl	b200385c <put_to_blklist_end>
b2003900:	e320f000 	nop	{0}
b2003904:	e24bd004 	sub	sp, fp, #4
b2003908:	e8bd8800 	pop	{fp, pc}

b200390c <is_blk_init>:
b200390c:	e52db004 	push	{fp}		; (str fp, [sp, #-4]!)
b2003910:	e28db000 	add	fp, sp, #0
b2003914:	e24dd00c 	sub	sp, sp, #12
b2003918:	e50b0008 	str	r0, [fp, #-8]
b200391c:	e51b3008 	ldr	r3, [fp, #-8]
b2003920:	e5933020 	ldr	r3, [r3, #32]
b2003924:	e3530004 	cmp	r3, #4
b2003928:	8a000001 	bhi	b2003934 <is_blk_init+0x28>
b200392c:	e3a03000 	mov	r3, #0
b2003930:	ea000000 	b	b2003938 <is_blk_init+0x2c>
b2003934:	e3a03001 	mov	r3, #1
b2003938:	e1a00003 	mov	r0, r3
b200393c:	e28bd000 	add	sp, fp, #0
b2003940:	e49db004 	pop	{fp}		; (ldr fp, [sp], #4)
b2003944:	e12fff1e 	bx	lr

b2003948 <no_blks>:
b2003948:	e52db004 	push	{fp}		; (str fp, [sp, #-4]!)
b200394c:	e28db000 	add	fp, sp, #0
b2003950:	e24dd00c 	sub	sp, sp, #12
b2003954:	e50b0008 	str	r0, [fp, #-8]
b2003958:	e51b3008 	ldr	r3, [fp, #-8]
b200395c:	e593301c 	ldr	r3, [r3, #28]
b2003960:	e3530000 	cmp	r3, #0
b2003964:	1a000001 	bne	b2003970 <no_blks+0x28>
b2003968:	e3a03001 	mov	r3, #1
b200396c:	ea000000 	b	b2003974 <no_blks+0x2c>
b2003970:	e3a03000 	mov	r3, #0
b2003974:	e1a00003 	mov	r0, r3
b2003978:	e28bd000 	add	sp, fp, #0
b200397c:	e49db004 	pop	{fp}		; (ldr fp, [sp], #4)
b2003980:	e12fff1e 	bx	lr

b2003984 <demand_a_blk>:
b2003984:	e92d4800 	push	{fp, lr}
b2003988:	e28db004 	add	fp, sp, #4
b200398c:	e24dd018 	sub	sp, sp, #24
b2003990:	ebfffe9b 	bl	b2003404 <atleast_a_page_alloc>
b2003994:	e1a03000 	mov	r3, r0
b2003998:	e3530000 	cmp	r3, #0
b200399c:	1a00000b 	bne	b20039d0 <demand_a_blk+0x4c>
b20039a0:	ebfffdc3 	bl	b20030b4 <page_alloc>
b20039a4:	e50b0008 	str	r0, [fp, #-8]
b20039a8:	e3a02e3e 	mov	r2, #992	; 0x3e0
b20039ac:	e3a0103c 	mov	r1, #60	; 0x3c
b20039b0:	e51b0008 	ldr	r0, [fp, #-8]
b20039b4:	ebfffec6 	bl	b20034d4 <memblks_init>
b20039b8:	e50b0008 	str	r0, [fp, #-8]
b20039bc:	e51b0008 	ldr	r0, [fp, #-8]
b20039c0:	ebfffeff 	bl	b20035c4 <blk_alloc>
b20039c4:	e50b0018 	str	r0, [fp, #-24]	; 0xffffffe8
b20039c8:	e51b3018 	ldr	r3, [fp, #-24]	; 0xffffffe8
b20039cc:	ea000023 	b	b2003a60 <demand_a_blk+0xdc>
b20039d0:	ebfffeab 	bl	b2003484 <find_aval_inuse_page>
b20039d4:	e50b0008 	str	r0, [fp, #-8]
b20039d8:	e51b3008 	ldr	r3, [fp, #-8]
b20039dc:	e3530000 	cmp	r3, #0
b20039e0:	1a00000b 	bne	b2003a14 <demand_a_blk+0x90>
b20039e4:	ebfffdb2 	bl	b20030b4 <page_alloc>
b20039e8:	e50b0008 	str	r0, [fp, #-8]
b20039ec:	e3a02e3e 	mov	r2, #992	; 0x3e0
b20039f0:	e3a0103c 	mov	r1, #60	; 0x3c
b20039f4:	e51b0008 	ldr	r0, [fp, #-8]
b20039f8:	ebfffeb5 	bl	b20034d4 <memblks_init>
b20039fc:	e50b0008 	str	r0, [fp, #-8]
b2003a00:	e51b0008 	ldr	r0, [fp, #-8]
b2003a04:	ebfffeee 	bl	b20035c4 <blk_alloc>
b2003a08:	e50b0014 	str	r0, [fp, #-20]	; 0xffffffec
b2003a0c:	e51b3014 	ldr	r3, [fp, #-20]	; 0xffffffec
b2003a10:	ea000012 	b	b2003a60 <demand_a_blk+0xdc>
b2003a14:	e51b0008 	ldr	r0, [fp, #-8]
b2003a18:	ebffffbb 	bl	b200390c <is_blk_init>
b2003a1c:	e1a03000 	mov	r3, r0
b2003a20:	e3530000 	cmp	r3, #0
b2003a24:	1a000009 	bne	b2003a50 <demand_a_blk+0xcc>
b2003a28:	e3a02e3e 	mov	r2, #992	; 0x3e0
b2003a2c:	e3a0103c 	mov	r1, #60	; 0x3c
b2003a30:	e51b0008 	ldr	r0, [fp, #-8]
b2003a34:	ebfffea6 	bl	b20034d4 <memblks_init>
b2003a38:	e50b0008 	str	r0, [fp, #-8]
b2003a3c:	e51b0008 	ldr	r0, [fp, #-8]
b2003a40:	ebfffedf 	bl	b20035c4 <blk_alloc>
b2003a44:	e50b0010 	str	r0, [fp, #-16]
b2003a48:	e51b3010 	ldr	r3, [fp, #-16]
b2003a4c:	ea000003 	b	b2003a60 <demand_a_blk+0xdc>
b2003a50:	e51b0008 	ldr	r0, [fp, #-8]
b2003a54:	ebfffeda 	bl	b20035c4 <blk_alloc>
b2003a58:	e50b000c 	str	r0, [fp, #-12]
b2003a5c:	e51b300c 	ldr	r3, [fp, #-12]
b2003a60:	e1a00003 	mov	r0, r3
b2003a64:	e24bd004 	sub	sp, fp, #4
b2003a68:	e8bd8800 	pop	{fp, pc}

b2003a6c <kmalloc>:
b2003a6c:	e92d4800 	push	{fp, lr}
b2003a70:	e28db004 	add	fp, sp, #4
b2003a74:	ebffffc2 	bl	b2003984 <demand_a_blk>
b2003a78:	e1a03000 	mov	r3, r0
b2003a7c:	e1a00003 	mov	r0, r3
b2003a80:	e8bd8800 	pop	{fp, pc}

b2003a84 <kfree>:
b2003a84:	e92d4800 	push	{fp, lr}
b2003a88:	e28db004 	add	fp, sp, #4
b2003a8c:	e24dd008 	sub	sp, sp, #8
b2003a90:	e50b0008 	str	r0, [fp, #-8]
b2003a94:	e51b0008 	ldr	r0, [fp, #-8]
b2003a98:	ebffff8b 	bl	b20038cc <free_blk>
b2003a9c:	e320f000 	nop	{0}
b2003aa0:	e24bd004 	sub	sp, fp, #4
b2003aa4:	e8bd8800 	pop	{fp, pc}

b2003aa8 <gen_pte>:
b2003aa8:	e52db004 	push	{fp}		; (str fp, [sp, #-4]!)
b2003aac:	e28db000 	add	fp, sp, #0
b2003ab0:	e24dd00c 	sub	sp, sp, #12
b2003ab4:	e50b0008 	str	r0, [fp, #-8]
b2003ab8:	e51b3008 	ldr	r3, [fp, #-8]
b2003abc:	e1a03a23 	lsr	r3, r3, #20
b2003ac0:	e1a03a03 	lsl	r3, r3, #20
b2003ac4:	e3833002 	orr	r3, r3, #2
b2003ac8:	e1a00003 	mov	r0, r3
b2003acc:	e28bd000 	add	sp, fp, #0
b2003ad0:	e49db004 	pop	{fp}		; (ldr fp, [sp], #4)
b2003ad4:	e12fff1e 	bx	lr

b2003ad8 <gen_pte_addr>:
b2003ad8:	e52db004 	push	{fp}		; (str fp, [sp, #-4]!)
b2003adc:	e28db000 	add	fp, sp, #0
b2003ae0:	e24dd00c 	sub	sp, sp, #12
b2003ae4:	e50b0008 	str	r0, [fp, #-8]
b2003ae8:	e50b100c 	str	r1, [fp, #-12]
b2003aec:	e51b3008 	ldr	r3, [fp, #-8]
b2003af0:	e3c33dff 	bic	r3, r3, #16320	; 0x3fc0
b2003af4:	e3c3303f 	bic	r3, r3, #63	; 0x3f
b2003af8:	e51b200c 	ldr	r2, [fp, #-12]
b2003afc:	e1a02a22 	lsr	r2, r2, #20
b2003b00:	e1a02102 	lsl	r2, r2, #2
b2003b04:	e1833002 	orr	r3, r3, r2
b2003b08:	e1a00003 	mov	r0, r3
b2003b0c:	e28bd000 	add	sp, fp, #0
b2003b10:	e49db004 	pop	{fp}		; (ldr fp, [sp], #4)
b2003b14:	e12fff1e 	bx	lr

b2003b18 <pte_init>:
b2003b18:	e92d4800 	push	{fp, lr}
b2003b1c:	e28db004 	add	fp, sp, #4
b2003b20:	e24dd050 	sub	sp, sp, #80	; 0x50
b2003b24:	e50b0048 	str	r0, [fp, #-72]	; 0xffffffb8
b2003b28:	e50b104c 	str	r1, [fp, #-76]	; 0xffffffb4
b2003b2c:	e50b2050 	str	r2, [fp, #-80]	; 0xffffffb0
b2003b30:	e50b3054 	str	r3, [fp, #-84]	; 0xffffffac
b2003b34:	e3a03000 	mov	r3, #0
b2003b38:	e50b300c 	str	r3, [fp, #-12]
b2003b3c:	e51b3048 	ldr	r3, [fp, #-72]	; 0xffffffb8
b2003b40:	e50b3010 	str	r3, [fp, #-16]
b2003b44:	e51b3010 	ldr	r3, [fp, #-16]
b2003b48:	e1a03a23 	lsr	r3, r3, #20
b2003b4c:	e1a03a03 	lsl	r3, r3, #20
b2003b50:	e50b3014 	str	r3, [fp, #-20]	; 0xffffffec
b2003b54:	e51b304c 	ldr	r3, [fp, #-76]	; 0xffffffb4
b2003b58:	e3730601 	cmn	r3, #1048576	; 0x100000
b2003b5c:	2a000010 	bcs	b2003ba4 <pte_init+0x8c>
b2003b60:	e3a03601 	mov	r3, #1048576	; 0x100000
b2003b64:	e50b3020 	str	r3, [fp, #-32]	; 0xffffffe0
b2003b68:	e51b204c 	ldr	r2, [fp, #-76]	; 0xffffffb4
b2003b6c:	e51b3020 	ldr	r3, [fp, #-32]	; 0xffffffe0
b2003b70:	e0823003 	add	r3, r2, r3
b2003b74:	e2433001 	sub	r3, r3, #1
b2003b78:	e50b3024 	str	r3, [fp, #-36]	; 0xffffffdc
b2003b7c:	e51b3024 	ldr	r3, [fp, #-36]	; 0xffffffdc
b2003b80:	e51b1020 	ldr	r1, [fp, #-32]	; 0xffffffe0
b2003b84:	e1a00003 	mov	r0, r3
b2003b88:	eb0010c3 	bl	b2007e9c <__aeabi_uidivmod>
b2003b8c:	e1a03001 	mov	r3, r1
b2003b90:	e1a02003 	mov	r2, r3
b2003b94:	e51b3024 	ldr	r3, [fp, #-36]	; 0xffffffdc
b2003b98:	e0433002 	sub	r3, r3, r2
b2003b9c:	e50b301c 	str	r3, [fp, #-28]	; 0xffffffe4
b2003ba0:	ea000005 	b	b2003bbc <pte_init+0xa4>
b2003ba4:	e51b304c 	ldr	r3, [fp, #-76]	; 0xffffffb4
b2003ba8:	e50b3018 	str	r3, [fp, #-24]	; 0xffffffe8
b2003bac:	e51b3018 	ldr	r3, [fp, #-24]	; 0xffffffe8
b2003bb0:	e1a03a23 	lsr	r3, r3, #20
b2003bb4:	e1a03a03 	lsl	r3, r3, #20
b2003bb8:	e50b301c 	str	r3, [fp, #-28]	; 0xffffffe4
b2003bbc:	e3a03601 	mov	r3, #1048576	; 0x100000
b2003bc0:	e50b3028 	str	r3, [fp, #-40]	; 0xffffffd8
b2003bc4:	e51b204c 	ldr	r2, [fp, #-76]	; 0xffffffb4
b2003bc8:	e51b3028 	ldr	r3, [fp, #-40]	; 0xffffffd8
b2003bcc:	e0823003 	add	r3, r2, r3
b2003bd0:	e2433001 	sub	r3, r3, #1
b2003bd4:	e50b302c 	str	r3, [fp, #-44]	; 0xffffffd4
b2003bd8:	e51b302c 	ldr	r3, [fp, #-44]	; 0xffffffd4
b2003bdc:	e51b1028 	ldr	r1, [fp, #-40]	; 0xffffffd8
b2003be0:	e1a00003 	mov	r0, r3
b2003be4:	eb0010ac 	bl	b2007e9c <__aeabi_uidivmod>
b2003be8:	e1a03001 	mov	r3, r1
b2003bec:	e1a02003 	mov	r2, r3
b2003bf0:	e51b302c 	ldr	r3, [fp, #-44]	; 0xffffffd4
b2003bf4:	e0432002 	sub	r2, r3, r2
b2003bf8:	e51b3048 	ldr	r3, [fp, #-72]	; 0xffffffb8
b2003bfc:	e50b3030 	str	r3, [fp, #-48]	; 0xffffffd0
b2003c00:	e51b3030 	ldr	r3, [fp, #-48]	; 0xffffffd0
b2003c04:	e1a03a23 	lsr	r3, r3, #20
b2003c08:	e1a03a03 	lsl	r3, r3, #20
b2003c0c:	e0423003 	sub	r3, r2, r3
b2003c10:	e1a02a23 	lsr	r2, r3, #20
b2003c14:	e51b300c 	ldr	r3, [fp, #-12]
b2003c18:	e0823003 	add	r3, r2, r3
b2003c1c:	e50b300c 	str	r3, [fp, #-12]
b2003c20:	e3a03000 	mov	r3, #0
b2003c24:	e50b3008 	str	r3, [fp, #-8]
b2003c28:	ea000036 	b	b2003d08 <pte_init+0x1f0>
b2003c2c:	e51b3008 	ldr	r3, [fp, #-8]
b2003c30:	e1a03a03 	lsl	r3, r3, #20
b2003c34:	e1a02003 	mov	r2, r3
b2003c38:	e51b3014 	ldr	r3, [fp, #-20]	; 0xffffffec
b2003c3c:	e0823003 	add	r3, r2, r3
b2003c40:	e1a00003 	mov	r0, r3
b2003c44:	ebffff97 	bl	b2003aa8 <gen_pte>
b2003c48:	e50b0034 	str	r0, [fp, #-52]	; 0xffffffcc
b2003c4c:	e51b3050 	ldr	r3, [fp, #-80]	; 0xffffffb0
b2003c50:	e1a03503 	lsl	r3, r3, #10
b2003c54:	e1a02003 	mov	r2, r3
b2003c58:	e51b3034 	ldr	r3, [fp, #-52]	; 0xffffffcc
b2003c5c:	e1833002 	orr	r3, r3, r2
b2003c60:	e50b3034 	str	r3, [fp, #-52]	; 0xffffffcc
b2003c64:	e51b3034 	ldr	r3, [fp, #-52]	; 0xffffffcc
b2003c68:	e3833801 	orr	r3, r3, #65536	; 0x10000
b2003c6c:	e50b3034 	str	r3, [fp, #-52]	; 0xffffffcc
b2003c70:	e3a03801 	mov	r3, #65536	; 0x10000
b2003c74:	e50b3038 	str	r3, [fp, #-56]	; 0xffffffc8
b2003c78:	e3083ec4 	movw	r3, #36548	; 0x8ec4
b2003c7c:	e34b3200 	movt	r3, #45568	; 0xb200
b2003c80:	e5933000 	ldr	r3, [r3]
b2003c84:	e1a02003 	mov	r2, r3
b2003c88:	e51b3038 	ldr	r3, [fp, #-56]	; 0xffffffc8
b2003c8c:	e0823003 	add	r3, r2, r3
b2003c90:	e2433001 	sub	r3, r3, #1
b2003c94:	e50b303c 	str	r3, [fp, #-60]	; 0xffffffc4
b2003c98:	e51b303c 	ldr	r3, [fp, #-60]	; 0xffffffc4
b2003c9c:	e51b1038 	ldr	r1, [fp, #-56]	; 0xffffffc8
b2003ca0:	e1a00003 	mov	r0, r3
b2003ca4:	eb00107c 	bl	b2007e9c <__aeabi_uidivmod>
b2003ca8:	e1a03001 	mov	r3, r1
b2003cac:	e1a02003 	mov	r2, r3
b2003cb0:	e51b303c 	ldr	r3, [fp, #-60]	; 0xffffffc4
b2003cb4:	e0432002 	sub	r2, r3, r2
b2003cb8:	e51b3008 	ldr	r3, [fp, #-8]
b2003cbc:	e1a03a03 	lsl	r3, r3, #20
b2003cc0:	e1a01003 	mov	r1, r3
b2003cc4:	e51b3054 	ldr	r3, [fp, #-84]	; 0xffffffac
b2003cc8:	e0813003 	add	r3, r1, r3
b2003ccc:	e1a01003 	mov	r1, r3
b2003cd0:	e1a00002 	mov	r0, r2
b2003cd4:	ebffff7f 	bl	b2003ad8 <gen_pte_addr>
b2003cd8:	e50b0040 	str	r0, [fp, #-64]	; 0xffffffc0
b2003cdc:	e51b3040 	ldr	r3, [fp, #-64]	; 0xffffffc0
b2003ce0:	e3a02004 	mov	r2, #4
b2003ce4:	e3a01000 	mov	r1, #0
b2003ce8:	e1a00003 	mov	r0, r3
b2003cec:	ebfffbc2 	bl	b2002bfc <_memset>
b2003cf0:	e51b3040 	ldr	r3, [fp, #-64]	; 0xffffffc0
b2003cf4:	e51b2034 	ldr	r2, [fp, #-52]	; 0xffffffcc
b2003cf8:	e5832000 	str	r2, [r3]
b2003cfc:	e51b3008 	ldr	r3, [fp, #-8]
b2003d00:	e2833001 	add	r3, r3, #1
b2003d04:	e50b3008 	str	r3, [fp, #-8]
b2003d08:	e51b2008 	ldr	r2, [fp, #-8]
b2003d0c:	e51b300c 	ldr	r3, [fp, #-12]
b2003d10:	e1520003 	cmp	r2, r3
b2003d14:	baffffc4 	blt	b2003c2c <pte_init+0x114>
b2003d18:	e320f000 	nop	{0}
b2003d1c:	e320f000 	nop	{0}
b2003d20:	e24bd004 	sub	sp, fp, #4
b2003d24:	e8bd8800 	pop	{fp, pc}

b2003d28 <mem_map>:
b2003d28:	e92d4800 	push	{fp, lr}
b2003d2c:	e28db004 	add	fp, sp, #4
b2003d30:	e3a03000 	mov	r3, #0
b2003d34:	e3a02003 	mov	r2, #3
b2003d38:	e3a01482 	mov	r1, #-2113929216	; 0x82000000
b2003d3c:	e3a00000 	mov	r0, #0
b2003d40:	ebffff74 	bl	b2003b18 <pte_init>
b2003d44:	e3a034b2 	mov	r3, #-1308622848	; 0xb2000000
b2003d48:	e3a02003 	mov	r2, #3
b2003d4c:	e3a01000 	mov	r1, #0
b2003d50:	e3481210 	movt	r1, #33296	; 0x8210
b2003d54:	e3a00482 	mov	r0, #-2113929216	; 0x82000000
b2003d58:	ebffff6e 	bl	b2003b18 <pte_init>
b2003d5c:	e3a03000 	mov	r3, #0
b2003d60:	e34b3210 	movt	r3, #45584	; 0xb210
b2003d64:	e3a02003 	mov	r2, #3
b2003d68:	e3a01000 	mov	r1, #0
b2003d6c:	e3491df0 	movt	r1, #40432	; 0x9df0
b2003d70:	e3a00000 	mov	r0, #0
b2003d74:	e3480210 	movt	r0, #33296	; 0x8210
b2003d78:	ebffff66 	bl	b2003b18 <pte_init>
b2003d7c:	e3a03000 	mov	r3, #0
b2003d80:	e34c3df0 	movt	r3, #52720	; 0xcdf0
b2003d84:	e3a02003 	mov	r2, #3
b2003d88:	e3a0120a 	mov	r1, #-1610612736	; 0xa0000000
b2003d8c:	e3a00000 	mov	r0, #0
b2003d90:	e3490df0 	movt	r0, #40432	; 0x9df0
b2003d94:	ebffff5f 	bl	b2003b18 <pte_init>
b2003d98:	e320f000 	nop	{0}
b2003d9c:	e8bd8800 	pop	{fp, pc}

b2003da0 <mmu_init>:
b2003da0:	e92d4800 	push	{fp, lr}
b2003da4:	e28db004 	add	fp, sp, #4
b2003da8:	eb00007a 	bl	b2003f98 <disable_dcache>
b2003dac:	eb000080 	bl	b2003fb4 <disable_icache>
b2003db0:	eb00008d 	bl	b2003fec <disable_mmu>
b2003db4:	ebffffdb 	bl	b2003d28 <mem_map>
b2003db8:	eb000039 	bl	b2003ea4 <set_domain>
b2003dbc:	eb000010 	bl	b2003e04 <set_pgt_base>
b2003dc0:	eb000003 	bl	b2003dd4 <enable_mmu>
b2003dc4:	eb000082 	bl	b2003fd4 <enable_icache>
b2003dc8:	eb00007d 	bl	b2003fc4 <enable_dcache>
b2003dcc:	e320f000 	nop	{0}
b2003dd0:	e8bd8800 	pop	{fp, pc}

b2003dd4 <enable_mmu>:
b2003dd4:	e52db004 	push	{fp}		; (str fp, [sp, #-4]!)
b2003dd8:	e28db000 	add	fp, sp, #0
b2003ddc:	e92d0001 	stmfd	sp!, {r0}
b2003de0:	ee110f10 	mrc	15, 0, r0, cr1, cr0, {0}
b2003de4:	e3800001 	orr	r0, r0, #1
b2003de8:	ee010f10 	mcr	15, 0, r0, cr1, cr0, {0}
b2003dec:	f57ff04f 	dsb	sy
b2003df0:	e8bd0001 	ldmfd	sp!, {r0}
b2003df4:	e320f000 	nop	{0}
b2003df8:	e28bd000 	add	sp, fp, #0
b2003dfc:	e49db004 	pop	{fp}		; (ldr fp, [sp], #4)
b2003e00:	e12fff1e 	bx	lr

b2003e04 <set_pgt_base>:
b2003e04:	e92d4800 	push	{fp, lr}
b2003e08:	e28db004 	add	fp, sp, #4
b2003e0c:	e24dd010 	sub	sp, sp, #16
b2003e10:	e3a03801 	mov	r3, #65536	; 0x10000
b2003e14:	e50b3008 	str	r3, [fp, #-8]
b2003e18:	e3083ec4 	movw	r3, #36548	; 0x8ec4
b2003e1c:	e34b3200 	movt	r3, #45568	; 0xb200
b2003e20:	e5933000 	ldr	r3, [r3]
b2003e24:	e1a02003 	mov	r2, r3
b2003e28:	e51b3008 	ldr	r3, [fp, #-8]
b2003e2c:	e0823003 	add	r3, r2, r3
b2003e30:	e2433001 	sub	r3, r3, #1
b2003e34:	e50b300c 	str	r3, [fp, #-12]
b2003e38:	e51b300c 	ldr	r3, [fp, #-12]
b2003e3c:	e51b1008 	ldr	r1, [fp, #-8]
b2003e40:	e1a00003 	mov	r0, r3
b2003e44:	eb001014 	bl	b2007e9c <__aeabi_uidivmod>
b2003e48:	e1a03001 	mov	r3, r1
b2003e4c:	e1a02003 	mov	r2, r3
b2003e50:	e51b300c 	ldr	r3, [fp, #-12]
b2003e54:	e0433002 	sub	r3, r3, r2
b2003e58:	e50b3010 	str	r3, [fp, #-16]
b2003e5c:	e51b3010 	ldr	r3, [fp, #-16]
b2003e60:	e92d0001 	stmfd	sp!, {r0}
b2003e64:	e1a00003 	mov	r0, r3
b2003e68:	ee023f10 	mcr	15, 0, r3, cr2, cr0, {0}
b2003e6c:	e8bd0001 	ldmfd	sp!, {r0}
b2003e70:	e320f000 	nop	{0}
b2003e74:	e24bd004 	sub	sp, fp, #4
b2003e78:	e8bd8800 	pop	{fp, pc}

b2003e7c <get_pgt_base>:
b2003e7c:	e52db004 	push	{fp}		; (str fp, [sp, #-4]!)
b2003e80:	e28db000 	add	fp, sp, #0
b2003e84:	e24dd00c 	sub	sp, sp, #12
b2003e88:	ee123f10 	mrc	15, 0, r3, cr2, cr0, {0}
b2003e8c:	e50b3008 	str	r3, [fp, #-8]
b2003e90:	e51b3008 	ldr	r3, [fp, #-8]
b2003e94:	e1a00003 	mov	r0, r3
b2003e98:	e28bd000 	add	sp, fp, #0
b2003e9c:	e49db004 	pop	{fp}		; (ldr fp, [sp], #4)
b2003ea0:	e12fff1e 	bx	lr

b2003ea4 <set_domain>:
b2003ea4:	e52db004 	push	{fp}		; (str fp, [sp, #-4]!)
b2003ea8:	e28db000 	add	fp, sp, #0
b2003eac:	e24dd00c 	sub	sp, sp, #12
b2003eb0:	e3a03003 	mov	r3, #3
b2003eb4:	e50b3008 	str	r3, [fp, #-8]
b2003eb8:	e51b3008 	ldr	r3, [fp, #-8]
b2003ebc:	e92d0001 	stmfd	sp!, {r0}
b2003ec0:	e1a00003 	mov	r0, r3
b2003ec4:	ee033f10 	mcr	15, 0, r3, cr3, cr0, {0}
b2003ec8:	e8bd0001 	ldmfd	sp!, {r0}
b2003ecc:	e320f000 	nop	{0}
b2003ed0:	e28bd000 	add	sp, fp, #0
b2003ed4:	e49db004 	pop	{fp}		; (ldr fp, [sp], #4)
b2003ed8:	e12fff1e 	bx	lr

b2003edc <get_domain>:
b2003edc:	e52db004 	push	{fp}		; (str fp, [sp, #-4]!)
b2003ee0:	e28db000 	add	fp, sp, #0
b2003ee4:	e24dd00c 	sub	sp, sp, #12
b2003ee8:	ee133f10 	mrc	15, 0, r3, cr3, cr0, {0}
b2003eec:	e50b3008 	str	r3, [fp, #-8]
b2003ef0:	e51b3008 	ldr	r3, [fp, #-8]
b2003ef4:	e1a00003 	mov	r0, r3
b2003ef8:	e28bd000 	add	sp, fp, #0
b2003efc:	e49db004 	pop	{fp}		; (ldr fp, [sp], #4)
b2003f00:	e12fff1e 	bx	lr

b2003f04 <dcache_clean_flush>:
b2003f04:	e92d0ff0 	push	{r4, r5, r6, r7, r8, r9, sl, fp}
b2003f08:	f57ff05f 	dmb	sy
b2003f0c:	ee300f30 	mrc	15, 1, r0, cr0, cr0, {1}
b2003f10:	e2103407 	ands	r3, r0, #117440512	; 0x7000000
b2003f14:	e1a03ba3 	lsr	r3, r3, #23
b2003f18:	0a00001a 	beq	b2003f88 <finished>
b2003f1c:	e3a0a000 	mov	sl, #0

b2003f20 <loop1>:
b2003f20:	e08a20aa 	add	r2, sl, sl, lsr #1
b2003f24:	e1a01230 	lsr	r1, r0, r2
b2003f28:	e2011007 	and	r1, r1, #7
b2003f2c:	e3510002 	cmp	r1, #2
b2003f30:	ba000011 	blt	b2003f7c <skip>
b2003f34:	ee40af10 	mcr	15, 2, sl, cr0, cr0, {0}
b2003f38:	f57ff06f 	isb	sy
b2003f3c:	ee301f10 	mrc	15, 1, r1, cr0, cr0, {0}
b2003f40:	e2012007 	and	r2, r1, #7
b2003f44:	e2822004 	add	r2, r2, #4
b2003f48:	e59f4094 	ldr	r4, [pc, #148]	; b2003fe4 <_FLD_MAX_WAY>
b2003f4c:	e01441a1 	ands	r4, r4, r1, lsr #3
b2003f50:	e16f5f14 	clz	r5, r4
b2003f54:	e59f708c 	ldr	r7, [pc, #140]	; b2003fe8 <_FLD_MAX_IDX>
b2003f58:	e01776a1 	ands	r7, r7, r1, lsr #13

b2003f5c <loop2>:
b2003f5c:	e1a09004 	mov	r9, r4

b2003f60 <loop3>:
b2003f60:	e18ab519 	orr	fp, sl, r9, lsl r5
b2003f64:	e18bb217 	orr	fp, fp, r7, lsl r2
b2003f68:	ee07bf5e 	mcr	15, 0, fp, cr7, cr14, {2}
b2003f6c:	e2599001 	subs	r9, r9, #1
b2003f70:	aafffffa 	bge	b2003f60 <loop3>
b2003f74:	e2577001 	subs	r7, r7, #1
b2003f78:	aafffff7 	bge	b2003f5c <loop2>

b2003f7c <skip>:
b2003f7c:	e28aa002 	add	sl, sl, #2
b2003f80:	e153000a 	cmp	r3, sl
b2003f84:	caffffe5 	bgt	b2003f20 <loop1>

b2003f88 <finished>:
b2003f88:	f57ff04f 	dsb	sy
b2003f8c:	f57ff06f 	isb	sy
b2003f90:	e8bd0ff0 	pop	{r4, r5, r6, r7, r8, r9, sl, fp}
b2003f94:	e12fff1e 	bx	lr

b2003f98 <disable_dcache>:
b2003f98:	e92d4ff0 	push	{r4, r5, r6, r7, r8, r9, sl, fp, lr}
b2003f9c:	ee110f10 	mrc	15, 0, r0, cr1, cr0, {0}
b2003fa0:	e3c00004 	bic	r0, r0, #4
b2003fa4:	ee010f10 	mcr	15, 0, r0, cr1, cr0, {0}
b2003fa8:	ebffffd5 	bl	b2003f04 <dcache_clean_flush>
b2003fac:	e8bd4ff0 	pop	{r4, r5, r6, r7, r8, r9, sl, fp, lr}
b2003fb0:	e12fff1e 	bx	lr

b2003fb4 <disable_icache>:
b2003fb4:	ee110f10 	mrc	15, 0, r0, cr1, cr0, {0}
b2003fb8:	e3c00a01 	bic	r0, r0, #4096	; 0x1000
b2003fbc:	ee010f10 	mcr	15, 0, r0, cr1, cr0, {0}
b2003fc0:	e12fff1e 	bx	lr

b2003fc4 <enable_dcache>:
b2003fc4:	ee110f10 	mrc	15, 0, r0, cr1, cr0, {0}
b2003fc8:	e3800004 	orr	r0, r0, #4
b2003fcc:	ee010f10 	mcr	15, 0, r0, cr1, cr0, {0}
b2003fd0:	e12fff1e 	bx	lr

b2003fd4 <enable_icache>:
b2003fd4:	ee110f10 	mrc	15, 0, r0, cr1, cr0, {0}
b2003fd8:	e3800a01 	orr	r0, r0, #4096	; 0x1000
b2003fdc:	ee010f10 	mcr	15, 0, r0, cr1, cr0, {0}
b2003fe0:	e12fff1e 	bx	lr

b2003fe4 <_FLD_MAX_WAY>:
b2003fe4:	000003ff 	strdeq	r0, [r0], -pc	; <UNPREDICTABLE>

b2003fe8 <_FLD_MAX_IDX>:
b2003fe8:	000007ff 	strdeq	r0, [r0], -pc	; <UNPREDICTABLE>

b2003fec <disable_mmu>:
b2003fec:	ee080f17 	mcr	15, 0, r0, cr8, cr7, {0}
b2003ff0:	ee110f10 	mrc	15, 0, r0, cr1, cr0, {0}
b2003ff4:	e3c00001 	bic	r0, r0, #1
b2003ff8:	ee010f10 	mcr	15, 0, r0, cr1, cr0, {0}
b2003ffc:	f57ff04f 	dsb	sy
b2004000:	e12fff1e 	bx	lr

b2004004 <usertask0>:
b2004004:	e92d4800 	push	{fp, lr}
b2004008:	e28db004 	add	fp, sp, #4
b200400c:	e24dd008 	sub	sp, sp, #8
b2004010:	e3080748 	movw	r0, #34632	; 0x8748
b2004014:	e34b0200 	movt	r0, #45568	; 0xb200
b2004018:	eb0004f0 	bl	b20053e0 <uprintf>
b200401c:	e3a01000 	mov	r1, #0
b2004020:	e3040084 	movw	r0, #16516	; 0x4084
b2004024:	e34b0200 	movt	r0, #45568	; 0xb200
b2004028:	eb000ea3 	bl	b2007abc <__do_taskCreate>
b200402c:	e3a03000 	mov	r3, #0
b2004030:	e50b3008 	str	r3, [fp, #-8]
b2004034:	e3e03000 	mvn	r3, #0
b2004038:	e50b300c 	str	r3, [fp, #-12]
b200403c:	ea000009 	b	b2004068 <usertask0+0x64>
b2004040:	eb000e8c 	bl	b2007a78 <__gettid>
b2004044:	e50b000c 	str	r0, [fp, #-12]
b2004048:	e51b2008 	ldr	r2, [fp, #-8]
b200404c:	e51b100c 	ldr	r1, [fp, #-12]
b2004050:	e3080760 	movw	r0, #34656	; 0x8760
b2004054:	e34b0200 	movt	r0, #45568	; 0xb200
b2004058:	eb0004e0 	bl	b20053e0 <uprintf>
b200405c:	e51b3008 	ldr	r3, [fp, #-8]
b2004060:	e2833001 	add	r3, r3, #1
b2004064:	e50b3008 	str	r3, [fp, #-8]
b2004068:	e51b3008 	ldr	r3, [fp, #-8]
b200406c:	e3530009 	cmp	r3, #9
b2004070:	dafffff2 	ble	b2004040 <usertask0+0x3c>
b2004074:	eb000e85 	bl	b2007a90 <__exit>
b2004078:	e320f000 	nop	{0}
b200407c:	e24bd004 	sub	sp, fp, #4
b2004080:	e8bd8800 	pop	{fp, pc}

b2004084 <usertask1>:
b2004084:	e92d4800 	push	{fp, lr}
b2004088:	e28db004 	add	fp, sp, #4
b200408c:	e24dd008 	sub	sp, sp, #8
b2004090:	e3080770 	movw	r0, #34672	; 0x8770
b2004094:	e34b0200 	movt	r0, #45568	; 0xb200
b2004098:	eb0004d0 	bl	b20053e0 <uprintf>
b200409c:	e3a01000 	mov	r1, #0
b20040a0:	e3040104 	movw	r0, #16644	; 0x4104
b20040a4:	e34b0200 	movt	r0, #45568	; 0xb200
b20040a8:	eb000e83 	bl	b2007abc <__do_taskCreate>
b20040ac:	e3a03000 	mov	r3, #0
b20040b0:	e50b3008 	str	r3, [fp, #-8]
b20040b4:	e3e03000 	mvn	r3, #0
b20040b8:	e50b300c 	str	r3, [fp, #-12]
b20040bc:	ea000009 	b	b20040e8 <usertask1+0x64>
b20040c0:	eb000e6c 	bl	b2007a78 <__gettid>
b20040c4:	e50b000c 	str	r0, [fp, #-12]
b20040c8:	e51b2008 	ldr	r2, [fp, #-8]
b20040cc:	e51b100c 	ldr	r1, [fp, #-12]
b20040d0:	e3080760 	movw	r0, #34656	; 0x8760
b20040d4:	e34b0200 	movt	r0, #45568	; 0xb200
b20040d8:	eb0004c0 	bl	b20053e0 <uprintf>
b20040dc:	e51b3008 	ldr	r3, [fp, #-8]
b20040e0:	e2833001 	add	r3, r3, #1
b20040e4:	e50b3008 	str	r3, [fp, #-8]
b20040e8:	e51b3008 	ldr	r3, [fp, #-8]
b20040ec:	e3530009 	cmp	r3, #9
b20040f0:	dafffff2 	ble	b20040c0 <usertask1+0x3c>
b20040f4:	eb000e65 	bl	b2007a90 <__exit>
b20040f8:	e320f000 	nop	{0}
b20040fc:	e24bd004 	sub	sp, fp, #4
b2004100:	e8bd8800 	pop	{fp, pc}

b2004104 <usertask2>:
b2004104:	e92d4800 	push	{fp, lr}
b2004108:	e28db004 	add	fp, sp, #4
b200410c:	e24dd008 	sub	sp, sp, #8
b2004110:	e3080788 	movw	r0, #34696	; 0x8788
b2004114:	e34b0200 	movt	r0, #45568	; 0xb200
b2004118:	eb0004b0 	bl	b20053e0 <uprintf>
b200411c:	e3a01000 	mov	r1, #0
b2004120:	e3040184 	movw	r0, #16772	; 0x4184
b2004124:	e34b0200 	movt	r0, #45568	; 0xb200
b2004128:	eb000e63 	bl	b2007abc <__do_taskCreate>
b200412c:	e3a03000 	mov	r3, #0
b2004130:	e50b3008 	str	r3, [fp, #-8]
b2004134:	e3e03000 	mvn	r3, #0
b2004138:	e50b300c 	str	r3, [fp, #-12]
b200413c:	ea000009 	b	b2004168 <usertask2+0x64>
b2004140:	eb000e4c 	bl	b2007a78 <__gettid>
b2004144:	e50b000c 	str	r0, [fp, #-12]
b2004148:	e51b2008 	ldr	r2, [fp, #-8]
b200414c:	e51b100c 	ldr	r1, [fp, #-12]
b2004150:	e3080760 	movw	r0, #34656	; 0x8760
b2004154:	e34b0200 	movt	r0, #45568	; 0xb200
b2004158:	eb0004a0 	bl	b20053e0 <uprintf>
b200415c:	e51b3008 	ldr	r3, [fp, #-8]
b2004160:	e2833001 	add	r3, r3, #1
b2004164:	e50b3008 	str	r3, [fp, #-8]
b2004168:	e51b3008 	ldr	r3, [fp, #-8]
b200416c:	e3530009 	cmp	r3, #9
b2004170:	dafffff2 	ble	b2004140 <usertask2+0x3c>
b2004174:	eb000e45 	bl	b2007a90 <__exit>
b2004178:	e320f000 	nop	{0}
b200417c:	e24bd004 	sub	sp, fp, #4
b2004180:	e8bd8800 	pop	{fp, pc}

b2004184 <usertask3>:
b2004184:	e92d4800 	push	{fp, lr}
b2004188:	e28db004 	add	fp, sp, #4
b200418c:	e24dd008 	sub	sp, sp, #8
b2004190:	e30807a0 	movw	r0, #34720	; 0x87a0
b2004194:	e34b0200 	movt	r0, #45568	; 0xb200
b2004198:	eb000490 	bl	b20053e0 <uprintf>
b200419c:	e3a01000 	mov	r1, #0
b20041a0:	e3040204 	movw	r0, #16900	; 0x4204
b20041a4:	e34b0200 	movt	r0, #45568	; 0xb200
b20041a8:	eb000e43 	bl	b2007abc <__do_taskCreate>
b20041ac:	e3a03000 	mov	r3, #0
b20041b0:	e50b3008 	str	r3, [fp, #-8]
b20041b4:	e3e03000 	mvn	r3, #0
b20041b8:	e50b300c 	str	r3, [fp, #-12]
b20041bc:	ea000009 	b	b20041e8 <usertask3+0x64>
b20041c0:	eb000e2c 	bl	b2007a78 <__gettid>
b20041c4:	e50b000c 	str	r0, [fp, #-12]
b20041c8:	e51b2008 	ldr	r2, [fp, #-8]
b20041cc:	e51b100c 	ldr	r1, [fp, #-12]
b20041d0:	e3080760 	movw	r0, #34656	; 0x8760
b20041d4:	e34b0200 	movt	r0, #45568	; 0xb200
b20041d8:	eb000480 	bl	b20053e0 <uprintf>
b20041dc:	e51b3008 	ldr	r3, [fp, #-8]
b20041e0:	e2833001 	add	r3, r3, #1
b20041e4:	e50b3008 	str	r3, [fp, #-8]
b20041e8:	e51b3008 	ldr	r3, [fp, #-8]
b20041ec:	e3530009 	cmp	r3, #9
b20041f0:	dafffff2 	ble	b20041c0 <usertask3+0x3c>
b20041f4:	eb000e25 	bl	b2007a90 <__exit>
b20041f8:	e320f000 	nop	{0}
b20041fc:	e24bd004 	sub	sp, fp, #4
b2004200:	e8bd8800 	pop	{fp, pc}

b2004204 <usertask4>:
b2004204:	e92d4800 	push	{fp, lr}
b2004208:	e28db004 	add	fp, sp, #4
b200420c:	e24dd008 	sub	sp, sp, #8
b2004210:	e30807b8 	movw	r0, #34744	; 0x87b8
b2004214:	e34b0200 	movt	r0, #45568	; 0xb200
b2004218:	eb000470 	bl	b20053e0 <uprintf>
b200421c:	e3a03000 	mov	r3, #0
b2004220:	e50b3008 	str	r3, [fp, #-8]
b2004224:	e3e03000 	mvn	r3, #0
b2004228:	e50b300c 	str	r3, [fp, #-12]
b200422c:	ea000009 	b	b2004258 <usertask4+0x54>
b2004230:	eb000e10 	bl	b2007a78 <__gettid>
b2004234:	e50b000c 	str	r0, [fp, #-12]
b2004238:	e51b2008 	ldr	r2, [fp, #-8]
b200423c:	e51b100c 	ldr	r1, [fp, #-12]
b2004240:	e3080760 	movw	r0, #34656	; 0x8760
b2004244:	e34b0200 	movt	r0, #45568	; 0xb200
b2004248:	eb000464 	bl	b20053e0 <uprintf>
b200424c:	e51b3008 	ldr	r3, [fp, #-8]
b2004250:	e2833001 	add	r3, r3, #1
b2004254:	e50b3008 	str	r3, [fp, #-8]
b2004258:	e51b3008 	ldr	r3, [fp, #-8]
b200425c:	e3530009 	cmp	r3, #9
b2004260:	dafffff2 	ble	b2004230 <usertask4+0x2c>
b2004264:	eb000e09 	bl	b2007a90 <__exit>
b2004268:	e320f000 	nop	{0}
b200426c:	e24bd004 	sub	sp, fp, #4
b2004270:	e8bd8800 	pop	{fp, pc}

b2004274 <multitasking_test_main>:
b2004274:	e92d4800 	push	{fp, lr}
b2004278:	e28db004 	add	fp, sp, #4
b200427c:	e24dd008 	sub	sp, sp, #8
b2004280:	e30807d0 	movw	r0, #34768	; 0x87d0
b2004284:	e34b0200 	movt	r0, #45568	; 0xb200
b2004288:	eb000454 	bl	b20053e0 <uprintf>
b200428c:	e30807fc 	movw	r0, #34812	; 0x87fc
b2004290:	e34b0200 	movt	r0, #45568	; 0xb200
b2004294:	eb000451 	bl	b20053e0 <uprintf>
b2004298:	e3a01000 	mov	r1, #0
b200429c:	e3040004 	movw	r0, #16388	; 0x4004
b20042a0:	e34b0200 	movt	r0, #45568	; 0xb200
b20042a4:	eb000e04 	bl	b2007abc <__do_taskCreate>
b20042a8:	e3a03000 	mov	r3, #0
b20042ac:	e50b3008 	str	r3, [fp, #-8]
b20042b0:	ea000002 	b	b20042c0 <multitasking_test_main+0x4c>
b20042b4:	e51b3008 	ldr	r3, [fp, #-8]
b20042b8:	e2833001 	add	r3, r3, #1
b20042bc:	e50b3008 	str	r3, [fp, #-8]
b20042c0:	e51b2008 	ldr	r2, [fp, #-8]
b20042c4:	e3003d3f 	movw	r3, #3391	; 0xd3f
b20042c8:	e3403003 	movt	r3, #3
b20042cc:	e1520003 	cmp	r2, r3
b20042d0:	dafffff7 	ble	b20042b4 <multitasking_test_main+0x40>
b20042d4:	e3a03000 	mov	r3, #0
b20042d8:	e1a00003 	mov	r0, r3
b20042dc:	e24bd004 	sub	sp, fp, #4
b20042e0:	e8bd8800 	pop	{fp, pc}

b20042e4 <tty0_test>:
b20042e4:	e92d4800 	push	{fp, lr}
b20042e8:	e28db004 	add	fp, sp, #4
b20042ec:	e24dd008 	sub	sp, sp, #8
b20042f0:	eb000de0 	bl	b2007a78 <__gettid>
b20042f4:	e1a03000 	mov	r3, r0
b20042f8:	e1a01003 	mov	r1, r3
b20042fc:	e3080818 	movw	r0, #34840	; 0x8818
b2004300:	e34b0200 	movt	r0, #45568	; 0xb200
b2004304:	eb000435 	bl	b20053e0 <uprintf>
b2004308:	e3080834 	movw	r0, #34868	; 0x8834
b200430c:	e34b0200 	movt	r0, #45568	; 0xb200
b2004310:	eb000e39 	bl	b2007bfc <__open>
b2004314:	e50b0008 	str	r0, [fp, #-8]
b2004318:	e51b3008 	ldr	r3, [fp, #-8]
b200431c:	e3530000 	cmp	r3, #0
b2004320:	aa000004 	bge	b2004338 <tty0_test+0x54>
b2004324:	e51b1008 	ldr	r1, [fp, #-8]
b2004328:	e308083c 	movw	r0, #34876	; 0x883c
b200432c:	e34b0200 	movt	r0, #45568	; 0xb200
b2004330:	ebfff901 	bl	b200273c <printk>
b2004334:	eafffffe 	b	b2004334 <tty0_test+0x50>
b2004338:	e51b1008 	ldr	r1, [fp, #-8]
b200433c:	e3080854 	movw	r0, #34900	; 0x8854
b2004340:	e34b0200 	movt	r0, #45568	; 0xb200
b2004344:	ebfff8fc 	bl	b200273c <printk>
b2004348:	e3a02012 	mov	r2, #18
b200434c:	e3081878 	movw	r1, #34936	; 0x8878
b2004350:	e34b1200 	movt	r1, #45568	; 0xb200
b2004354:	e51b0008 	ldr	r0, [fp, #-8]
b2004358:	eb000e01 	bl	b2007b64 <__write>
b200435c:	eb000dcb 	bl	b2007a90 <__exit>
b2004360:	e320f000 	nop	{0}
b2004364:	e24bd004 	sub	sp, fp, #4
b2004368:	e8bd8800 	pop	{fp, pc}

b200436c <tty0_test_main>:
b200436c:	e92d4800 	push	{fp, lr}
b2004370:	e28db004 	add	fp, sp, #4
b2004374:	e308088c 	movw	r0, #34956	; 0x888c
b2004378:	e34b0200 	movt	r0, #45568	; 0xb200
b200437c:	eb000417 	bl	b20053e0 <uprintf>
b2004380:	e30808b8 	movw	r0, #35000	; 0x88b8
b2004384:	e34b0200 	movt	r0, #45568	; 0xb200
b2004388:	eb000414 	bl	b20053e0 <uprintf>
b200438c:	e3a01000 	mov	r1, #0
b2004390:	e30402e4 	movw	r0, #17124	; 0x42e4
b2004394:	e34b0200 	movt	r0, #45568	; 0xb200
b2004398:	eb000dc7 	bl	b2007abc <__do_taskCreate>
b200439c:	e3a03000 	mov	r3, #0
b20043a0:	e1a00003 	mov	r0, r3
b20043a4:	e8bd8800 	pop	{fp, pc}

b20043a8 <prio_test1>:
b20043a8:	e92d4800 	push	{fp, lr}
b20043ac:	e28db004 	add	fp, sp, #4
b20043b0:	e24dd010 	sub	sp, sp, #16
b20043b4:	e3a01003 	mov	r1, #3
b20043b8:	e3040430 	movw	r0, #17456	; 0x4430
b20043bc:	e34b0200 	movt	r0, #45568	; 0xb200
b20043c0:	eb000dbd 	bl	b2007abc <__do_taskCreate>
b20043c4:	e3a03001 	mov	r3, #1
b20043c8:	e50b3008 	str	r3, [fp, #-8]
b20043cc:	e3e03000 	mvn	r3, #0
b20043d0:	e50b300c 	str	r3, [fp, #-12]
b20043d4:	e3e03000 	mvn	r3, #0
b20043d8:	e50b3010 	str	r3, [fp, #-16]
b20043dc:	ea00000c 	b	b2004414 <prio_test1+0x6c>
b20043e0:	eb000da4 	bl	b2007a78 <__gettid>
b20043e4:	e50b000c 	str	r0, [fp, #-12]
b20043e8:	eb000dd7 	bl	b2007b4c <__get_task_priority>
b20043ec:	e50b0010 	str	r0, [fp, #-16]
b20043f0:	e51b3008 	ldr	r3, [fp, #-8]
b20043f4:	e51b2010 	ldr	r2, [fp, #-16]
b20043f8:	e51b100c 	ldr	r1, [fp, #-12]
b20043fc:	e30808d0 	movw	r0, #35024	; 0x88d0
b2004400:	e34b0200 	movt	r0, #45568	; 0xb200
b2004404:	eb0003f5 	bl	b20053e0 <uprintf>
b2004408:	e51b3008 	ldr	r3, [fp, #-8]
b200440c:	e2833001 	add	r3, r3, #1
b2004410:	e50b3008 	str	r3, [fp, #-8]
b2004414:	e51b3008 	ldr	r3, [fp, #-8]
b2004418:	e3530004 	cmp	r3, #4
b200441c:	daffffef 	ble	b20043e0 <prio_test1+0x38>
b2004420:	eb000d9a 	bl	b2007a90 <__exit>
b2004424:	e320f000 	nop	{0}
b2004428:	e24bd004 	sub	sp, fp, #4
b200442c:	e8bd8800 	pop	{fp, pc}

b2004430 <prio_test2>:
b2004430:	e92d4800 	push	{fp, lr}
b2004434:	e28db004 	add	fp, sp, #4
b2004438:	e24dd010 	sub	sp, sp, #16
b200443c:	e3a03001 	mov	r3, #1
b2004440:	e50b3008 	str	r3, [fp, #-8]
b2004444:	e3e03000 	mvn	r3, #0
b2004448:	e50b300c 	str	r3, [fp, #-12]
b200444c:	e3e03000 	mvn	r3, #0
b2004450:	e50b3010 	str	r3, [fp, #-16]
b2004454:	ea000013 	b	b20044a8 <prio_test2+0x78>
b2004458:	eb000d86 	bl	b2007a78 <__gettid>
b200445c:	e50b000c 	str	r0, [fp, #-12]
b2004460:	eb000db9 	bl	b2007b4c <__get_task_priority>
b2004464:	e50b0010 	str	r0, [fp, #-16]
b2004468:	e51b3008 	ldr	r3, [fp, #-8]
b200446c:	e51b2010 	ldr	r2, [fp, #-16]
b2004470:	e51b100c 	ldr	r1, [fp, #-12]
b2004474:	e30808d0 	movw	r0, #35024	; 0x88d0
b2004478:	e34b0200 	movt	r0, #45568	; 0xb200
b200447c:	eb0003d7 	bl	b20053e0 <uprintf>
b2004480:	e51b3008 	ldr	r3, [fp, #-8]
b2004484:	e3530002 	cmp	r3, #2
b2004488:	1a000003 	bne	b200449c <prio_test2+0x6c>
b200448c:	e3a01002 	mov	r1, #2
b2004490:	e30404c4 	movw	r0, #17604	; 0x44c4
b2004494:	e34b0200 	movt	r0, #45568	; 0xb200
b2004498:	eb000d87 	bl	b2007abc <__do_taskCreate>
b200449c:	e51b3008 	ldr	r3, [fp, #-8]
b20044a0:	e2833001 	add	r3, r3, #1
b20044a4:	e50b3008 	str	r3, [fp, #-8]
b20044a8:	e51b3008 	ldr	r3, [fp, #-8]
b20044ac:	e3530004 	cmp	r3, #4
b20044b0:	daffffe8 	ble	b2004458 <prio_test2+0x28>
b20044b4:	eb000d75 	bl	b2007a90 <__exit>
b20044b8:	e320f000 	nop	{0}
b20044bc:	e24bd004 	sub	sp, fp, #4
b20044c0:	e8bd8800 	pop	{fp, pc}

b20044c4 <prio_test3>:
b20044c4:	e92d4800 	push	{fp, lr}
b20044c8:	e28db004 	add	fp, sp, #4
b20044cc:	e24dd010 	sub	sp, sp, #16
b20044d0:	e3a01002 	mov	r1, #2
b20044d4:	e304054c 	movw	r0, #17740	; 0x454c
b20044d8:	e34b0200 	movt	r0, #45568	; 0xb200
b20044dc:	eb000d76 	bl	b2007abc <__do_taskCreate>
b20044e0:	e3a03001 	mov	r3, #1
b20044e4:	e50b3008 	str	r3, [fp, #-8]
b20044e8:	e3e03000 	mvn	r3, #0
b20044ec:	e50b300c 	str	r3, [fp, #-12]
b20044f0:	e3e03000 	mvn	r3, #0
b20044f4:	e50b3010 	str	r3, [fp, #-16]
b20044f8:	ea00000c 	b	b2004530 <prio_test3+0x6c>
b20044fc:	eb000d5d 	bl	b2007a78 <__gettid>
b2004500:	e50b000c 	str	r0, [fp, #-12]
b2004504:	eb000d90 	bl	b2007b4c <__get_task_priority>
b2004508:	e50b0010 	str	r0, [fp, #-16]
b200450c:	e51b3008 	ldr	r3, [fp, #-8]
b2004510:	e51b2010 	ldr	r2, [fp, #-16]
b2004514:	e51b100c 	ldr	r1, [fp, #-12]
b2004518:	e30808d0 	movw	r0, #35024	; 0x88d0
b200451c:	e34b0200 	movt	r0, #45568	; 0xb200
b2004520:	eb0003ae 	bl	b20053e0 <uprintf>
b2004524:	e51b3008 	ldr	r3, [fp, #-8]
b2004528:	e2833001 	add	r3, r3, #1
b200452c:	e50b3008 	str	r3, [fp, #-8]
b2004530:	e51b3008 	ldr	r3, [fp, #-8]
b2004534:	e3530004 	cmp	r3, #4
b2004538:	daffffef 	ble	b20044fc <prio_test3+0x38>
b200453c:	eb000d53 	bl	b2007a90 <__exit>
b2004540:	e320f000 	nop	{0}
b2004544:	e24bd004 	sub	sp, fp, #4
b2004548:	e8bd8800 	pop	{fp, pc}

b200454c <prio_test4>:
b200454c:	e92d4800 	push	{fp, lr}
b2004550:	e28db004 	add	fp, sp, #4
b2004554:	e24dd010 	sub	sp, sp, #16
b2004558:	e3a03001 	mov	r3, #1
b200455c:	e50b3008 	str	r3, [fp, #-8]
b2004560:	e3e03000 	mvn	r3, #0
b2004564:	e50b300c 	str	r3, [fp, #-12]
b2004568:	e3e03000 	mvn	r3, #0
b200456c:	e50b3010 	str	r3, [fp, #-16]
b2004570:	ea000013 	b	b20045c4 <prio_test4+0x78>
b2004574:	eb000d3f 	bl	b2007a78 <__gettid>
b2004578:	e50b000c 	str	r0, [fp, #-12]
b200457c:	eb000d72 	bl	b2007b4c <__get_task_priority>
b2004580:	e50b0010 	str	r0, [fp, #-16]
b2004584:	e51b3008 	ldr	r3, [fp, #-8]
b2004588:	e51b2010 	ldr	r2, [fp, #-16]
b200458c:	e51b100c 	ldr	r1, [fp, #-12]
b2004590:	e30808d0 	movw	r0, #35024	; 0x88d0
b2004594:	e34b0200 	movt	r0, #45568	; 0xb200
b2004598:	eb000390 	bl	b20053e0 <uprintf>
b200459c:	e51b3008 	ldr	r3, [fp, #-8]
b20045a0:	e3530001 	cmp	r3, #1
b20045a4:	1a000003 	bne	b20045b8 <prio_test4+0x6c>
b20045a8:	e3a01001 	mov	r1, #1
b20045ac:	e30405e0 	movw	r0, #17888	; 0x45e0
b20045b0:	e34b0200 	movt	r0, #45568	; 0xb200
b20045b4:	eb000d40 	bl	b2007abc <__do_taskCreate>
b20045b8:	e51b3008 	ldr	r3, [fp, #-8]
b20045bc:	e2833001 	add	r3, r3, #1
b20045c0:	e50b3008 	str	r3, [fp, #-8]
b20045c4:	e51b3008 	ldr	r3, [fp, #-8]
b20045c8:	e3530004 	cmp	r3, #4
b20045cc:	daffffe8 	ble	b2004574 <prio_test4+0x28>
b20045d0:	eb000d2e 	bl	b2007a90 <__exit>
b20045d4:	e320f000 	nop	{0}
b20045d8:	e24bd004 	sub	sp, fp, #4
b20045dc:	e8bd8800 	pop	{fp, pc}

b20045e0 <prio_test5>:
b20045e0:	e92d4800 	push	{fp, lr}
b20045e4:	e28db004 	add	fp, sp, #4
b20045e8:	e24dd010 	sub	sp, sp, #16
b20045ec:	e3a01001 	mov	r1, #1
b20045f0:	e3040668 	movw	r0, #18024	; 0x4668
b20045f4:	e34b0200 	movt	r0, #45568	; 0xb200
b20045f8:	eb000d2f 	bl	b2007abc <__do_taskCreate>
b20045fc:	e3a03001 	mov	r3, #1
b2004600:	e50b3008 	str	r3, [fp, #-8]
b2004604:	e3e03000 	mvn	r3, #0
b2004608:	e50b300c 	str	r3, [fp, #-12]
b200460c:	e3e03000 	mvn	r3, #0
b2004610:	e50b3010 	str	r3, [fp, #-16]
b2004614:	ea00000c 	b	b200464c <prio_test5+0x6c>
b2004618:	eb000d16 	bl	b2007a78 <__gettid>
b200461c:	e50b000c 	str	r0, [fp, #-12]
b2004620:	eb000d49 	bl	b2007b4c <__get_task_priority>
b2004624:	e50b0010 	str	r0, [fp, #-16]
b2004628:	e51b3008 	ldr	r3, [fp, #-8]
b200462c:	e51b2010 	ldr	r2, [fp, #-16]
b2004630:	e51b100c 	ldr	r1, [fp, #-12]
b2004634:	e30808d0 	movw	r0, #35024	; 0x88d0
b2004638:	e34b0200 	movt	r0, #45568	; 0xb200
b200463c:	eb000367 	bl	b20053e0 <uprintf>
b2004640:	e51b3008 	ldr	r3, [fp, #-8]
b2004644:	e2833001 	add	r3, r3, #1
b2004648:	e50b3008 	str	r3, [fp, #-8]
b200464c:	e51b3008 	ldr	r3, [fp, #-8]
b2004650:	e3530004 	cmp	r3, #4
b2004654:	daffffef 	ble	b2004618 <prio_test5+0x38>
b2004658:	eb000d0c 	bl	b2007a90 <__exit>
b200465c:	e320f000 	nop	{0}
b2004660:	e24bd004 	sub	sp, fp, #4
b2004664:	e8bd8800 	pop	{fp, pc}

b2004668 <prio_test6>:
b2004668:	e92d4800 	push	{fp, lr}
b200466c:	e28db004 	add	fp, sp, #4
b2004670:	e24dd010 	sub	sp, sp, #16
b2004674:	e3a01001 	mov	r1, #1
b2004678:	e30406f0 	movw	r0, #18160	; 0x46f0
b200467c:	e34b0200 	movt	r0, #45568	; 0xb200
b2004680:	eb000d0d 	bl	b2007abc <__do_taskCreate>
b2004684:	e3a03001 	mov	r3, #1
b2004688:	e50b3008 	str	r3, [fp, #-8]
b200468c:	e3e03000 	mvn	r3, #0
b2004690:	e50b300c 	str	r3, [fp, #-12]
b2004694:	e3e03000 	mvn	r3, #0
b2004698:	e50b3010 	str	r3, [fp, #-16]
b200469c:	ea00000c 	b	b20046d4 <prio_test6+0x6c>
b20046a0:	eb000cf4 	bl	b2007a78 <__gettid>
b20046a4:	e50b000c 	str	r0, [fp, #-12]
b20046a8:	eb000d27 	bl	b2007b4c <__get_task_priority>
b20046ac:	e50b0010 	str	r0, [fp, #-16]
b20046b0:	e51b3008 	ldr	r3, [fp, #-8]
b20046b4:	e51b2010 	ldr	r2, [fp, #-16]
b20046b8:	e51b100c 	ldr	r1, [fp, #-12]
b20046bc:	e30808d0 	movw	r0, #35024	; 0x88d0
b20046c0:	e34b0200 	movt	r0, #45568	; 0xb200
b20046c4:	eb000345 	bl	b20053e0 <uprintf>
b20046c8:	e51b3008 	ldr	r3, [fp, #-8]
b20046cc:	e2833001 	add	r3, r3, #1
b20046d0:	e50b3008 	str	r3, [fp, #-8]
b20046d4:	e51b3008 	ldr	r3, [fp, #-8]
b20046d8:	e3530004 	cmp	r3, #4
b20046dc:	daffffef 	ble	b20046a0 <prio_test6+0x38>
b20046e0:	eb000cea 	bl	b2007a90 <__exit>
b20046e4:	e320f000 	nop	{0}
b20046e8:	e24bd004 	sub	sp, fp, #4
b20046ec:	e8bd8800 	pop	{fp, pc}

b20046f0 <prio_test7>:
b20046f0:	e92d4800 	push	{fp, lr}
b20046f4:	e28db004 	add	fp, sp, #4
b20046f8:	e24dd010 	sub	sp, sp, #16
b20046fc:	e3a03001 	mov	r3, #1
b2004700:	e50b3008 	str	r3, [fp, #-8]
b2004704:	e3e03000 	mvn	r3, #0
b2004708:	e50b300c 	str	r3, [fp, #-12]
b200470c:	e3e03000 	mvn	r3, #0
b2004710:	e50b3010 	str	r3, [fp, #-16]
b2004714:	ea000013 	b	b2004768 <prio_test7+0x78>
b2004718:	eb000cd6 	bl	b2007a78 <__gettid>
b200471c:	e50b000c 	str	r0, [fp, #-12]
b2004720:	eb000d09 	bl	b2007b4c <__get_task_priority>
b2004724:	e50b0010 	str	r0, [fp, #-16]
b2004728:	e51b3008 	ldr	r3, [fp, #-8]
b200472c:	e51b2010 	ldr	r2, [fp, #-16]
b2004730:	e51b100c 	ldr	r1, [fp, #-12]
b2004734:	e30808d0 	movw	r0, #35024	; 0x88d0
b2004738:	e34b0200 	movt	r0, #45568	; 0xb200
b200473c:	eb000327 	bl	b20053e0 <uprintf>
b2004740:	e51b3008 	ldr	r3, [fp, #-8]
b2004744:	e3530001 	cmp	r3, #1
b2004748:	1a000003 	bne	b200475c <prio_test7+0x6c>
b200474c:	e3a01000 	mov	r1, #0
b2004750:	e3040784 	movw	r0, #18308	; 0x4784
b2004754:	e34b0200 	movt	r0, #45568	; 0xb200
b2004758:	eb000cd7 	bl	b2007abc <__do_taskCreate>
b200475c:	e51b3008 	ldr	r3, [fp, #-8]
b2004760:	e2833001 	add	r3, r3, #1
b2004764:	e50b3008 	str	r3, [fp, #-8]
b2004768:	e51b3008 	ldr	r3, [fp, #-8]
b200476c:	e3530004 	cmp	r3, #4
b2004770:	daffffe8 	ble	b2004718 <prio_test7+0x28>
b2004774:	eb000cc5 	bl	b2007a90 <__exit>
b2004778:	e320f000 	nop	{0}
b200477c:	e24bd004 	sub	sp, fp, #4
b2004780:	e8bd8800 	pop	{fp, pc}

b2004784 <prio_test8>:
b2004784:	e92d4800 	push	{fp, lr}
b2004788:	e28db004 	add	fp, sp, #4
b200478c:	e24dd010 	sub	sp, sp, #16
b2004790:	e3a03001 	mov	r3, #1
b2004794:	e50b3008 	str	r3, [fp, #-8]
b2004798:	e3e03000 	mvn	r3, #0
b200479c:	e50b300c 	str	r3, [fp, #-12]
b20047a0:	e3e03000 	mvn	r3, #0
b20047a4:	e50b3010 	str	r3, [fp, #-16]
b20047a8:	ea00000c 	b	b20047e0 <prio_test8+0x5c>
b20047ac:	eb000cb1 	bl	b2007a78 <__gettid>
b20047b0:	e50b000c 	str	r0, [fp, #-12]
b20047b4:	eb000ce4 	bl	b2007b4c <__get_task_priority>
b20047b8:	e50b0010 	str	r0, [fp, #-16]
b20047bc:	e51b3008 	ldr	r3, [fp, #-8]
b20047c0:	e51b2010 	ldr	r2, [fp, #-16]
b20047c4:	e51b100c 	ldr	r1, [fp, #-12]
b20047c8:	e30808d0 	movw	r0, #35024	; 0x88d0
b20047cc:	e34b0200 	movt	r0, #45568	; 0xb200
b20047d0:	eb000302 	bl	b20053e0 <uprintf>
b20047d4:	e51b3008 	ldr	r3, [fp, #-8]
b20047d8:	e2833001 	add	r3, r3, #1
b20047dc:	e50b3008 	str	r3, [fp, #-8]
b20047e0:	e51b3008 	ldr	r3, [fp, #-8]
b20047e4:	e3530004 	cmp	r3, #4
b20047e8:	daffffef 	ble	b20047ac <prio_test8+0x28>
b20047ec:	eb000ca7 	bl	b2007a90 <__exit>
b20047f0:	e320f000 	nop	{0}
b20047f4:	e24bd004 	sub	sp, fp, #4
b20047f8:	e8bd8800 	pop	{fp, pc}

b20047fc <priority_test_main>:
b20047fc:	e92d4800 	push	{fp, lr}
b2004800:	e28db004 	add	fp, sp, #4
b2004804:	e24dd008 	sub	sp, sp, #8
b2004808:	e30808e8 	movw	r0, #35048	; 0x88e8
b200480c:	e34b0200 	movt	r0, #45568	; 0xb200
b2004810:	eb0002f2 	bl	b20053e0 <uprintf>
b2004814:	e3080914 	movw	r0, #35092	; 0x8914
b2004818:	e34b0200 	movt	r0, #45568	; 0xb200
b200481c:	eb0002ef 	bl	b20053e0 <uprintf>
b2004820:	e3a01003 	mov	r1, #3
b2004824:	e30403a8 	movw	r0, #17320	; 0x43a8
b2004828:	e34b0200 	movt	r0, #45568	; 0xb200
b200482c:	eb000ca2 	bl	b2007abc <__do_taskCreate>
b2004830:	e3a03000 	mov	r3, #0
b2004834:	e50b3008 	str	r3, [fp, #-8]
b2004838:	ea000002 	b	b2004848 <priority_test_main+0x4c>
b200483c:	e51b3008 	ldr	r3, [fp, #-8]
b2004840:	e2833001 	add	r3, r3, #1
b2004844:	e50b3008 	str	r3, [fp, #-8]
b2004848:	e51b2008 	ldr	r2, [fp, #-8]
b200484c:	e308369f 	movw	r3, #34463	; 0x869f
b2004850:	e3403001 	movt	r3, #1
b2004854:	e1520003 	cmp	r2, r3
b2004858:	dafffff7 	ble	b200483c <priority_test_main+0x40>
b200485c:	e3a03000 	mov	r3, #0
b2004860:	e1a00003 	mov	r0, r3
b2004864:	e24bd004 	sub	sp, fp, #4
b2004868:	e8bd8800 	pop	{fp, pc}

b200486c <queueInit>:
b200486c:	e52db004 	push	{fp}		; (str fp, [sp, #-4]!)
b2004870:	e28db000 	add	fp, sp, #0
b2004874:	e24dd014 	sub	sp, sp, #20
b2004878:	e50b0010 	str	r0, [fp, #-16]
b200487c:	e50b1014 	str	r1, [fp, #-20]	; 0xffffffec
b2004880:	e51b3010 	ldr	r3, [fp, #-16]
b2004884:	e3a02000 	mov	r2, #0
b2004888:	e5832004 	str	r2, [r3, #4]
b200488c:	e51b3010 	ldr	r3, [fp, #-16]
b2004890:	e3a02000 	mov	r2, #0
b2004894:	e5832008 	str	r2, [r3, #8]
b2004898:	e51b3010 	ldr	r3, [fp, #-16]
b200489c:	e3a02000 	mov	r2, #0
b20048a0:	e583200c 	str	r2, [r3, #12]
b20048a4:	e51b3010 	ldr	r3, [fp, #-16]
b20048a8:	e51b2014 	ldr	r2, [fp, #-20]	; 0xffffffec
b20048ac:	e5832000 	str	r2, [r3]
b20048b0:	e3a03000 	mov	r3, #0
b20048b4:	e50b3008 	str	r3, [fp, #-8]
b20048b8:	ea000007 	b	b20048dc <queueInit+0x70>
b20048bc:	e51b3010 	ldr	r3, [fp, #-16]
b20048c0:	e51b2008 	ldr	r2, [fp, #-8]
b20048c4:	e2822004 	add	r2, r2, #4
b20048c8:	e3a01000 	mov	r1, #0
b20048cc:	e7831102 	str	r1, [r3, r2, lsl #2]
b20048d0:	e51b3008 	ldr	r3, [fp, #-8]
b20048d4:	e2833001 	add	r3, r3, #1
b20048d8:	e50b3008 	str	r3, [fp, #-8]
b20048dc:	e51b2008 	ldr	r2, [fp, #-8]
b20048e0:	e51b3014 	ldr	r3, [fp, #-20]	; 0xffffffec
b20048e4:	e1520003 	cmp	r2, r3
b20048e8:	bafffff3 	blt	b20048bc <queueInit+0x50>
b20048ec:	e320f000 	nop	{0}
b20048f0:	e320f000 	nop	{0}
b20048f4:	e28bd000 	add	sp, fp, #0
b20048f8:	e49db004 	pop	{fp}		; (ldr fp, [sp], #4)
b20048fc:	e12fff1e 	bx	lr

b2004900 <queueDelete>:
b2004900:	e52db004 	push	{fp}		; (str fp, [sp, #-4]!)
b2004904:	e28db000 	add	fp, sp, #0
b2004908:	e24dd00c 	sub	sp, sp, #12
b200490c:	e50b0008 	str	r0, [fp, #-8]
b2004910:	e320f000 	nop	{0}
b2004914:	e28bd000 	add	sp, fp, #0
b2004918:	e49db004 	pop	{fp}		; (ldr fp, [sp], #4)
b200491c:	e12fff1e 	bx	lr

b2004920 <queueIsEmpty>:
b2004920:	e52db004 	push	{fp}		; (str fp, [sp, #-4]!)
b2004924:	e28db000 	add	fp, sp, #0
b2004928:	e24dd00c 	sub	sp, sp, #12
b200492c:	e50b0008 	str	r0, [fp, #-8]
b2004930:	e51b3008 	ldr	r3, [fp, #-8]
b2004934:	e593300c 	ldr	r3, [r3, #12]
b2004938:	e3530000 	cmp	r3, #0
b200493c:	1a000001 	bne	b2004948 <queueIsEmpty+0x28>
b2004940:	e3a03001 	mov	r3, #1
b2004944:	ea000000 	b	b200494c <queueIsEmpty+0x2c>
b2004948:	e3a03000 	mov	r3, #0
b200494c:	e1a00003 	mov	r0, r3
b2004950:	e28bd000 	add	sp, fp, #0
b2004954:	e49db004 	pop	{fp}		; (ldr fp, [sp], #4)
b2004958:	e12fff1e 	bx	lr

b200495c <queueIsFull>:
b200495c:	e52db004 	push	{fp}		; (str fp, [sp, #-4]!)
b2004960:	e28db000 	add	fp, sp, #0
b2004964:	e24dd00c 	sub	sp, sp, #12
b2004968:	e50b0008 	str	r0, [fp, #-8]
b200496c:	e51b3008 	ldr	r3, [fp, #-8]
b2004970:	e593200c 	ldr	r2, [r3, #12]
b2004974:	e51b3008 	ldr	r3, [fp, #-8]
b2004978:	e5933000 	ldr	r3, [r3]
b200497c:	e1520003 	cmp	r2, r3
b2004980:	1a000001 	bne	b200498c <queueIsFull+0x30>
b2004984:	e3a03001 	mov	r3, #1
b2004988:	ea000000 	b	b2004990 <queueIsFull+0x34>
b200498c:	e3a03000 	mov	r3, #0
b2004990:	e1a00003 	mov	r0, r3
b2004994:	e28bd000 	add	sp, fp, #0
b2004998:	e49db004 	pop	{fp}		; (ldr fp, [sp], #4)
b200499c:	e12fff1e 	bx	lr

b20049a0 <enQueue>:
b20049a0:	e92d4800 	push	{fp, lr}
b20049a4:	e28db004 	add	fp, sp, #4
b20049a8:	e24dd008 	sub	sp, sp, #8
b20049ac:	e50b0008 	str	r0, [fp, #-8]
b20049b0:	e50b100c 	str	r1, [fp, #-12]
b20049b4:	e51b0008 	ldr	r0, [fp, #-8]
b20049b8:	ebffffe7 	bl	b200495c <queueIsFull>
b20049bc:	e1a03000 	mov	r3, r0
b20049c0:	e3530001 	cmp	r3, #1
b20049c4:	1a000004 	bne	b20049dc <enQueue+0x3c>
b20049c8:	e308093c 	movw	r0, #35132	; 0x893c
b20049cc:	e34b0200 	movt	r0, #45568	; 0xb200
b20049d0:	ebfff759 	bl	b200273c <printk>
b20049d4:	e3e03000 	mvn	r3, #0
b20049d8:	ea000017 	b	b2004a3c <enQueue+0x9c>
b20049dc:	e51b3008 	ldr	r3, [fp, #-8]
b20049e0:	e5932008 	ldr	r2, [r3, #8]
b20049e4:	e51b3008 	ldr	r3, [fp, #-8]
b20049e8:	e2822004 	add	r2, r2, #4
b20049ec:	e51b100c 	ldr	r1, [fp, #-12]
b20049f0:	e7831102 	str	r1, [r3, r2, lsl #2]
b20049f4:	e51b3008 	ldr	r3, [fp, #-8]
b20049f8:	e5933008 	ldr	r3, [r3, #8]
b20049fc:	e2832001 	add	r2, r3, #1
b2004a00:	e51b3008 	ldr	r3, [fp, #-8]
b2004a04:	e5933000 	ldr	r3, [r3]
b2004a08:	e1a01003 	mov	r1, r3
b2004a0c:	e1a00002 	mov	r0, r2
b2004a10:	eb000d73 	bl	b2007fe4 <__aeabi_idivmod>
b2004a14:	e1a03001 	mov	r3, r1
b2004a18:	e1a02003 	mov	r2, r3
b2004a1c:	e51b3008 	ldr	r3, [fp, #-8]
b2004a20:	e5832008 	str	r2, [r3, #8]
b2004a24:	e51b3008 	ldr	r3, [fp, #-8]
b2004a28:	e593300c 	ldr	r3, [r3, #12]
b2004a2c:	e2832001 	add	r2, r3, #1
b2004a30:	e51b3008 	ldr	r3, [fp, #-8]
b2004a34:	e583200c 	str	r2, [r3, #12]
b2004a38:	e3a03000 	mov	r3, #0
b2004a3c:	e1a00003 	mov	r0, r3
b2004a40:	e24bd004 	sub	sp, fp, #4
b2004a44:	e8bd8800 	pop	{fp, pc}

b2004a48 <deQueue>:
b2004a48:	e92d4800 	push	{fp, lr}
b2004a4c:	e28db004 	add	fp, sp, #4
b2004a50:	e24dd010 	sub	sp, sp, #16
b2004a54:	e50b0010 	str	r0, [fp, #-16]
b2004a58:	e51b0010 	ldr	r0, [fp, #-16]
b2004a5c:	ebffffaf 	bl	b2004920 <queueIsEmpty>
b2004a60:	e1a03000 	mov	r3, r0
b2004a64:	e3530001 	cmp	r3, #1
b2004a68:	1a000004 	bne	b2004a80 <deQueue+0x38>
b2004a6c:	e3080980 	movw	r0, #35200	; 0x8980
b2004a70:	e34b0200 	movt	r0, #45568	; 0xb200
b2004a74:	ebfff730 	bl	b200273c <printk>
b2004a78:	e3a03000 	mov	r3, #0
b2004a7c:	ea00001d 	b	b2004af8 <deQueue+0xb0>
b2004a80:	e51b3010 	ldr	r3, [fp, #-16]
b2004a84:	e5932004 	ldr	r2, [r3, #4]
b2004a88:	e51b3010 	ldr	r3, [fp, #-16]
b2004a8c:	e2822004 	add	r2, r2, #4
b2004a90:	e7933102 	ldr	r3, [r3, r2, lsl #2]
b2004a94:	e50b3008 	str	r3, [fp, #-8]
b2004a98:	e51b3010 	ldr	r3, [fp, #-16]
b2004a9c:	e5932004 	ldr	r2, [r3, #4]
b2004aa0:	e51b3010 	ldr	r3, [fp, #-16]
b2004aa4:	e2822004 	add	r2, r2, #4
b2004aa8:	e3a01000 	mov	r1, #0
b2004aac:	e7831102 	str	r1, [r3, r2, lsl #2]
b2004ab0:	e51b3010 	ldr	r3, [fp, #-16]
b2004ab4:	e593300c 	ldr	r3, [r3, #12]
b2004ab8:	e2432001 	sub	r2, r3, #1
b2004abc:	e51b3010 	ldr	r3, [fp, #-16]
b2004ac0:	e583200c 	str	r2, [r3, #12]
b2004ac4:	e51b3010 	ldr	r3, [fp, #-16]
b2004ac8:	e5933004 	ldr	r3, [r3, #4]
b2004acc:	e2832001 	add	r2, r3, #1
b2004ad0:	e51b3010 	ldr	r3, [fp, #-16]
b2004ad4:	e5933000 	ldr	r3, [r3]
b2004ad8:	e1a01003 	mov	r1, r3
b2004adc:	e1a00002 	mov	r0, r2
b2004ae0:	eb000d3f 	bl	b2007fe4 <__aeabi_idivmod>
b2004ae4:	e1a03001 	mov	r3, r1
b2004ae8:	e1a02003 	mov	r2, r3
b2004aec:	e51b3010 	ldr	r3, [fp, #-16]
b2004af0:	e5832004 	str	r2, [r3, #4]
b2004af4:	e51b3008 	ldr	r3, [fp, #-8]
b2004af8:	e1a00003 	mov	r0, r3
b2004afc:	e24bd004 	sub	sp, fp, #4
b2004b00:	e8bd8800 	pop	{fp, pc}

b2004b04 <printDataInQueue>:
b2004b04:	e92d4800 	push	{fp, lr}
b2004b08:	e28db004 	add	fp, sp, #4
b2004b0c:	e24dd010 	sub	sp, sp, #16
b2004b10:	e50b0010 	str	r0, [fp, #-16]
b2004b14:	e51b3010 	ldr	r3, [fp, #-16]
b2004b18:	e5933004 	ldr	r3, [r3, #4]
b2004b1c:	e50b3008 	str	r3, [fp, #-8]
b2004b20:	e30809c8 	movw	r0, #35272	; 0x89c8
b2004b24:	e34b0200 	movt	r0, #45568	; 0xb200
b2004b28:	ebfff703 	bl	b200273c <printk>
b2004b2c:	e30809f0 	movw	r0, #35312	; 0x89f0
b2004b30:	e34b0200 	movt	r0, #45568	; 0xb200
b2004b34:	ebfff700 	bl	b200273c <printk>
b2004b38:	e51b0010 	ldr	r0, [fp, #-16]
b2004b3c:	ebffff77 	bl	b2004920 <queueIsEmpty>
b2004b40:	e1a03000 	mov	r3, r0
b2004b44:	e3530001 	cmp	r3, #1
b2004b48:	1a000003 	bne	b2004b5c <printDataInQueue+0x58>
b2004b4c:	e3080a08 	movw	r0, #35336	; 0x8a08
b2004b50:	e34b0200 	movt	r0, #45568	; 0xb200
b2004b54:	ebfff6f8 	bl	b200273c <printk>
b2004b58:	ea000033 	b	b2004c2c <printDataInQueue+0x128>
b2004b5c:	e3a03000 	mov	r3, #0
b2004b60:	e50b300c 	str	r3, [fp, #-12]
b2004b64:	ea00001a 	b	b2004bd4 <printDataInQueue+0xd0>
b2004b68:	e51b3010 	ldr	r3, [fp, #-16]
b2004b6c:	e51b2008 	ldr	r2, [fp, #-8]
b2004b70:	e2822004 	add	r2, r2, #4
b2004b74:	e7933102 	ldr	r3, [r3, r2, lsl #2]
b2004b78:	e5931014 	ldr	r1, [r3, #20]
b2004b7c:	e51b3010 	ldr	r3, [fp, #-16]
b2004b80:	e51b2008 	ldr	r2, [fp, #-8]
b2004b84:	e2822004 	add	r2, r2, #4
b2004b88:	e7933102 	ldr	r3, [r3, r2, lsl #2]
b2004b8c:	e5933018 	ldr	r3, [r3, #24]
b2004b90:	e1a02001 	mov	r2, r1
b2004b94:	e51b1008 	ldr	r1, [fp, #-8]
b2004b98:	e3080a1c 	movw	r0, #35356	; 0x8a1c
b2004b9c:	e34b0200 	movt	r0, #45568	; 0xb200
b2004ba0:	ebfff6e5 	bl	b200273c <printk>
b2004ba4:	e51b3008 	ldr	r3, [fp, #-8]
b2004ba8:	e2832001 	add	r2, r3, #1
b2004bac:	e51b3010 	ldr	r3, [fp, #-16]
b2004bb0:	e5933000 	ldr	r3, [r3]
b2004bb4:	e1a01003 	mov	r1, r3
b2004bb8:	e1a00002 	mov	r0, r2
b2004bbc:	eb000d08 	bl	b2007fe4 <__aeabi_idivmod>
b2004bc0:	e1a03001 	mov	r3, r1
b2004bc4:	e50b3008 	str	r3, [fp, #-8]
b2004bc8:	e51b300c 	ldr	r3, [fp, #-12]
b2004bcc:	e2833001 	add	r3, r3, #1
b2004bd0:	e50b300c 	str	r3, [fp, #-12]
b2004bd4:	e51b3010 	ldr	r3, [fp, #-16]
b2004bd8:	e593300c 	ldr	r3, [r3, #12]
b2004bdc:	e51b200c 	ldr	r2, [fp, #-12]
b2004be0:	e1520003 	cmp	r2, r3
b2004be4:	baffffdf 	blt	b2004b68 <printDataInQueue+0x64>
b2004be8:	e51b3010 	ldr	r3, [fp, #-16]
b2004bec:	e5931008 	ldr	r1, [r3, #8]
b2004bf0:	e51b3010 	ldr	r3, [fp, #-16]
b2004bf4:	e5932008 	ldr	r2, [r3, #8]
b2004bf8:	e51b3010 	ldr	r3, [fp, #-16]
b2004bfc:	e2822004 	add	r2, r2, #4
b2004c00:	e7933102 	ldr	r3, [r3, r2, lsl #2]
b2004c04:	e5930014 	ldr	r0, [r3, #20]
b2004c08:	e51b3010 	ldr	r3, [fp, #-16]
b2004c0c:	e51b2008 	ldr	r2, [fp, #-8]
b2004c10:	e2822004 	add	r2, r2, #4
b2004c14:	e7933102 	ldr	r3, [r3, r2, lsl #2]
b2004c18:	e5933018 	ldr	r3, [r3, #24]
b2004c1c:	e1a02000 	mov	r2, r0
b2004c20:	e3080a3c 	movw	r0, #35388	; 0x8a3c
b2004c24:	e34b0200 	movt	r0, #45568	; 0xb200
b2004c28:	ebfff6c3 	bl	b200273c <printk>
b2004c2c:	e3080a68 	movw	r0, #35432	; 0x8a68
b2004c30:	e34b0200 	movt	r0, #45568	; 0xb200
b2004c34:	ebfff6c0 	bl	b200273c <printk>
b2004c38:	e320f000 	nop	{0}
b2004c3c:	e24bd004 	sub	sp, fp, #4
b2004c40:	e8bd8800 	pop	{fp, pc}

b2004c44 <main_shell>:
b2004c44:	e92d4800 	push	{fp, lr}
b2004c48:	e28db004 	add	fp, sp, #4
b2004c4c:	e24dd080 	sub	sp, sp, #128	; 0x80
b2004c50:	ebffeeb1 	bl	b200071c <readCpsrMode>
b2004c54:	ebffedea 	bl	b2000404 <draw_console>
b2004c58:	e3080a90 	movw	r0, #35472	; 0x8a90
b2004c5c:	e34b0200 	movt	r0, #45568	; 0xb200
b2004c60:	eb0001de 	bl	b20053e0 <uprintf>
b2004c64:	e3080ab4 	movw	r0, #35508	; 0x8ab4
b2004c68:	e34b0200 	movt	r0, #45568	; 0xb200
b2004c6c:	eb0001db 	bl	b20053e0 <uprintf>
b2004c70:	eb000b80 	bl	b2007a78 <__gettid>
b2004c74:	e1a03000 	mov	r3, r0
b2004c78:	e1a01003 	mov	r1, r3
b2004c7c:	e3080ae0 	movw	r0, #35552	; 0x8ae0
b2004c80:	e34b0200 	movt	r0, #45568	; 0xb200
b2004c84:	eb0001d5 	bl	b20053e0 <uprintf>
b2004c88:	eb000baf 	bl	b2007b4c <__get_task_priority>
b2004c8c:	e1a03000 	mov	r3, r0
b2004c90:	e1a01003 	mov	r1, r3
b2004c94:	e3080af4 	movw	r0, #35572	; 0x8af4
b2004c98:	e34b0200 	movt	r0, #45568	; 0xb200
b2004c9c:	eb0001cf 	bl	b20053e0 <uprintf>
b2004ca0:	e24b3060 	sub	r3, fp, #96	; 0x60
b2004ca4:	e3a02040 	mov	r2, #64	; 0x40
b2004ca8:	e3a01000 	mov	r1, #0
b2004cac:	e1a00003 	mov	r0, r3
b2004cb0:	ebfff7d1 	bl	b2002bfc <_memset>
b2004cb4:	e24b3060 	sub	r3, fp, #96	; 0x60
b2004cb8:	e3a01040 	mov	r1, #64	; 0x40
b2004cbc:	e1a00003 	mov	r0, r3
b2004cc0:	eb000bd7 	bl	b2007c24 <__getcwd>
b2004cc4:	e3080b0c 	movw	r0, #35596	; 0x8b0c
b2004cc8:	e34b0200 	movt	r0, #45568	; 0xb200
b2004ccc:	eb0001af 	bl	b2005390 <put_str>
b2004cd0:	e24b3060 	sub	r3, fp, #96	; 0x60
b2004cd4:	e1a00003 	mov	r0, r3
b2004cd8:	eb0001ac 	bl	b2005390 <put_str>
b2004cdc:	e3080b1c 	movw	r0, #35612	; 0x8b1c
b2004ce0:	e34b0200 	movt	r0, #45568	; 0xb200
b2004ce4:	eb0001a9 	bl	b2005390 <put_str>
b2004ce8:	e3080b20 	movw	r0, #35616	; 0x8b20
b2004cec:	e34b0200 	movt	r0, #45568	; 0xb200
b2004cf0:	eb0001a6 	bl	b2005390 <put_str>
b2004cf4:	e24b3060 	sub	r3, fp, #96	; 0x60
b2004cf8:	e1a00003 	mov	r0, r3
b2004cfc:	eb0001a3 	bl	b2005390 <put_str>
b2004d00:	e3080b2c 	movw	r0, #35628	; 0x8b2c
b2004d04:	e34b0200 	movt	r0, #45568	; 0xb200
b2004d08:	eb0001a0 	bl	b2005390 <put_str>
b2004d0c:	e3a03000 	mov	r3, #0
b2004d10:	e54b3011 	strb	r3, [fp, #-17]	; 0xffffffef
b2004d14:	e24b3070 	sub	r3, fp, #112	; 0x70
b2004d18:	e3a02010 	mov	r2, #16
b2004d1c:	e3a01000 	mov	r1, #0
b2004d20:	e1a00003 	mov	r0, r3
b2004d24:	ebfff7b4 	bl	b2002bfc <_memset>
b2004d28:	e24b3070 	sub	r3, fp, #112	; 0x70
b2004d2c:	e50b3008 	str	r3, [fp, #-8]
b2004d30:	e51b3008 	ldr	r3, [fp, #-8]
b2004d34:	e50b300c 	str	r3, [fp, #-12]
b2004d38:	e3083b30 	movw	r3, #35632	; 0x8b30
b2004d3c:	e34b3200 	movt	r3, #45568	; 0xb200
b2004d40:	e50b3018 	str	r3, [fp, #-24]	; 0xffffffe8
b2004d44:	e3a03000 	mov	r3, #0
b2004d48:	e50b301c 	str	r3, [fp, #-28]	; 0xffffffe4
b2004d4c:	eb000172 	bl	b200531c <get_c>
b2004d50:	e1a03000 	mov	r3, r0
b2004d54:	e54b3011 	strb	r3, [fp, #-17]	; 0xffffffef
b2004d58:	e55b3011 	ldrb	r3, [fp, #-17]	; 0xffffffef
b2004d5c:	e1a01003 	mov	r1, r3
b2004d60:	e3080b34 	movw	r0, #35636	; 0x8b34
b2004d64:	e34b0200 	movt	r0, #45568	; 0xb200
b2004d68:	eb00019c 	bl	b20053e0 <uprintf>
b2004d6c:	e51b0008 	ldr	r0, [fp, #-8]
b2004d70:	eb000258 	bl	b20056d8 <_strlen>
b2004d74:	e1a03000 	mov	r3, r0
b2004d78:	e353000e 	cmp	r3, #14
b2004d7c:	1a000006 	bne	b2004d9c <main_shell+0x158>
b2004d80:	e24b3070 	sub	r3, fp, #112	; 0x70
b2004d84:	e3a02010 	mov	r2, #16
b2004d88:	e3a01000 	mov	r1, #0
b2004d8c:	e1a00003 	mov	r0, r3
b2004d90:	ebfff799 	bl	b2002bfc <_memset>
b2004d94:	e51b3008 	ldr	r3, [fp, #-8]
b2004d98:	e50b300c 	str	r3, [fp, #-12]
b2004d9c:	e55b3011 	ldrb	r3, [fp, #-17]	; 0xffffffef
b2004da0:	e3530008 	cmp	r3, #8
b2004da4:	0a000008 	beq	b2004dcc <main_shell+0x188>
b2004da8:	e55b3011 	ldrb	r3, [fp, #-17]	; 0xffffffef
b2004dac:	e353000d 	cmp	r3, #13
b2004db0:	0a000005 	beq	b2004dcc <main_shell+0x188>
b2004db4:	e51b300c 	ldr	r3, [fp, #-12]
b2004db8:	e55b2011 	ldrb	r2, [fp, #-17]	; 0xffffffef
b2004dbc:	e5c32000 	strb	r2, [r3]
b2004dc0:	e51b300c 	ldr	r3, [fp, #-12]
b2004dc4:	e2833001 	add	r3, r3, #1
b2004dc8:	e50b300c 	str	r3, [fp, #-12]
b2004dcc:	e55b3011 	ldrb	r3, [fp, #-17]	; 0xffffffef
b2004dd0:	e3530008 	cmp	r3, #8
b2004dd4:	0a000002 	beq	b2004de4 <main_shell+0x1a0>
b2004dd8:	e353000d 	cmp	r3, #13
b2004ddc:	0a00000f 	beq	b2004e20 <main_shell+0x1dc>
b2004de0:	ea00010a 	b	b2005210 <main_shell+0x5cc>
b2004de4:	e3a00020 	mov	r0, #32
b2004de8:	eb000159 	bl	b2005354 <put_c>
b2004dec:	e3a00008 	mov	r0, #8
b2004df0:	eb000157 	bl	b2005354 <put_c>
b2004df4:	e24b3070 	sub	r3, fp, #112	; 0x70
b2004df8:	e51b200c 	ldr	r2, [fp, #-12]
b2004dfc:	e1520003 	cmp	r2, r3
b2004e00:	0a000002 	beq	b2004e10 <main_shell+0x1cc>
b2004e04:	e51b300c 	ldr	r3, [fp, #-12]
b2004e08:	e2433001 	sub	r3, r3, #1
b2004e0c:	e50b300c 	str	r3, [fp, #-12]
b2004e10:	e51b300c 	ldr	r3, [fp, #-12]
b2004e14:	e3a02000 	mov	r2, #0
b2004e18:	e5c32000 	strb	r2, [r3]
b2004e1c:	ea0000fb 	b	b2005210 <main_shell+0x5cc>
b2004e20:	e24b3080 	sub	r3, fp, #128	; 0x80
b2004e24:	e3a02010 	mov	r2, #16
b2004e28:	e3a01000 	mov	r1, #0
b2004e2c:	e1a00003 	mov	r0, r3
b2004e30:	ebfff771 	bl	b2002bfc <_memset>
b2004e34:	e51b1018 	ldr	r1, [fp, #-24]	; 0xffffffe8
b2004e38:	e51b0008 	ldr	r0, [fp, #-8]
b2004e3c:	eb00026c 	bl	b20057f4 <_strcat>
b2004e40:	e51b0018 	ldr	r0, [fp, #-24]	; 0xffffffe8
b2004e44:	eb000223 	bl	b20056d8 <_strlen>
b2004e48:	e1a02000 	mov	r2, r0
b2004e4c:	e24b3080 	sub	r3, fp, #128	; 0x80
b2004e50:	e51b1018 	ldr	r1, [fp, #-24]	; 0xffffffe8
b2004e54:	e51b0008 	ldr	r0, [fp, #-8]
b2004e58:	eb0002ce 	bl	b2005998 <strtok_fst>
b2004e5c:	e50b0008 	str	r0, [fp, #-8]
b2004e60:	e24b3080 	sub	r3, fp, #128	; 0x80
b2004e64:	e3081b38 	movw	r1, #35640	; 0x8b38
b2004e68:	e34b1200 	movt	r1, #45568	; 0xb200
b2004e6c:	e1a00003 	mov	r0, r3
b2004e70:	eb00022e 	bl	b2005730 <_strcmp>
b2004e74:	e1a03000 	mov	r3, r0
b2004e78:	e3530000 	cmp	r3, #0
b2004e7c:	1a000047 	bne	b2004fa0 <main_shell+0x35c>
b2004e80:	e3080b40 	movw	r0, #35648	; 0x8b40
b2004e84:	e34b0200 	movt	r0, #45568	; 0xb200
b2004e88:	eb000154 	bl	b20053e0 <uprintf>
b2004e8c:	e3080b44 	movw	r0, #35652	; 0x8b44
b2004e90:	e34b0200 	movt	r0, #45568	; 0xb200
b2004e94:	eb000151 	bl	b20053e0 <uprintf>
b2004e98:	e3080b54 	movw	r0, #35668	; 0x8b54
b2004e9c:	e34b0200 	movt	r0, #45568	; 0xb200
b2004ea0:	eb00014e 	bl	b20053e0 <uprintf>
b2004ea4:	e3080b74 	movw	r0, #35700	; 0x8b74
b2004ea8:	e34b0200 	movt	r0, #45568	; 0xb200
b2004eac:	eb00014b 	bl	b20053e0 <uprintf>
b2004eb0:	e3080b94 	movw	r0, #35732	; 0x8b94
b2004eb4:	e34b0200 	movt	r0, #45568	; 0xb200
b2004eb8:	eb000148 	bl	b20053e0 <uprintf>
b2004ebc:	e3080bc4 	movw	r0, #35780	; 0x8bc4
b2004ec0:	e34b0200 	movt	r0, #45568	; 0xb200
b2004ec4:	eb000145 	bl	b20053e0 <uprintf>
b2004ec8:	e3080be0 	movw	r0, #35808	; 0x8be0
b2004ecc:	e34b0200 	movt	r0, #45568	; 0xb200
b2004ed0:	eb000142 	bl	b20053e0 <uprintf>
b2004ed4:	eb000110 	bl	b200531c <get_c>
b2004ed8:	e1a03000 	mov	r3, r0
b2004edc:	e54b301d 	strb	r3, [fp, #-29]	; 0xffffffe3
b2004ee0:	e55b301d 	ldrb	r3, [fp, #-29]	; 0xffffffe3
b2004ee4:	e1a01003 	mov	r1, r3
b2004ee8:	e3080b34 	movw	r0, #35636	; 0x8b34
b2004eec:	e34b0200 	movt	r0, #45568	; 0xb200
b2004ef0:	eb00013a 	bl	b20053e0 <uprintf>
b2004ef4:	e55b301d 	ldrb	r3, [fp, #-29]	; 0xffffffe3
b2004ef8:	e3530031 	cmp	r3, #49	; 0x31
b2004efc:	1a000004 	bne	b2004f14 <main_shell+0x2d0>
b2004f00:	ebfff39e 	bl	b2001d80 <fork_test>
b2004f04:	e3080bf0 	movw	r0, #35824	; 0x8bf0
b2004f08:	e34b0200 	movt	r0, #45568	; 0xb200
b2004f0c:	eb000133 	bl	b20053e0 <uprintf>
b2004f10:	ea0000a2 	b	b20051a0 <main_shell+0x55c>
b2004f14:	e55b301d 	ldrb	r3, [fp, #-29]	; 0xffffffe3
b2004f18:	e3530032 	cmp	r3, #50	; 0x32
b2004f1c:	1a000004 	bne	b2004f34 <main_shell+0x2f0>
b2004f20:	ebfffcd3 	bl	b2004274 <multitasking_test_main>
b2004f24:	e3080bf0 	movw	r0, #35824	; 0x8bf0
b2004f28:	e34b0200 	movt	r0, #45568	; 0xb200
b2004f2c:	eb00012b 	bl	b20053e0 <uprintf>
b2004f30:	ea00009a 	b	b20051a0 <main_shell+0x55c>
b2004f34:	e55b301d 	ldrb	r3, [fp, #-29]	; 0xffffffe3
b2004f38:	e3530033 	cmp	r3, #51	; 0x33
b2004f3c:	1a000004 	bne	b2004f54 <main_shell+0x310>
b2004f40:	ebfffe2d 	bl	b20047fc <priority_test_main>
b2004f44:	e3080bf0 	movw	r0, #35824	; 0x8bf0
b2004f48:	e34b0200 	movt	r0, #45568	; 0xb200
b2004f4c:	eb000123 	bl	b20053e0 <uprintf>
b2004f50:	ea000092 	b	b20051a0 <main_shell+0x55c>
b2004f54:	e55b301d 	ldrb	r3, [fp, #-29]	; 0xffffffe3
b2004f58:	e3530034 	cmp	r3, #52	; 0x34
b2004f5c:	1a00000b 	bne	b2004f90 <main_shell+0x34c>
b2004f60:	ebfffd01 	bl	b200436c <tty0_test_main>
b2004f64:	e3a03000 	mov	r3, #0
b2004f68:	e50b3010 	str	r3, [fp, #-16]
b2004f6c:	ea000002 	b	b2004f7c <main_shell+0x338>
b2004f70:	e51b3010 	ldr	r3, [fp, #-16]
b2004f74:	e2833001 	add	r3, r3, #1
b2004f78:	e50b3010 	str	r3, [fp, #-16]
b2004f7c:	e51b3010 	ldr	r3, [fp, #-16]
b2004f80:	e3042e1f 	movw	r2, #19999	; 0x4e1f
b2004f84:	e1530002 	cmp	r3, r2
b2004f88:	dafffff8 	ble	b2004f70 <main_shell+0x32c>
b2004f8c:	ea000083 	b	b20051a0 <main_shell+0x55c>
b2004f90:	e55b301d 	ldrb	r3, [fp, #-29]	; 0xffffffe3
b2004f94:	e3530030 	cmp	r3, #48	; 0x30
b2004f98:	0a00007f 	beq	b200519c <main_shell+0x558>
b2004f9c:	eaffffcc 	b	b2004ed4 <main_shell+0x290>
b2004fa0:	e24b3080 	sub	r3, fp, #128	; 0x80
b2004fa4:	e3081c04 	movw	r1, #35844	; 0x8c04
b2004fa8:	e34b1200 	movt	r1, #45568	; 0xb200
b2004fac:	e1a00003 	mov	r0, r3
b2004fb0:	eb0001de 	bl	b2005730 <_strcmp>
b2004fb4:	e1a03000 	mov	r3, r0
b2004fb8:	e3530000 	cmp	r3, #0
b2004fbc:	1a000009 	bne	b2004fe8 <main_shell+0x3a4>
b2004fc0:	e3080b40 	movw	r0, #35648	; 0x8b40
b2004fc4:	e34b0200 	movt	r0, #45568	; 0xb200
b2004fc8:	eb000104 	bl	b20053e0 <uprintf>
b2004fcc:	e3080c0c 	movw	r0, #35852	; 0x8c0c
b2004fd0:	e34b0200 	movt	r0, #45568	; 0xb200
b2004fd4:	eb000101 	bl	b20053e0 <uprintf>
b2004fd8:	e3080c14 	movw	r0, #35860	; 0x8c14
b2004fdc:	e34b0200 	movt	r0, #45568	; 0xb200
b2004fe0:	eb0000fe 	bl	b20053e0 <uprintf>
b2004fe4:	ea00006d 	b	b20051a0 <main_shell+0x55c>
b2004fe8:	e24b3080 	sub	r3, fp, #128	; 0x80
b2004fec:	e3081c3c 	movw	r1, #35900	; 0x8c3c
b2004ff0:	e34b1200 	movt	r1, #45568	; 0xb200
b2004ff4:	e1a00003 	mov	r0, r3
b2004ff8:	eb0001cc 	bl	b2005730 <_strcmp>
b2004ffc:	e1a03000 	mov	r3, r0
b2005000:	e3530000 	cmp	r3, #0
b2005004:	1a000012 	bne	b2005054 <main_shell+0x410>
b2005008:	e3080b40 	movw	r0, #35648	; 0x8b40
b200500c:	e34b0200 	movt	r0, #45568	; 0xb200
b2005010:	eb0000f2 	bl	b20053e0 <uprintf>
b2005014:	e3080c44 	movw	r0, #35908	; 0x8c44
b2005018:	e34b0200 	movt	r0, #45568	; 0xb200
b200501c:	eb0000ef 	bl	b20053e0 <uprintf>
b2005020:	e3080c70 	movw	r0, #35952	; 0x8c70
b2005024:	e34b0200 	movt	r0, #45568	; 0xb200
b2005028:	eb0000ec 	bl	b20053e0 <uprintf>
b200502c:	e3080c7c 	movw	r0, #35964	; 0x8c7c
b2005030:	e34b0200 	movt	r0, #45568	; 0xb200
b2005034:	eb0000e9 	bl	b20053e0 <uprintf>
b2005038:	e3080cac 	movw	r0, #36012	; 0x8cac
b200503c:	e34b0200 	movt	r0, #45568	; 0xb200
b2005040:	eb0000e6 	bl	b20053e0 <uprintf>
b2005044:	e3080ccc 	movw	r0, #36044	; 0x8ccc
b2005048:	e34b0200 	movt	r0, #45568	; 0xb200
b200504c:	eb0000e3 	bl	b20053e0 <uprintf>
b2005050:	ea000052 	b	b20051a0 <main_shell+0x55c>
b2005054:	e24b3080 	sub	r3, fp, #128	; 0x80
b2005058:	e3081ce8 	movw	r1, #36072	; 0x8ce8
b200505c:	e34b1200 	movt	r1, #45568	; 0xb200
b2005060:	e1a00003 	mov	r0, r3
b2005064:	eb0001b1 	bl	b2005730 <_strcmp>
b2005068:	e1a03000 	mov	r3, r0
b200506c:	e3530000 	cmp	r3, #0
b2005070:	1a000004 	bne	b2005088 <main_shell+0x444>
b2005074:	ebffebe1 	bl	b2000000 <lsdir>
b2005078:	e3080b1c 	movw	r0, #35612	; 0x8b1c
b200507c:	e34b0200 	movt	r0, #45568	; 0xb200
b2005080:	eb0000c2 	bl	b2005390 <put_str>
b2005084:	ea000045 	b	b20051a0 <main_shell+0x55c>
b2005088:	e24b3080 	sub	r3, fp, #128	; 0x80
b200508c:	e3081cec 	movw	r1, #36076	; 0x8cec
b2005090:	e34b1200 	movt	r1, #45568	; 0xb200
b2005094:	e1a00003 	mov	r0, r3
b2005098:	eb0001a4 	bl	b2005730 <_strcmp>
b200509c:	e1a03000 	mov	r3, r0
b20050a0:	e3530000 	cmp	r3, #0
b20050a4:	1a000021 	bne	b2005130 <main_shell+0x4ec>
b20050a8:	e24b3080 	sub	r3, fp, #128	; 0x80
b20050ac:	e3a02010 	mov	r2, #16
b20050b0:	e3a01000 	mov	r1, #0
b20050b4:	e1a00003 	mov	r0, r3
b20050b8:	ebfff6cf 	bl	b2002bfc <_memset>
b20050bc:	e51b3008 	ldr	r3, [fp, #-8]
b20050c0:	e5d33000 	ldrb	r3, [r3]
b20050c4:	e3530000 	cmp	r3, #0
b20050c8:	1a000003 	bne	b20050dc <main_shell+0x498>
b20050cc:	e3080cf0 	movw	r0, #36080	; 0x8cf0
b20050d0:	e34b0200 	movt	r0, #45568	; 0xb200
b20050d4:	eb0000ad 	bl	b2005390 <put_str>
b20050d8:	ea000007 	b	b20050fc <main_shell+0x4b8>
b20050dc:	e51b0018 	ldr	r0, [fp, #-24]	; 0xffffffe8
b20050e0:	eb00017c 	bl	b20056d8 <_strlen>
b20050e4:	e1a02000 	mov	r2, r0
b20050e8:	e24b3080 	sub	r3, fp, #128	; 0x80
b20050ec:	e51b1018 	ldr	r1, [fp, #-24]	; 0xffffffe8
b20050f0:	e51b0008 	ldr	r0, [fp, #-8]
b20050f4:	eb000227 	bl	b2005998 <strtok_fst>
b20050f8:	e50b0008 	str	r0, [fp, #-8]
b20050fc:	e24b3080 	sub	r3, fp, #128	; 0x80
b2005100:	e1a00003 	mov	r0, r3
b2005104:	ebffec1d 	bl	b2000180 <cd>
b2005108:	e1a03000 	mov	r3, r0
b200510c:	e3530000 	cmp	r3, #0
b2005110:	aa000002 	bge	b2005120 <main_shell+0x4dc>
b2005114:	e3080d00 	movw	r0, #36096	; 0x8d00
b2005118:	e34b0200 	movt	r0, #45568	; 0xb200
b200511c:	eb00009b 	bl	b2005390 <put_str>
b2005120:	e3080b1c 	movw	r0, #35612	; 0x8b1c
b2005124:	e34b0200 	movt	r0, #45568	; 0xb200
b2005128:	eb000098 	bl	b2005390 <put_str>
b200512c:	ea00001b 	b	b20051a0 <main_shell+0x55c>
b2005130:	e24b3080 	sub	r3, fp, #128	; 0x80
b2005134:	e3081d10 	movw	r1, #36112	; 0x8d10
b2005138:	e34b1200 	movt	r1, #45568	; 0xb200
b200513c:	e1a00003 	mov	r0, r3
b2005140:	eb00017a 	bl	b2005730 <_strcmp>
b2005144:	e1a03000 	mov	r3, r0
b2005148:	e3530000 	cmp	r3, #0
b200514c:	1a000013 	bne	b20051a0 <main_shell+0x55c>
b2005150:	e24b3060 	sub	r3, fp, #96	; 0x60
b2005154:	e3a02040 	mov	r2, #64	; 0x40
b2005158:	e3a01000 	mov	r1, #0
b200515c:	e1a00003 	mov	r0, r3
b2005160:	ebfff6a5 	bl	b2002bfc <_memset>
b2005164:	e24b3060 	sub	r3, fp, #96	; 0x60
b2005168:	e3a01040 	mov	r1, #64	; 0x40
b200516c:	e1a00003 	mov	r0, r3
b2005170:	ebffec0c 	bl	b20001a8 <pwd>
b2005174:	e3080b1c 	movw	r0, #35612	; 0x8b1c
b2005178:	e34b0200 	movt	r0, #45568	; 0xb200
b200517c:	eb000083 	bl	b2005390 <put_str>
b2005180:	e24b3060 	sub	r3, fp, #96	; 0x60
b2005184:	e1a00003 	mov	r0, r3
b2005188:	eb000080 	bl	b2005390 <put_str>
b200518c:	e3080b1c 	movw	r0, #35612	; 0x8b1c
b2005190:	e34b0200 	movt	r0, #45568	; 0xb200
b2005194:	eb00007d 	bl	b2005390 <put_str>
b2005198:	ea000000 	b	b20051a0 <main_shell+0x55c>
b200519c:	e320f000 	nop	{0}
b20051a0:	e24b3070 	sub	r3, fp, #112	; 0x70
b20051a4:	e3a02010 	mov	r2, #16
b20051a8:	e3a01000 	mov	r1, #0
b20051ac:	e1a00003 	mov	r0, r3
b20051b0:	ebfff691 	bl	b2002bfc <_memset>
b20051b4:	e24b3070 	sub	r3, fp, #112	; 0x70
b20051b8:	e50b3008 	str	r3, [fp, #-8]
b20051bc:	e51b3008 	ldr	r3, [fp, #-8]
b20051c0:	e50b300c 	str	r3, [fp, #-12]
b20051c4:	e3080b20 	movw	r0, #35616	; 0x8b20
b20051c8:	e34b0200 	movt	r0, #45568	; 0xb200
b20051cc:	eb00006f 	bl	b2005390 <put_str>
b20051d0:	e24b3060 	sub	r3, fp, #96	; 0x60
b20051d4:	e3a02040 	mov	r2, #64	; 0x40
b20051d8:	e3a01000 	mov	r1, #0
b20051dc:	e1a00003 	mov	r0, r3
b20051e0:	ebfff685 	bl	b2002bfc <_memset>
b20051e4:	e24b3060 	sub	r3, fp, #96	; 0x60
b20051e8:	e3a01040 	mov	r1, #64	; 0x40
b20051ec:	e1a00003 	mov	r0, r3
b20051f0:	ebffebec 	bl	b20001a8 <pwd>
b20051f4:	e24b3060 	sub	r3, fp, #96	; 0x60
b20051f8:	e1a00003 	mov	r0, r3
b20051fc:	eb000063 	bl	b2005390 <put_str>
b2005200:	e3080b2c 	movw	r0, #35628	; 0x8b2c
b2005204:	e34b0200 	movt	r0, #45568	; 0xb200
b2005208:	eb000060 	bl	b2005390 <put_str>
b200520c:	e320f000 	nop	{0}
b2005210:	eafffecd 	b	b2004d4c <main_shell+0x108>

b2005214 <WRITE_REG32>:
b2005214:	e5801000 	str	r1, [r0]
b2005218:	e12fff1e 	bx	lr

b200521c <READ_REG32>:
b200521c:	e5900000 	ldr	r0, [r0]
b2005220:	e12fff1e 	bx	lr

b2005224 <WR_REG16>:
b2005224:	e1c010b0 	strh	r1, [r0]
b2005228:	e12fff1e 	bx	lr

b200522c <RD_REG16>:
b200522c:	e1d000b0 	ldrh	r0, [r0]
b2005230:	e12fff1e 	bx	lr

b2005234 <WR_REG8>:
b2005234:	e5c01000 	strb	r1, [r0]
b2005238:	e12fff1e 	bx	lr

b200523c <RD_REG8>:
b200523c:	e5d00000 	ldrb	r0, [r0]
b2005240:	e12fff1e 	bx	lr

b2005244 <READ_CPSR>:
b2005244:	e10f0000 	mrs	r0, CPSR
b2005248:	e12fff1e 	bx	lr

b200524c <READ_SP>:
b200524c:	e1a0000d 	mov	r0, sp
b2005250:	e12fff1e 	bx	lr

b2005254 <READ_CP15_c1>:
b2005254:	ee110f10 	mrc	15, 0, r0, cr1, cr0, {0}
b2005258:	e12fff1e 	bx	lr

b200525c <READ_VECTOR_BASE>:
b200525c:	ee1c0f10 	mrc	15, 0, r0, cr12, cr0, {0}
b2005260:	e12fff1e 	bx	lr

b2005264 <_start>:
b2005264:	e10f0000 	mrs	r0, CPSR
b2005268:	e3c0001f 	bic	r0, r0, #31
b200526c:	e3800013 	orr	r0, r0, #19
b2005270:	e38000c0 	orr	r0, r0, #192	; 0xc0
b2005274:	e129f000 	msr	CPSR_fc, r0
b2005278:	ee1c0f10 	mrc	15, 0, r0, cr12, cr0, {0}
b200527c:	e92d000f 	push	{r0, r1, r2, r3}
b2005280:	ebfff4e7 	bl	b2002624 <set_exception_entry>
b2005284:	e8bd000f 	pop	{r0, r1, r2, r3}
b2005288:	ee1c0f10 	mrc	15, 0, r0, cr12, cr0, {0}
b200528c:	e2800024 	add	r0, r0, #36	; 0x24
b2005290:	e59f1070 	ldr	r1, [pc, #112]	; b2005308 <_call_sched+0xc>
b2005294:	e5801000 	str	r1, [r0]
b2005298:	ee1c0f10 	mrc	15, 0, r0, cr12, cr0, {0}
b200529c:	e2800028 	add	r0, r0, #40	; 0x28
b20052a0:	e59f1064 	ldr	r1, [pc, #100]	; b200530c <_call_sched+0x10>
b20052a4:	e5801000 	str	r1, [r0]
b20052a8:	ee1c0f10 	mrc	15, 0, r0, cr12, cr0, {0}
b20052ac:	e280002c 	add	r0, r0, #44	; 0x2c
b20052b0:	e59f1058 	ldr	r1, [pc, #88]	; b2005310 <_call_sched+0x14>
b20052b4:	e5801000 	str	r1, [r0]
b20052b8:	ee1c0f10 	mrc	15, 0, r0, cr12, cr0, {0}
b20052bc:	e2800034 	add	r0, r0, #52	; 0x34
b20052c0:	e59f104c 	ldr	r1, [pc, #76]	; b2005314 <_call_sched+0x18>
b20052c4:	e5801000 	str	r1, [r0]
b20052c8:	e59fd048 	ldr	sp, [pc, #72]	; b2005318 <_call_sched+0x1c>
b20052cc:	e28d1a01 	add	r1, sp, #4096	; 0x1000
b20052d0:	e10f3000 	mrs	r3, CPSR
b20052d4:	e3a02012 	mov	r2, #18
b20052d8:	e12ff002 	msr	CPSR_fsxc, r2
b20052dc:	e1a0d001 	mov	sp, r1
b20052e0:	e28d1a01 	add	r1, sp, #4096	; 0x1000
b20052e4:	e3a02017 	mov	r2, #23
b20052e8:	e12ff002 	msr	CPSR_fsxc, r2
b20052ec:	e1a0d001 	mov	sp, r1
b20052f0:	e28d1a01 	add	r1, sp, #4096	; 0x1000
b20052f4:	e12ff003 	msr	CPSR_fsxc, r3
b20052f8:	ebfff5c9 	bl	b2002a24 <kernal_entry>

b20052fc <_call_sched>:
b20052fc:	e1a0d000 	mov	sp, r0
b2005300:	e8bd5fff 	pop	{r0, r1, r2, r3, r4, r5, r6, r7, r8, r9, sl, fp, ip, lr}
b2005304:	e12fff1e 	bx	lr
b2005308:	b2000ffc 	andlt	r0, r0, #252, 30	; 0x3f0
b200530c:	b2001068 	andlt	r1, r0, #104	; 0x68
b2005310:	b200106c 	andlt	r1, r0, #108	; 0x6c
b2005314:	b2000f9c 	andlt	r0, r0, #156, 30	; 0x270
b2005318:	9df3fffc 	ldclls	15, cr15, [r3, #1008]!	; 0x3f0

b200531c <get_c>:
b200531c:	e92d4800 	push	{fp, lr}
b2005320:	e28db004 	add	fp, sp, #4
b2005324:	e24dd008 	sub	sp, sp, #8
b2005328:	e3a03000 	mov	r3, #0
b200532c:	e54b3005 	strb	r3, [fp, #-5]
b2005330:	e24b3005 	sub	r3, fp, #5
b2005334:	e3a02001 	mov	r2, #1
b2005338:	e1a01003 	mov	r1, r3
b200533c:	e3a00000 	mov	r0, #0
b2005340:	eb000a1a 	bl	b2007bb0 <__read>
b2005344:	e55b3005 	ldrb	r3, [fp, #-5]
b2005348:	e1a00003 	mov	r0, r3
b200534c:	e24bd004 	sub	sp, fp, #4
b2005350:	e8bd8800 	pop	{fp, pc}

b2005354 <put_c>:
b2005354:	e92d4800 	push	{fp, lr}
b2005358:	e28db004 	add	fp, sp, #4
b200535c:	e24dd010 	sub	sp, sp, #16
b2005360:	e1a03000 	mov	r3, r0
b2005364:	e54b300d 	strb	r3, [fp, #-13]
b2005368:	e55b300d 	ldrb	r3, [fp, #-13]
b200536c:	e54b3005 	strb	r3, [fp, #-5]
b2005370:	e24b3005 	sub	r3, fp, #5
b2005374:	e3a02001 	mov	r2, #1
b2005378:	e1a01003 	mov	r1, r3
b200537c:	e3a00001 	mov	r0, #1
b2005380:	eb0009f7 	bl	b2007b64 <__write>
b2005384:	e320f000 	nop	{0}
b2005388:	e24bd004 	sub	sp, fp, #4
b200538c:	e8bd8800 	pop	{fp, pc}

b2005390 <put_str>:
b2005390:	e92d4800 	push	{fp, lr}
b2005394:	e28db004 	add	fp, sp, #4
b2005398:	e24dd008 	sub	sp, sp, #8
b200539c:	e50b0008 	str	r0, [fp, #-8]
b20053a0:	ea000006 	b	b20053c0 <put_str+0x30>
b20053a4:	e51b3008 	ldr	r3, [fp, #-8]
b20053a8:	e5d33000 	ldrb	r3, [r3]
b20053ac:	e1a00003 	mov	r0, r3
b20053b0:	ebffffe7 	bl	b2005354 <put_c>
b20053b4:	e51b3008 	ldr	r3, [fp, #-8]
b20053b8:	e2833001 	add	r3, r3, #1
b20053bc:	e50b3008 	str	r3, [fp, #-8]
b20053c0:	e51b3008 	ldr	r3, [fp, #-8]
b20053c4:	e5d33000 	ldrb	r3, [r3]
b20053c8:	e3530000 	cmp	r3, #0
b20053cc:	1afffff4 	bne	b20053a4 <put_str+0x14>
b20053d0:	e320f000 	nop	{0}
b20053d4:	e320f000 	nop	{0}
b20053d8:	e24bd004 	sub	sp, fp, #4
b20053dc:	e8bd8800 	pop	{fp, pc}

b20053e0 <uprintf>:
b20053e0:	e92d000f 	push	{r0, r1, r2, r3}
b20053e4:	e92d4800 	push	{fp, lr}
b20053e8:	e28db004 	add	fp, sp, #4
b20053ec:	e24dd008 	sub	sp, sp, #8
b20053f0:	e28b3008 	add	r3, fp, #8
b20053f4:	e50b300c 	str	r3, [fp, #-12]
b20053f8:	e51b100c 	ldr	r1, [fp, #-12]
b20053fc:	e59b0004 	ldr	r0, [fp, #4]
b2005400:	eb000006 	bl	b2005420 <uprint>
b2005404:	e50b0008 	str	r0, [fp, #-8]
b2005408:	e51b3008 	ldr	r3, [fp, #-8]
b200540c:	e1a00003 	mov	r0, r3
b2005410:	e24bd004 	sub	sp, fp, #4
b2005414:	e8bd4800 	pop	{fp, lr}
b2005418:	e28dd010 	add	sp, sp, #16
b200541c:	e12fff1e 	bx	lr

b2005420 <uprint>:
b2005420:	e92d4810 	push	{r4, fp, lr}
b2005424:	e28db008 	add	fp, sp, #8
b2005428:	e24dd01c 	sub	sp, sp, #28
b200542c:	e50b0020 	str	r0, [fp, #-32]	; 0xffffffe0
b2005430:	e50b1024 	str	r1, [fp, #-36]	; 0xffffffdc
b2005434:	ea000006 	b	b2005454 <uprint+0x34>
b2005438:	e3540000 	cmp	r4, #0
b200543c:	1a000001 	bne	b2005448 <uprint+0x28>
b2005440:	e3a03000 	mov	r3, #0
b2005444:	ea000072 	b	b2005614 <uprint+0x1f4>
b2005448:	e6ef3074 	uxtb	r3, r4
b200544c:	e1a00003 	mov	r0, r3
b2005450:	ebffffbf 	bl	b2005354 <put_c>
b2005454:	e51b3020 	ldr	r3, [fp, #-32]	; 0xffffffe0
b2005458:	e2832001 	add	r2, r3, #1
b200545c:	e50b2020 	str	r2, [fp, #-32]	; 0xffffffe0
b2005460:	e5d33000 	ldrb	r3, [r3]
b2005464:	e1a04003 	mov	r4, r3
b2005468:	e3540025 	cmp	r4, #37	; 0x25
b200546c:	1afffff1 	bne	b2005438 <uprint+0x18>
b2005470:	e3a03020 	mov	r3, #32
b2005474:	e54b3015 	strb	r3, [fp, #-21]	; 0xffffffeb
b2005478:	e3e03000 	mvn	r3, #0
b200547c:	e50b301c 	str	r3, [fp, #-28]	; 0xffffffe4
b2005480:	e51b3020 	ldr	r3, [fp, #-32]	; 0xffffffe0
b2005484:	e2832001 	add	r2, r3, #1
b2005488:	e50b2020 	str	r2, [fp, #-32]	; 0xffffffe0
b200548c:	e5d33000 	ldrb	r3, [r3]
b2005490:	e1a04003 	mov	r4, r3
b2005494:	e3540078 	cmp	r4, #120	; 0x78
b2005498:	caffffed 	bgt	b2005454 <uprint+0x34>
b200549c:	e3540063 	cmp	r4, #99	; 0x63
b20054a0:	aa000004 	bge	b20054b8 <uprint+0x98>
b20054a4:	e354002d 	cmp	r4, #45	; 0x2d
b20054a8:	0a00001c 	beq	b2005520 <uprint+0x100>
b20054ac:	e3540030 	cmp	r4, #48	; 0x30
b20054b0:	0a00001d 	beq	b200552c <uprint+0x10c>
b20054b4:	ea000055 	b	b2005610 <uprint+0x1f0>
b20054b8:	e2443063 	sub	r3, r4, #99	; 0x63
b20054bc:	e3530015 	cmp	r3, #21
b20054c0:	979ff103 	ldrls	pc, [pc, r3, lsl #2]
b20054c4:	eaffffe2 	b	b2005454 <uprint+0x34>
b20054c8:	b2005538 	andlt	r5, r0, #56, 10	; 0xe000000
b20054cc:	b20055b8 	andlt	r5, r0, #184, 10	; 0x2e000000
b20054d0:	b2005454 	andlt	r5, r0, #84, 8	; 0x54000000
b20054d4:	b2005454 	andlt	r5, r0, #84, 8	; 0x54000000
b20054d8:	b2005454 	andlt	r5, r0, #84, 8	; 0x54000000
b20054dc:	b2005454 	andlt	r5, r0, #84, 8	; 0x54000000
b20054e0:	b2005454 	andlt	r5, r0, #84, 8	; 0x54000000
b20054e4:	b2005454 	andlt	r5, r0, #84, 8	; 0x54000000
b20054e8:	b2005454 	andlt	r5, r0, #84, 8	; 0x54000000
b20054ec:	b2005454 	andlt	r5, r0, #84, 8	; 0x54000000
b20054f0:	b2005454 	andlt	r5, r0, #84, 8	; 0x54000000
b20054f4:	b2005454 	andlt	r5, r0, #84, 8	; 0x54000000
b20054f8:	b2005454 	andlt	r5, r0, #84, 8	; 0x54000000
b20054fc:	b2005558 	andlt	r5, r0, #88, 10	; 0x16000000
b2005500:	b2005454 	andlt	r5, r0, #84, 8	; 0x54000000
b2005504:	b2005454 	andlt	r5, r0, #84, 8	; 0x54000000
b2005508:	b2005454 	andlt	r5, r0, #84, 8	; 0x54000000
b200550c:	b2005454 	andlt	r5, r0, #84, 8	; 0x54000000
b2005510:	b20055d8 	andlt	r5, r0, #216, 10	; 0x36000000
b2005514:	b2005454 	andlt	r5, r0, #84, 8	; 0x54000000
b2005518:	b2005454 	andlt	r5, r0, #84, 8	; 0x54000000
b200551c:	b2005588 	andlt	r5, r0, #136, 10	; 0x22000000
b2005520:	e3a0302d 	mov	r3, #45	; 0x2d
b2005524:	e54b3015 	strb	r3, [fp, #-21]	; 0xffffffeb
b2005528:	eaffffd4 	b	b2005480 <uprint+0x60>
b200552c:	e3a03030 	mov	r3, #48	; 0x30
b2005530:	e54b3015 	strb	r3, [fp, #-21]	; 0xffffffeb
b2005534:	eaffffd1 	b	b2005480 <uprint+0x60>
b2005538:	e51b3024 	ldr	r3, [fp, #-36]	; 0xffffffdc
b200553c:	e2832004 	add	r2, r3, #4
b2005540:	e50b2024 	str	r2, [fp, #-36]	; 0xffffffdc
b2005544:	e5933000 	ldr	r3, [r3]
b2005548:	e6ef3073 	uxtb	r3, r3
b200554c:	e1a00003 	mov	r0, r3
b2005550:	ebffff7f 	bl	b2005354 <put_c>
b2005554:	ea00002d 	b	b2005610 <uprint+0x1f0>
b2005558:	e3a00030 	mov	r0, #48	; 0x30
b200555c:	ebffff7c 	bl	b2005354 <put_c>
b2005560:	e3a00078 	mov	r0, #120	; 0x78
b2005564:	ebffff7a 	bl	b2005354 <put_c>
b2005568:	e51b3024 	ldr	r3, [fp, #-36]	; 0xffffffdc
b200556c:	e2832004 	add	r2, r3, #4
b2005570:	e50b2024 	str	r2, [fp, #-36]	; 0xffffffdc
b2005574:	e5933000 	ldr	r3, [r3]
b2005578:	e50b3010 	str	r3, [fp, #-16]
b200557c:	e3a03010 	mov	r3, #16
b2005580:	e50b3014 	str	r3, [fp, #-20]	; 0xffffffec
b2005584:	ea00001b 	b	b20055f8 <uprint+0x1d8>
b2005588:	e3a00030 	mov	r0, #48	; 0x30
b200558c:	ebffff70 	bl	b2005354 <put_c>
b2005590:	e3a00078 	mov	r0, #120	; 0x78
b2005594:	ebffff6e 	bl	b2005354 <put_c>
b2005598:	e51b3024 	ldr	r3, [fp, #-36]	; 0xffffffdc
b200559c:	e2832004 	add	r2, r3, #4
b20055a0:	e50b2024 	str	r2, [fp, #-36]	; 0xffffffdc
b20055a4:	e5933000 	ldr	r3, [r3]
b20055a8:	e50b3010 	str	r3, [fp, #-16]
b20055ac:	e3a03010 	mov	r3, #16
b20055b0:	e50b3014 	str	r3, [fp, #-20]	; 0xffffffec
b20055b4:	ea00000f 	b	b20055f8 <uprint+0x1d8>
b20055b8:	e51b3024 	ldr	r3, [fp, #-36]	; 0xffffffdc
b20055bc:	e2832004 	add	r2, r3, #4
b20055c0:	e50b2024 	str	r2, [fp, #-36]	; 0xffffffdc
b20055c4:	e5933000 	ldr	r3, [r3]
b20055c8:	e50b3010 	str	r3, [fp, #-16]
b20055cc:	e3a0300a 	mov	r3, #10
b20055d0:	e50b3014 	str	r3, [fp, #-20]	; 0xffffffec
b20055d4:	ea000007 	b	b20055f8 <uprint+0x1d8>
b20055d8:	e51b3024 	ldr	r3, [fp, #-36]	; 0xffffffdc
b20055dc:	e2832004 	add	r2, r3, #4
b20055e0:	e50b2024 	str	r2, [fp, #-36]	; 0xffffffdc
b20055e4:	e5933000 	ldr	r3, [r3]
b20055e8:	e50b3010 	str	r3, [fp, #-16]
b20055ec:	e3a0300a 	mov	r3, #10
b20055f0:	e50b3014 	str	r3, [fp, #-20]	; 0xffffffec
b20055f4:	e320f000 	nop	{0}
b20055f8:	e55b3015 	ldrb	r3, [fp, #-21]	; 0xffffffeb
b20055fc:	e51b201c 	ldr	r2, [fp, #-28]	; 0xffffffe4
b2005600:	e51b1014 	ldr	r1, [fp, #-20]	; 0xffffffec
b2005604:	e51b0010 	ldr	r0, [fp, #-16]
b2005608:	eb000004 	bl	b2005620 <put_va>
b200560c:	e320f000 	nop	{0}
b2005610:	eaffff8f 	b	b2005454 <uprint+0x34>
b2005614:	e1a00003 	mov	r0, r3
b2005618:	e24bd008 	sub	sp, fp, #8
b200561c:	e8bd8810 	pop	{r4, fp, pc}

b2005620 <put_va>:
b2005620:	e92d4800 	push	{fp, lr}
b2005624:	e28db004 	add	fp, sp, #4
b2005628:	e24dd010 	sub	sp, sp, #16
b200562c:	e50b0008 	str	r0, [fp, #-8]
b2005630:	e50b100c 	str	r1, [fp, #-12]
b2005634:	e50b2010 	str	r2, [fp, #-16]
b2005638:	e50b3014 	str	r3, [fp, #-20]	; 0xffffffec
b200563c:	e51b2008 	ldr	r2, [fp, #-8]
b2005640:	e51b300c 	ldr	r3, [fp, #-12]
b2005644:	e1520003 	cmp	r2, r3
b2005648:	3a00000e 	bcc	b2005688 <put_va+0x68>
b200564c:	e51b100c 	ldr	r1, [fp, #-12]
b2005650:	e51b0008 	ldr	r0, [fp, #-8]
b2005654:	eb0009d3 	bl	b2007da8 <__udivsi3>
b2005658:	e1a03000 	mov	r3, r0
b200565c:	e1a00003 	mov	r0, r3
b2005660:	e51b3010 	ldr	r3, [fp, #-16]
b2005664:	e2432001 	sub	r2, r3, #1
b2005668:	e51b3014 	ldr	r3, [fp, #-20]	; 0xffffffec
b200566c:	e51b100c 	ldr	r1, [fp, #-12]
b2005670:	ebffffea 	bl	b2005620 <put_va>
b2005674:	ea000009 	b	b20056a0 <put_va+0x80>
b2005678:	e51b3014 	ldr	r3, [fp, #-20]	; 0xffffffec
b200567c:	e6ef3073 	uxtb	r3, r3
b2005680:	e1a00003 	mov	r0, r3
b2005684:	ebffff32 	bl	b2005354 <put_c>
b2005688:	e51b3010 	ldr	r3, [fp, #-16]
b200568c:	e2433001 	sub	r3, r3, #1
b2005690:	e50b3010 	str	r3, [fp, #-16]
b2005694:	e51b3010 	ldr	r3, [fp, #-16]
b2005698:	e3530000 	cmp	r3, #0
b200569c:	cafffff5 	bgt	b2005678 <put_va+0x58>
b20056a0:	e51b3008 	ldr	r3, [fp, #-8]
b20056a4:	e51b100c 	ldr	r1, [fp, #-12]
b20056a8:	e1a00003 	mov	r0, r3
b20056ac:	eb0009fa 	bl	b2007e9c <__aeabi_uidivmod>
b20056b0:	e1a03001 	mov	r3, r1
b20056b4:	e1a02003 	mov	r2, r3
b20056b8:	e3083d18 	movw	r3, #36120	; 0x8d18
b20056bc:	e34b3200 	movt	r3, #45568	; 0xb200
b20056c0:	e7d33002 	ldrb	r3, [r3, r2]
b20056c4:	e1a00003 	mov	r0, r3
b20056c8:	ebffff21 	bl	b2005354 <put_c>
b20056cc:	e320f000 	nop	{0}
b20056d0:	e24bd004 	sub	sp, fp, #4
b20056d4:	e8bd8800 	pop	{fp, pc}

b20056d8 <_strlen>:
b20056d8:	e52db004 	push	{fp}		; (str fp, [sp, #-4]!)
b20056dc:	e28db000 	add	fp, sp, #0
b20056e0:	e24dd014 	sub	sp, sp, #20
b20056e4:	e50b0010 	str	r0, [fp, #-16]
b20056e8:	e3a03000 	mov	r3, #0
b20056ec:	e50b3008 	str	r3, [fp, #-8]
b20056f0:	ea000005 	b	b200570c <_strlen+0x34>
b20056f4:	e51b3010 	ldr	r3, [fp, #-16]
b20056f8:	e2833001 	add	r3, r3, #1
b20056fc:	e50b3010 	str	r3, [fp, #-16]
b2005700:	e51b3008 	ldr	r3, [fp, #-8]
b2005704:	e2833001 	add	r3, r3, #1
b2005708:	e50b3008 	str	r3, [fp, #-8]
b200570c:	e51b3010 	ldr	r3, [fp, #-16]
b2005710:	e5d33000 	ldrb	r3, [r3]
b2005714:	e3530000 	cmp	r3, #0
b2005718:	1afffff5 	bne	b20056f4 <_strlen+0x1c>
b200571c:	e51b3008 	ldr	r3, [fp, #-8]
b2005720:	e1a00003 	mov	r0, r3
b2005724:	e28bd000 	add	sp, fp, #0
b2005728:	e49db004 	pop	{fp}		; (ldr fp, [sp], #4)
b200572c:	e12fff1e 	bx	lr

b2005730 <_strcmp>:
b2005730:	e52db004 	push	{fp}		; (str fp, [sp, #-4]!)
b2005734:	e28db000 	add	fp, sp, #0
b2005738:	e24dd00c 	sub	sp, sp, #12
b200573c:	e50b0008 	str	r0, [fp, #-8]
b2005740:	e50b100c 	str	r1, [fp, #-12]
b2005744:	ea00001f 	b	b20057c8 <_strcmp+0x98>
b2005748:	e51b3008 	ldr	r3, [fp, #-8]
b200574c:	e5d33000 	ldrb	r3, [r3]
b2005750:	e3530000 	cmp	r3, #0
b2005754:	1a000003 	bne	b2005768 <_strcmp+0x38>
b2005758:	e51b300c 	ldr	r3, [fp, #-12]
b200575c:	e5d33000 	ldrb	r3, [r3]
b2005760:	e3530000 	cmp	r3, #0
b2005764:	1a00001d 	bne	b20057e0 <_strcmp+0xb0>
b2005768:	e51b3008 	ldr	r3, [fp, #-8]
b200576c:	e5d33000 	ldrb	r3, [r3]
b2005770:	e3530000 	cmp	r3, #0
b2005774:	0a000003 	beq	b2005788 <_strcmp+0x58>
b2005778:	e51b300c 	ldr	r3, [fp, #-12]
b200577c:	e5d33000 	ldrb	r3, [r3]
b2005780:	e3530000 	cmp	r3, #0
b2005784:	0a000009 	beq	b20057b0 <_strcmp+0x80>
b2005788:	e51b3008 	ldr	r3, [fp, #-8]
b200578c:	e5d33000 	ldrb	r3, [r3]
b2005790:	e3530000 	cmp	r3, #0
b2005794:	1a000005 	bne	b20057b0 <_strcmp+0x80>
b2005798:	e51b300c 	ldr	r3, [fp, #-12]
b200579c:	e5d33000 	ldrb	r3, [r3]
b20057a0:	e3530000 	cmp	r3, #0
b20057a4:	1a000001 	bne	b20057b0 <_strcmp+0x80>
b20057a8:	e3a03000 	mov	r3, #0
b20057ac:	ea00000c 	b	b20057e4 <_strcmp+0xb4>
b20057b0:	e51b3008 	ldr	r3, [fp, #-8]
b20057b4:	e2833001 	add	r3, r3, #1
b20057b8:	e50b3008 	str	r3, [fp, #-8]
b20057bc:	e51b300c 	ldr	r3, [fp, #-12]
b20057c0:	e2833001 	add	r3, r3, #1
b20057c4:	e50b300c 	str	r3, [fp, #-12]
b20057c8:	e51b3008 	ldr	r3, [fp, #-8]
b20057cc:	e5d32000 	ldrb	r2, [r3]
b20057d0:	e51b300c 	ldr	r3, [fp, #-12]
b20057d4:	e5d33000 	ldrb	r3, [r3]
b20057d8:	e1520003 	cmp	r2, r3
b20057dc:	0affffd9 	beq	b2005748 <_strcmp+0x18>
b20057e0:	e3a03001 	mov	r3, #1
b20057e4:	e1a00003 	mov	r0, r3
b20057e8:	e28bd000 	add	sp, fp, #0
b20057ec:	e49db004 	pop	{fp}		; (ldr fp, [sp], #4)
b20057f0:	e12fff1e 	bx	lr

b20057f4 <_strcat>:
b20057f4:	e52db004 	push	{fp}		; (str fp, [sp, #-4]!)
b20057f8:	e28db000 	add	fp, sp, #0
b20057fc:	e24dd014 	sub	sp, sp, #20
b2005800:	e50b0010 	str	r0, [fp, #-16]
b2005804:	e50b1014 	str	r1, [fp, #-20]	; 0xffffffec
b2005808:	e51b3010 	ldr	r3, [fp, #-16]
b200580c:	e50b3008 	str	r3, [fp, #-8]
b2005810:	e51b3014 	ldr	r3, [fp, #-20]	; 0xffffffec
b2005814:	e50b300c 	str	r3, [fp, #-12]
b2005818:	ea000002 	b	b2005828 <_strcat+0x34>
b200581c:	e51b3008 	ldr	r3, [fp, #-8]
b2005820:	e2833001 	add	r3, r3, #1
b2005824:	e50b3008 	str	r3, [fp, #-8]
b2005828:	e51b3008 	ldr	r3, [fp, #-8]
b200582c:	e5d33000 	ldrb	r3, [r3]
b2005830:	e3530000 	cmp	r3, #0
b2005834:	1afffff8 	bne	b200581c <_strcat+0x28>
b2005838:	ea000009 	b	b2005864 <_strcat+0x70>
b200583c:	e51b300c 	ldr	r3, [fp, #-12]
b2005840:	e5d32000 	ldrb	r2, [r3]
b2005844:	e51b3008 	ldr	r3, [fp, #-8]
b2005848:	e5c32000 	strb	r2, [r3]
b200584c:	e51b3008 	ldr	r3, [fp, #-8]
b2005850:	e2833001 	add	r3, r3, #1
b2005854:	e50b3008 	str	r3, [fp, #-8]
b2005858:	e51b300c 	ldr	r3, [fp, #-12]
b200585c:	e2833001 	add	r3, r3, #1
b2005860:	e50b300c 	str	r3, [fp, #-12]
b2005864:	e51b300c 	ldr	r3, [fp, #-12]
b2005868:	e5d33000 	ldrb	r3, [r3]
b200586c:	e3530000 	cmp	r3, #0
b2005870:	1afffff1 	bne	b200583c <_strcat+0x48>
b2005874:	e51b3008 	ldr	r3, [fp, #-8]
b2005878:	e3a02000 	mov	r2, #0
b200587c:	e5c32000 	strb	r2, [r3]
b2005880:	e3a03000 	mov	r3, #0
b2005884:	e1a00003 	mov	r0, r3
b2005888:	e28bd000 	add	sp, fp, #0
b200588c:	e49db004 	pop	{fp}		; (ldr fp, [sp], #4)
b2005890:	e12fff1e 	bx	lr

b2005894 <_strcpy>:
b2005894:	e52db004 	push	{fp}		; (str fp, [sp, #-4]!)
b2005898:	e28db000 	add	fp, sp, #0
b200589c:	e24dd014 	sub	sp, sp, #20
b20058a0:	e50b0010 	str	r0, [fp, #-16]
b20058a4:	e50b1014 	str	r1, [fp, #-20]	; 0xffffffec
b20058a8:	e51b3014 	ldr	r3, [fp, #-20]	; 0xffffffec
b20058ac:	e50b3008 	str	r3, [fp, #-8]
b20058b0:	e51b3010 	ldr	r3, [fp, #-16]
b20058b4:	e50b300c 	str	r3, [fp, #-12]
b20058b8:	ea000009 	b	b20058e4 <_strcpy+0x50>
b20058bc:	e51b3008 	ldr	r3, [fp, #-8]
b20058c0:	e5d32000 	ldrb	r2, [r3]
b20058c4:	e51b300c 	ldr	r3, [fp, #-12]
b20058c8:	e5c32000 	strb	r2, [r3]
b20058cc:	e51b300c 	ldr	r3, [fp, #-12]
b20058d0:	e2833001 	add	r3, r3, #1
b20058d4:	e50b300c 	str	r3, [fp, #-12]
b20058d8:	e51b3008 	ldr	r3, [fp, #-8]
b20058dc:	e2833001 	add	r3, r3, #1
b20058e0:	e50b3008 	str	r3, [fp, #-8]
b20058e4:	e51b3008 	ldr	r3, [fp, #-8]
b20058e8:	e5d33000 	ldrb	r3, [r3]
b20058ec:	e3530000 	cmp	r3, #0
b20058f0:	1afffff1 	bne	b20058bc <_strcpy+0x28>
b20058f4:	e51b300c 	ldr	r3, [fp, #-12]
b20058f8:	e3a02000 	mov	r2, #0
b20058fc:	e5c32000 	strb	r2, [r3]
b2005900:	e320f000 	nop	{0}
b2005904:	e28bd000 	add	sp, fp, #0
b2005908:	e49db004 	pop	{fp}		; (ldr fp, [sp], #4)
b200590c:	e12fff1e 	bx	lr

b2005910 <_strncpy>:
b2005910:	e52db004 	push	{fp}		; (str fp, [sp, #-4]!)
b2005914:	e28db000 	add	fp, sp, #0
b2005918:	e24dd01c 	sub	sp, sp, #28
b200591c:	e50b0010 	str	r0, [fp, #-16]
b2005920:	e50b1014 	str	r1, [fp, #-20]	; 0xffffffec
b2005924:	e50b2018 	str	r2, [fp, #-24]	; 0xffffffe8
b2005928:	e51b3014 	ldr	r3, [fp, #-20]	; 0xffffffec
b200592c:	e50b3008 	str	r3, [fp, #-8]
b2005930:	e51b3010 	ldr	r3, [fp, #-16]
b2005934:	e50b300c 	str	r3, [fp, #-12]
b2005938:	ea00000c 	b	b2005970 <_strncpy+0x60>
b200593c:	e51b3008 	ldr	r3, [fp, #-8]
b2005940:	e5d32000 	ldrb	r2, [r3]
b2005944:	e51b300c 	ldr	r3, [fp, #-12]
b2005948:	e5c32000 	strb	r2, [r3]
b200594c:	e51b300c 	ldr	r3, [fp, #-12]
b2005950:	e2833001 	add	r3, r3, #1
b2005954:	e50b300c 	str	r3, [fp, #-12]
b2005958:	e51b3008 	ldr	r3, [fp, #-8]
b200595c:	e2833001 	add	r3, r3, #1
b2005960:	e50b3008 	str	r3, [fp, #-8]
b2005964:	e51b3018 	ldr	r3, [fp, #-24]	; 0xffffffe8
b2005968:	e2433001 	sub	r3, r3, #1
b200596c:	e50b3018 	str	r3, [fp, #-24]	; 0xffffffe8
b2005970:	e51b3018 	ldr	r3, [fp, #-24]	; 0xffffffe8
b2005974:	e3530000 	cmp	r3, #0
b2005978:	1affffef 	bne	b200593c <_strncpy+0x2c>
b200597c:	e51b300c 	ldr	r3, [fp, #-12]
b2005980:	e3a02000 	mov	r2, #0
b2005984:	e5c32000 	strb	r2, [r3]
b2005988:	e320f000 	nop	{0}
b200598c:	e28bd000 	add	sp, fp, #0
b2005990:	e49db004 	pop	{fp}		; (ldr fp, [sp], #4)
b2005994:	e12fff1e 	bx	lr

b2005998 <strtok_fst>:
b2005998:	e92d4810 	push	{r4, fp, lr}
b200599c:	e28db008 	add	fp, sp, #8
b20059a0:	e24dd024 	sub	sp, sp, #36	; 0x24
b20059a4:	e50b0020 	str	r0, [fp, #-32]	; 0xffffffe0
b20059a8:	e50b1024 	str	r1, [fp, #-36]	; 0xffffffdc
b20059ac:	e50b2028 	str	r2, [fp, #-40]	; 0xffffffd8
b20059b0:	e50b302c 	str	r3, [fp, #-44]	; 0xffffffd4
b20059b4:	e1a0300d 	mov	r3, sp
b20059b8:	e1a04003 	mov	r4, r3
b20059bc:	e51b3020 	ldr	r3, [fp, #-32]	; 0xffffffe0
b20059c0:	e50b3010 	str	r3, [fp, #-16]
b20059c4:	e51b3024 	ldr	r3, [fp, #-36]	; 0xffffffdc
b20059c8:	e50b3014 	str	r3, [fp, #-20]	; 0xffffffec
b20059cc:	e51b3028 	ldr	r3, [fp, #-40]	; 0xffffffd8
b20059d0:	e283c001 	add	ip, r3, #1
b20059d4:	e24c3001 	sub	r3, ip, #1
b20059d8:	e50b3018 	str	r3, [fp, #-24]	; 0xffffffe8
b20059dc:	e1a0300c 	mov	r3, ip
b20059e0:	e1a00003 	mov	r0, r3
b20059e4:	e3a01000 	mov	r1, #0
b20059e8:	e3a02000 	mov	r2, #0
b20059ec:	e3a03000 	mov	r3, #0
b20059f0:	e1a03181 	lsl	r3, r1, #3
b20059f4:	e1833ea0 	orr	r3, r3, r0, lsr #29
b20059f8:	e1a02180 	lsl	r2, r0, #3
b20059fc:	e1a0300c 	mov	r3, ip
b2005a00:	e1a00003 	mov	r0, r3
b2005a04:	e3a01000 	mov	r1, #0
b2005a08:	e3a02000 	mov	r2, #0
b2005a0c:	e3a03000 	mov	r3, #0
b2005a10:	e1a03181 	lsl	r3, r1, #3
b2005a14:	e1833ea0 	orr	r3, r3, r0, lsr #29
b2005a18:	e1a02180 	lsl	r2, r0, #3
b2005a1c:	e1a0300c 	mov	r3, ip
b2005a20:	e2833007 	add	r3, r3, #7
b2005a24:	e1a031a3 	lsr	r3, r3, #3
b2005a28:	e1a03183 	lsl	r3, r3, #3
b2005a2c:	e04dd003 	sub	sp, sp, r3
b2005a30:	e1a0300d 	mov	r3, sp
b2005a34:	e2833000 	add	r3, r3, #0
b2005a38:	e50b301c 	str	r3, [fp, #-28]	; 0xffffffe4
b2005a3c:	e51b301c 	ldr	r3, [fp, #-28]	; 0xffffffe4
b2005a40:	e1a0200c 	mov	r2, ip
b2005a44:	e3a01000 	mov	r1, #0
b2005a48:	e1a00003 	mov	r0, r3
b2005a4c:	ebfff46a 	bl	b2002bfc <_memset>
b2005a50:	e51b301c 	ldr	r3, [fp, #-28]	; 0xffffffe4
b2005a54:	e51b2028 	ldr	r2, [fp, #-40]	; 0xffffffd8
b2005a58:	e51b1010 	ldr	r1, [fp, #-16]
b2005a5c:	e1a00003 	mov	r0, r3
b2005a60:	ebffffaa 	bl	b2005910 <_strncpy>
b2005a64:	ea00000b 	b	b2005a98 <strtok_fst+0x100>
b2005a68:	e51b3010 	ldr	r3, [fp, #-16]
b2005a6c:	e2833001 	add	r3, r3, #1
b2005a70:	e50b3010 	str	r3, [fp, #-16]
b2005a74:	e51b3010 	ldr	r3, [fp, #-16]
b2005a78:	e5d33000 	ldrb	r3, [r3]
b2005a7c:	e3530000 	cmp	r3, #0
b2005a80:	0a00000c 	beq	b2005ab8 <strtok_fst+0x120>
b2005a84:	e51b301c 	ldr	r3, [fp, #-28]	; 0xffffffe4
b2005a88:	e51b2028 	ldr	r2, [fp, #-40]	; 0xffffffd8
b2005a8c:	e51b1010 	ldr	r1, [fp, #-16]
b2005a90:	e1a00003 	mov	r0, r3
b2005a94:	ebffff9d 	bl	b2005910 <_strncpy>
b2005a98:	e51b301c 	ldr	r3, [fp, #-28]	; 0xffffffe4
b2005a9c:	e51b1024 	ldr	r1, [fp, #-36]	; 0xffffffdc
b2005aa0:	e1a00003 	mov	r0, r3
b2005aa4:	ebffff21 	bl	b2005730 <_strcmp>
b2005aa8:	e1a03000 	mov	r3, r0
b2005aac:	e3530000 	cmp	r3, #0
b2005ab0:	1affffec 	bne	b2005a68 <strtok_fst+0xd0>
b2005ab4:	ea000000 	b	b2005abc <strtok_fst+0x124>
b2005ab8:	e320f000 	nop	{0}
b2005abc:	e51b2010 	ldr	r2, [fp, #-16]
b2005ac0:	e51b3020 	ldr	r3, [fp, #-32]	; 0xffffffe0
b2005ac4:	e0423003 	sub	r3, r2, r3
b2005ac8:	e1a02003 	mov	r2, r3
b2005acc:	e51b1020 	ldr	r1, [fp, #-32]	; 0xffffffe0
b2005ad0:	e51b002c 	ldr	r0, [fp, #-44]	; 0xffffffd4
b2005ad4:	ebffff8d 	bl	b2005910 <_strncpy>
b2005ad8:	e51b3010 	ldr	r3, [fp, #-16]
b2005adc:	e5d33000 	ldrb	r3, [r3]
b2005ae0:	e3530000 	cmp	r3, #0
b2005ae4:	0a000005 	beq	b2005b00 <strtok_fst+0x168>
b2005ae8:	e51b3028 	ldr	r3, [fp, #-40]	; 0xffffffd8
b2005aec:	e51b2010 	ldr	r2, [fp, #-16]
b2005af0:	e0823003 	add	r3, r2, r3
b2005af4:	e50b3010 	str	r3, [fp, #-16]
b2005af8:	e51b3010 	ldr	r3, [fp, #-16]
b2005afc:	ea000000 	b	b2005b04 <strtok_fst+0x16c>
b2005b00:	e3a03000 	mov	r3, #0
b2005b04:	e1a0d004 	mov	sp, r4
b2005b08:	e1a00003 	mov	r0, r3
b2005b0c:	e24bd008 	sub	sp, fp, #8
b2005b10:	e8bd8810 	pop	{r4, fp, pc}

b2005b14 <syscall_handler>:
b2005b14:	e92d4800 	push	{fp, lr}
b2005b18:	e28db004 	add	fp, sp, #4
b2005b1c:	e24dd010 	sub	sp, sp, #16
b2005b20:	e50b0008 	str	r0, [fp, #-8]
b2005b24:	e50b100c 	str	r1, [fp, #-12]
b2005b28:	e50b2010 	str	r2, [fp, #-16]
b2005b2c:	e51b3008 	ldr	r3, [fp, #-8]
b2005b30:	e2433001 	sub	r3, r3, #1
b2005b34:	e3530011 	cmp	r3, #17
b2005b38:	979ff103 	ldrls	pc, [pc, r3, lsl #2]
b2005b3c:	ea000053 	b	b2005c90 <syscall_handler+0x17c>
b2005b40:	b2005b88 	andlt	r5, r0, #136, 22	; 0x22000
b2005b44:	b2005b9c 	andlt	r5, r0, #156, 22	; 0x27000
b2005b48:	b2005ba8 	andlt	r5, r0, #168, 22	; 0x2a000
b2005b4c:	b2005bb4 	andlt	r5, r0, #180, 22	; 0x2d000
b2005b50:	b2005bc0 	andlt	r5, r0, #192, 22	; 0x30000
b2005b54:	b2005bcc 	andlt	r5, r0, #204, 22	; 0x33000
b2005b58:	b2005bdc 	andlt	r5, r0, #220, 22	; 0x37000
b2005b5c:	b2005be8 	andlt	r5, r0, #232, 22	; 0x3a000
b2005b60:	b2005bf8 	andlt	r5, r0, #248, 22	; 0x3e000
b2005b64:	b2005c04 	andlt	r5, r0, #4, 24	; 0x400
b2005b68:	b2005c10 	andlt	r5, r0, #16, 24	; 0x1000
b2005b6c:	b2005c20 	andlt	r5, r0, #32, 24	; 0x2000
b2005b70:	b2005c30 	andlt	r5, r0, #48, 24	; 0x3000
b2005b74:	b2005c40 	andlt	r5, r0, #64, 24	; 0x4000
b2005b78:	b2005c50 	andlt	r5, r0, #80, 24	; 0x5000
b2005b7c:	b2005c60 	andlt	r5, r0, #96, 24	; 0x6000
b2005b80:	b2005c70 	andlt	r5, r0, #112, 24	; 0x7000
b2005b84:	b2005c80 	andlt	r5, r0, #128, 24	; 0x8000
b2005b88:	e51b3010 	ldr	r3, [fp, #-16]
b2005b8c:	e5933000 	ldr	r3, [r3]
b2005b90:	e1a00003 	mov	r0, r3
b2005b94:	eb000041 	bl	b2005ca0 <__print_hello_handler>
b2005b98:	ea00003d 	b	b2005c94 <syscall_handler+0x180>
b2005b9c:	e51b000c 	ldr	r0, [fp, #-12]
b2005ba0:	eb000049 	bl	b2005ccc <__yield_handler>
b2005ba4:	ea00003a 	b	b2005c94 <syscall_handler+0x180>
b2005ba8:	e51b000c 	ldr	r0, [fp, #-12]
b2005bac:	eb000061 	bl	b2005d38 <__get_tid_handler>
b2005bb0:	ea000037 	b	b2005c94 <syscall_handler+0x180>
b2005bb4:	e51b000c 	ldr	r0, [fp, #-12]
b2005bb8:	eb00006f 	bl	b2005d7c <__exit_handler>
b2005bbc:	ea000034 	b	b2005c94 <syscall_handler+0x180>
b2005bc0:	e51b000c 	ldr	r0, [fp, #-12]
b2005bc4:	eb000099 	bl	b2005e30 <__fork_handler>
b2005bc8:	ea000031 	b	b2005c94 <syscall_handler+0x180>
b2005bcc:	e51b1010 	ldr	r1, [fp, #-16]
b2005bd0:	e51b000c 	ldr	r0, [fp, #-12]
b2005bd4:	eb000107 	bl	b2005ff8 <__do_taskCreate_handler>
b2005bd8:	ea00002d 	b	b2005c94 <syscall_handler+0x180>
b2005bdc:	e51b000c 	ldr	r0, [fp, #-12]
b2005be0:	eb000145 	bl	b20060fc <__malloc_blk_handler>
b2005be4:	ea00002a 	b	b2005c94 <syscall_handler+0x180>
b2005be8:	e51b1010 	ldr	r1, [fp, #-16]
b2005bec:	e51b000c 	ldr	r0, [fp, #-12]
b2005bf0:	eb000157 	bl	b2006154 <__malloc_mfree_blk_handler>
b2005bf4:	ea000026 	b	b2005c94 <syscall_handler+0x180>
b2005bf8:	e51b000c 	ldr	r0, [fp, #-12]
b2005bfc:	eb00015e 	bl	b200617c <__get_mblk_list_handler>
b2005c00:	ea000023 	b	b2005c94 <syscall_handler+0x180>
b2005c04:	e51b000c 	ldr	r0, [fp, #-12]
b2005c08:	eb000182 	bl	b2006218 <__get_task_priority_handler>
b2005c0c:	ea000020 	b	b2005c94 <syscall_handler+0x180>
b2005c10:	e51b1010 	ldr	r1, [fp, #-16]
b2005c14:	e51b000c 	ldr	r0, [fp, #-12]
b2005c18:	eb00018f 	bl	b200625c <__write_handler>
b2005c1c:	ea00001c 	b	b2005c94 <syscall_handler+0x180>
b2005c20:	e51b1010 	ldr	r1, [fp, #-16]
b2005c24:	e51b000c 	ldr	r0, [fp, #-12]
b2005c28:	eb0001b0 	bl	b20062f0 <__read_handler>
b2005c2c:	ea000018 	b	b2005c94 <syscall_handler+0x180>
b2005c30:	e51b1010 	ldr	r1, [fp, #-16]
b2005c34:	e51b000c 	ldr	r0, [fp, #-12]
b2005c38:	eb0001d1 	bl	b2006384 <__open_handler>
b2005c3c:	ea000014 	b	b2005c94 <syscall_handler+0x180>
b2005c40:	e51b1010 	ldr	r1, [fp, #-16]
b2005c44:	e51b000c 	ldr	r0, [fp, #-12]
b2005c48:	eb0001eb 	bl	b20063fc <__getcwd_handler>
b2005c4c:	ea000010 	b	b2005c94 <syscall_handler+0x180>
b2005c50:	e51b1010 	ldr	r1, [fp, #-16]
b2005c54:	e51b000c 	ldr	r0, [fp, #-12]
b2005c58:	eb00020b 	bl	b200648c <__getsubdir_handler>
b2005c5c:	ea00000c 	b	b2005c94 <syscall_handler+0x180>
b2005c60:	e51b1010 	ldr	r1, [fp, #-16]
b2005c64:	e51b000c 	ldr	r0, [fp, #-12]
b2005c68:	eb000248 	bl	b2006590 <__getfdir_handler>
b2005c6c:	ea000008 	b	b2005c94 <syscall_handler+0x180>
b2005c70:	e51b1010 	ldr	r1, [fp, #-16]
b2005c74:	e51b000c 	ldr	r0, [fp, #-12]
b2005c78:	eb000285 	bl	b2006694 <__chdir_handler>
b2005c7c:	ea000004 	b	b2005c94 <syscall_handler+0x180>
b2005c80:	e51b1010 	ldr	r1, [fp, #-16]
b2005c84:	e51b000c 	ldr	r0, [fp, #-12]
b2005c88:	eb0002a5 	bl	b2006724 <__getfullpath_handler>
b2005c8c:	ea000000 	b	b2005c94 <syscall_handler+0x180>
b2005c90:	e320f000 	nop	{0}
b2005c94:	e320f000 	nop	{0}
b2005c98:	e24bd004 	sub	sp, fp, #4
b2005c9c:	e8bd8800 	pop	{fp, pc}

b2005ca0 <__print_hello_handler>:
b2005ca0:	e92d4800 	push	{fp, lr}
b2005ca4:	e28db004 	add	fp, sp, #4
b2005ca8:	e24dd008 	sub	sp, sp, #8
b2005cac:	e50b0008 	str	r0, [fp, #-8]
b2005cb0:	e51b1008 	ldr	r1, [fp, #-8]
b2005cb4:	e3080d2c 	movw	r0, #36140	; 0x8d2c
b2005cb8:	e34b0200 	movt	r0, #45568	; 0xb200
b2005cbc:	ebfff29e 	bl	b200273c <printk>
b2005cc0:	e320f000 	nop	{0}
b2005cc4:	e24bd004 	sub	sp, fp, #4
b2005cc8:	e8bd8800 	pop	{fp, pc}

b2005ccc <__yield_handler>:
b2005ccc:	e92d4800 	push	{fp, lr}
b2005cd0:	e28db004 	add	fp, sp, #4
b2005cd4:	e24dd008 	sub	sp, sp, #8
b2005cd8:	e50b0008 	str	r0, [fp, #-8]
b2005cdc:	e30930e4 	movw	r3, #37092	; 0x90e4
b2005ce0:	e34b3200 	movt	r3, #45568	; 0xb200
b2005ce4:	e5933000 	ldr	r3, [r3]
b2005ce8:	e51b2008 	ldr	r2, [fp, #-8]
b2005cec:	e583201c 	str	r2, [r3, #28]
b2005cf0:	e30930e4 	movw	r3, #37092	; 0x90e4
b2005cf4:	e34b3200 	movt	r3, #45568	; 0xb200
b2005cf8:	e5933000 	ldr	r3, [r3]
b2005cfc:	e3a02001 	mov	r2, #1
b2005d00:	e5832018 	str	r2, [r3, #24]
b2005d04:	e30930e4 	movw	r3, #37092	; 0x90e4
b2005d08:	e34b3200 	movt	r3, #45568	; 0xb200
b2005d0c:	e3a02000 	mov	r2, #0
b2005d10:	e5832000 	str	r2, [r3]
b2005d14:	eb0003b4 	bl	b2006bec <schedFuncContextPrepare>
b2005d18:	e3083ec8 	movw	r3, #36552	; 0x8ec8
b2005d1c:	e34b3200 	movt	r3, #45568	; 0xb200
b2005d20:	e5933000 	ldr	r3, [r3]
b2005d24:	e1a00003 	mov	r0, r3
b2005d28:	ebfffd73 	bl	b20052fc <_call_sched>
b2005d2c:	e320f000 	nop	{0}
b2005d30:	e24bd004 	sub	sp, fp, #4
b2005d34:	e8bd8800 	pop	{fp, pc}

b2005d38 <__get_tid_handler>:
b2005d38:	e52db004 	push	{fp}		; (str fp, [sp, #-4]!)
b2005d3c:	e28db000 	add	fp, sp, #0
b2005d40:	e24dd014 	sub	sp, sp, #20
b2005d44:	e50b0010 	str	r0, [fp, #-16]
b2005d48:	e51b3010 	ldr	r3, [fp, #-16]
b2005d4c:	e50b3008 	str	r3, [fp, #-8]
b2005d50:	e30930e4 	movw	r3, #37092	; 0x90e4
b2005d54:	e34b3200 	movt	r3, #45568	; 0xb200
b2005d58:	e5933000 	ldr	r3, [r3]
b2005d5c:	e5933014 	ldr	r3, [r3, #20]
b2005d60:	e1a02003 	mov	r2, r3
b2005d64:	e51b3008 	ldr	r3, [fp, #-8]
b2005d68:	e5832000 	str	r2, [r3]
b2005d6c:	e320f000 	nop	{0}
b2005d70:	e28bd000 	add	sp, fp, #0
b2005d74:	e49db004 	pop	{fp}		; (ldr fp, [sp], #4)
b2005d78:	e12fff1e 	bx	lr

b2005d7c <__exit_handler>:
b2005d7c:	e92d4800 	push	{fp, lr}
b2005d80:	e28db004 	add	fp, sp, #4
b2005d84:	e24dd010 	sub	sp, sp, #16
b2005d88:	e50b0010 	str	r0, [fp, #-16]
b2005d8c:	e30930e4 	movw	r3, #37092	; 0x90e4
b2005d90:	e34b3200 	movt	r3, #45568	; 0xb200
b2005d94:	e5933000 	ldr	r3, [r3]
b2005d98:	e5933014 	ldr	r3, [r3, #20]
b2005d9c:	e1a01003 	mov	r1, r3
b2005da0:	e3080d64 	movw	r0, #36196	; 0x8d64
b2005da4:	e34b0200 	movt	r0, #45568	; 0xb200
b2005da8:	ebfff263 	bl	b200273c <printk>
b2005dac:	e30930e4 	movw	r3, #37092	; 0x90e4
b2005db0:	e34b3200 	movt	r3, #45568	; 0xb200
b2005db4:	e5933000 	ldr	r3, [r3]
b2005db8:	e3a02002 	mov	r2, #2
b2005dbc:	e5832018 	str	r2, [r3, #24]
b2005dc0:	e30930e4 	movw	r3, #37092	; 0x90e4
b2005dc4:	e34b3200 	movt	r3, #45568	; 0xb200
b2005dc8:	e5933000 	ldr	r3, [r3]
b2005dcc:	e5933008 	ldr	r3, [r3, #8]
b2005dd0:	e1a00003 	mov	r0, r3
b2005dd4:	ebfff66c 	bl	b200378c <which_page>
b2005dd8:	e50b0008 	str	r0, [fp, #-8]
b2005ddc:	e30930e4 	movw	r3, #37092	; 0x90e4
b2005de0:	e34b3200 	movt	r3, #45568	; 0xb200
b2005de4:	e5933000 	ldr	r3, [r3]
b2005de8:	e1a00003 	mov	r0, r3
b2005dec:	eb0004a7 	bl	b2007090 <task_pop>
b2005df0:	e51b0008 	ldr	r0, [fp, #-8]
b2005df4:	ebfff4cb 	bl	b2003128 <page_free>
b2005df8:	eb000350 	bl	b2006b40 <choose_task>
b2005dfc:	e1a02000 	mov	r2, r0
b2005e00:	e30930e4 	movw	r3, #37092	; 0x90e4
b2005e04:	e34b3200 	movt	r3, #45568	; 0xb200
b2005e08:	e5832000 	str	r2, [r3]
b2005e0c:	e30930e4 	movw	r3, #37092	; 0x90e4
b2005e10:	e34b3200 	movt	r3, #45568	; 0xb200
b2005e14:	e5933000 	ldr	r3, [r3]
b2005e18:	e593301c 	ldr	r3, [r3, #28]
b2005e1c:	e1a00003 	mov	r0, r3
b2005e20:	eb000538 	bl	b2007308 <set_context_sp>
b2005e24:	e320f000 	nop	{0}
b2005e28:	e24bd004 	sub	sp, fp, #4
b2005e2c:	e8bd8800 	pop	{fp, pc}

b2005e30 <__fork_handler>:
b2005e30:	e92d4800 	push	{fp, lr}
b2005e34:	e28db004 	add	fp, sp, #4
b2005e38:	e24dd018 	sub	sp, sp, #24
b2005e3c:	e50b0018 	str	r0, [fp, #-24]	; 0xffffffe8
b2005e40:	ebfff49b 	bl	b20030b4 <page_alloc>
b2005e44:	e50b0008 	str	r0, [fp, #-8]
b2005e48:	e51b3008 	ldr	r3, [fp, #-8]
b2005e4c:	e3a02003 	mov	r2, #3
b2005e50:	e5832008 	str	r2, [r3, #8]
b2005e54:	e51b3008 	ldr	r3, [fp, #-8]
b2005e58:	e5933010 	ldr	r3, [r3, #16]
b2005e5c:	e3a02801 	mov	r2, #65536	; 0x10000
b2005e60:	e3a01000 	mov	r1, #0
b2005e64:	e1a00003 	mov	r0, r3
b2005e68:	ebfff363 	bl	b2002bfc <_memset>
b2005e6c:	e51b3008 	ldr	r3, [fp, #-8]
b2005e70:	e5933010 	ldr	r3, [r3, #16]
b2005e74:	e50b300c 	str	r3, [fp, #-12]
b2005e78:	e30930e4 	movw	r3, #37092	; 0x90e4
b2005e7c:	e34b3200 	movt	r3, #45568	; 0xb200
b2005e80:	e5933000 	ldr	r3, [r3]
b2005e84:	e5933008 	ldr	r3, [r3, #8]
b2005e88:	e1a00003 	mov	r0, r3
b2005e8c:	ebfff63e 	bl	b200378c <which_page>
b2005e90:	e50b0010 	str	r0, [fp, #-16]
b2005e94:	e51b3008 	ldr	r3, [fp, #-8]
b2005e98:	e5930010 	ldr	r0, [r3, #16]
b2005e9c:	e51b3010 	ldr	r3, [fp, #-16]
b2005ea0:	e5933010 	ldr	r3, [r3, #16]
b2005ea4:	e3a02801 	mov	r2, #65536	; 0x10000
b2005ea8:	e1a01003 	mov	r1, r3
b2005eac:	ebfff39c 	bl	b2002d24 <_memcpy>
b2005eb0:	e30930e4 	movw	r3, #37092	; 0x90e4
b2005eb4:	e34b3200 	movt	r3, #45568	; 0xb200
b2005eb8:	e5933000 	ldr	r3, [r3]
b2005ebc:	e3a02048 	mov	r2, #72	; 0x48
b2005ec0:	e1a01003 	mov	r1, r3
b2005ec4:	e51b000c 	ldr	r0, [fp, #-12]
b2005ec8:	ebfff395 	bl	b2002d24 <_memcpy>
b2005ecc:	e51b3008 	ldr	r3, [fp, #-8]
b2005ed0:	e5933014 	ldr	r3, [r3, #20]
b2005ed4:	e2433e7f 	sub	r3, r3, #2032	; 0x7f0
b2005ed8:	e243300c 	sub	r3, r3, #12
b2005edc:	e51b200c 	ldr	r2, [fp, #-12]
b2005ee0:	e5823008 	str	r3, [r2, #8]
b2005ee4:	e51b3008 	ldr	r3, [fp, #-8]
b2005ee8:	e5932014 	ldr	r2, [r3, #20]
b2005eec:	e51b300c 	ldr	r3, [fp, #-12]
b2005ef0:	e583200c 	str	r2, [r3, #12]
b2005ef4:	e51b300c 	ldr	r3, [fp, #-12]
b2005ef8:	e593200c 	ldr	r2, [r3, #12]
b2005efc:	e30930e4 	movw	r3, #37092	; 0x90e4
b2005f00:	e34b3200 	movt	r3, #45568	; 0xb200
b2005f04:	e5933000 	ldr	r3, [r3]
b2005f08:	e593100c 	ldr	r1, [r3, #12]
b2005f0c:	e51b3018 	ldr	r3, [fp, #-24]	; 0xffffffe8
b2005f10:	e0413003 	sub	r3, r1, r3
b2005f14:	e2633000 	rsb	r3, r3, #0
b2005f18:	e0822003 	add	r2, r2, r3
b2005f1c:	e51b300c 	ldr	r3, [fp, #-12]
b2005f20:	e583201c 	str	r2, [r3, #28]
b2005f24:	e51b300c 	ldr	r3, [fp, #-12]
b2005f28:	e3a02000 	mov	r2, #0
b2005f2c:	e5832000 	str	r2, [r3]
b2005f30:	e51b300c 	ldr	r3, [fp, #-12]
b2005f34:	e3a02000 	mov	r2, #0
b2005f38:	e5832004 	str	r2, [r3, #4]
b2005f3c:	e51b300c 	ldr	r3, [fp, #-12]
b2005f40:	e3a02001 	mov	r2, #1
b2005f44:	e5832018 	str	r2, [r3, #24]
b2005f48:	e30930e4 	movw	r3, #37092	; 0x90e4
b2005f4c:	e34b3200 	movt	r3, #45568	; 0xb200
b2005f50:	e5933000 	ldr	r3, [r3]
b2005f54:	e5932010 	ldr	r2, [r3, #16]
b2005f58:	e51b300c 	ldr	r3, [fp, #-12]
b2005f5c:	e5832010 	str	r2, [r3, #16]
b2005f60:	e30930e4 	movw	r3, #37092	; 0x90e4
b2005f64:	e34b3200 	movt	r3, #45568	; 0xb200
b2005f68:	e5933000 	ldr	r3, [r3]
b2005f6c:	e5932020 	ldr	r2, [r3, #32]
b2005f70:	e51b300c 	ldr	r3, [fp, #-12]
b2005f74:	e5832020 	str	r2, [r3, #32]
b2005f78:	e3083ecc 	movw	r3, #36556	; 0x8ecc
b2005f7c:	e34b3200 	movt	r3, #45568	; 0xb200
b2005f80:	e5933000 	ldr	r3, [r3]
b2005f84:	e2832001 	add	r2, r3, #1
b2005f88:	e3083ecc 	movw	r3, #36556	; 0x8ecc
b2005f8c:	e34b3200 	movt	r3, #45568	; 0xb200
b2005f90:	e5832000 	str	r2, [r3]
b2005f94:	e3083ecc 	movw	r3, #36556	; 0x8ecc
b2005f98:	e34b3200 	movt	r3, #45568	; 0xb200
b2005f9c:	e5932000 	ldr	r2, [r3]
b2005fa0:	e51b300c 	ldr	r3, [fp, #-12]
b2005fa4:	e5832014 	str	r2, [r3, #20]
b2005fa8:	e3a02e3e 	mov	r2, #992	; 0x3e0
b2005fac:	e3a0103c 	mov	r1, #60	; 0x3c
b2005fb0:	e51b0008 	ldr	r0, [fp, #-8]
b2005fb4:	ebfff546 	bl	b20034d4 <memblks_init>
b2005fb8:	e51b000c 	ldr	r0, [fp, #-12]
b2005fbc:	eb0003c6 	bl	b2006edc <task_enqueue>
b2005fc0:	e51b300c 	ldr	r3, [fp, #-12]
b2005fc4:	e593301c 	ldr	r3, [r3, #28]
b2005fc8:	e3a02000 	mov	r2, #0
b2005fcc:	e5832000 	str	r2, [r3]
b2005fd0:	e51b3018 	ldr	r3, [fp, #-24]	; 0xffffffe8
b2005fd4:	e50b3014 	str	r3, [fp, #-20]	; 0xffffffec
b2005fd8:	e51b300c 	ldr	r3, [fp, #-12]
b2005fdc:	e5933014 	ldr	r3, [r3, #20]
b2005fe0:	e1a02003 	mov	r2, r3
b2005fe4:	e51b3014 	ldr	r3, [fp, #-20]	; 0xffffffec
b2005fe8:	e5832000 	str	r2, [r3]
b2005fec:	e320f000 	nop	{0}
b2005ff0:	e24bd004 	sub	sp, fp, #4
b2005ff4:	e8bd8800 	pop	{fp, pc}

b2005ff8 <__do_taskCreate_handler>:
b2005ff8:	e92d4800 	push	{fp, lr}
b2005ffc:	e28db004 	add	fp, sp, #4
b2006000:	e24dd018 	sub	sp, sp, #24
b2006004:	e50b0018 	str	r0, [fp, #-24]	; 0xffffffe8
b2006008:	e50b101c 	str	r1, [fp, #-28]	; 0xffffffe4
b200600c:	e51b301c 	ldr	r3, [fp, #-28]	; 0xffffffe4
b2006010:	e50b3008 	str	r3, [fp, #-8]
b2006014:	ebfff426 	bl	b20030b4 <page_alloc>
b2006018:	e50b000c 	str	r0, [fp, #-12]
b200601c:	e51b300c 	ldr	r3, [fp, #-12]
b2006020:	e3a02003 	mov	r2, #3
b2006024:	e5832008 	str	r2, [r3, #8]
b2006028:	e51b300c 	ldr	r3, [fp, #-12]
b200602c:	e5933010 	ldr	r3, [r3, #16]
b2006030:	e3a02801 	mov	r2, #65536	; 0x10000
b2006034:	e3a01000 	mov	r1, #0
b2006038:	e1a00003 	mov	r0, r3
b200603c:	ebfff2ee 	bl	b2002bfc <_memset>
b2006040:	e51b300c 	ldr	r3, [fp, #-12]
b2006044:	e5933010 	ldr	r3, [r3, #16]
b2006048:	e50b3010 	str	r3, [fp, #-16]
b200604c:	e51b300c 	ldr	r3, [fp, #-12]
b2006050:	e5933010 	ldr	r3, [r3, #16]
b2006054:	e2833048 	add	r3, r3, #72	; 0x48
b2006058:	e1a02003 	mov	r2, r3
b200605c:	e51b300c 	ldr	r3, [fp, #-12]
b2006060:	e5832018 	str	r2, [r3, #24]
b2006064:	e51b300c 	ldr	r3, [fp, #-12]
b2006068:	e5932018 	ldr	r2, [r3, #24]
b200606c:	e51b300c 	ldr	r3, [fp, #-12]
b2006070:	e583201c 	str	r2, [r3, #28]
b2006074:	e51b3008 	ldr	r3, [fp, #-8]
b2006078:	e5931000 	ldr	r1, [r3]
b200607c:	e51b300c 	ldr	r3, [fp, #-12]
b2006080:	e5933014 	ldr	r3, [r3, #20]
b2006084:	e2432e7f 	sub	r2, r3, #2032	; 0x7f0
b2006088:	e242200c 	sub	r2, r2, #12
b200608c:	e51b3008 	ldr	r3, [fp, #-8]
b2006090:	e5933004 	ldr	r3, [r3, #4]
b2006094:	e51b0010 	ldr	r0, [fp, #-16]
b2006098:	eb0002f5 	bl	b2006c74 <taskCreate>
b200609c:	e51b3018 	ldr	r3, [fp, #-24]	; 0xffffffe8
b20060a0:	e50b3014 	str	r3, [fp, #-20]	; 0xffffffec
b20060a4:	e51b3010 	ldr	r3, [fp, #-16]
b20060a8:	e5933014 	ldr	r3, [r3, #20]
b20060ac:	e1a02003 	mov	r2, r3
b20060b0:	e51b3014 	ldr	r3, [fp, #-20]	; 0xffffffec
b20060b4:	e5832000 	str	r2, [r3]
b20060b8:	e3a02e3e 	mov	r2, #992	; 0x3e0
b20060bc:	e3a0103c 	mov	r1, #60	; 0x3c
b20060c0:	e51b000c 	ldr	r0, [fp, #-12]
b20060c4:	ebfff502 	bl	b20034d4 <memblks_init>
b20060c8:	e51b0010 	ldr	r0, [fp, #-16]
b20060cc:	eb000367 	bl	b2006e70 <open_console_in_out>
b20060d0:	e30930e4 	movw	r3, #37092	; 0x90e4
b20060d4:	e34b3200 	movt	r3, #45568	; 0xb200
b20060d8:	e5933000 	ldr	r3, [r3]
b20060dc:	e5932044 	ldr	r2, [r3, #68]	; 0x44
b20060e0:	e51b3010 	ldr	r3, [fp, #-16]
b20060e4:	e5832044 	str	r2, [r3, #68]	; 0x44
b20060e8:	e51b0010 	ldr	r0, [fp, #-16]
b20060ec:	eb00037a 	bl	b2006edc <task_enqueue>
b20060f0:	e320f000 	nop	{0}
b20060f4:	e24bd004 	sub	sp, fp, #4
b20060f8:	e8bd8800 	pop	{fp, pc}

b20060fc <__malloc_blk_handler>:
b20060fc:	e92d4800 	push	{fp, lr}
b2006100:	e28db004 	add	fp, sp, #4
b2006104:	e24dd010 	sub	sp, sp, #16
b2006108:	e50b0010 	str	r0, [fp, #-16]
b200610c:	e51b3010 	ldr	r3, [fp, #-16]
b2006110:	e50b3008 	str	r3, [fp, #-8]
b2006114:	e30930e4 	movw	r3, #37092	; 0x90e4
b2006118:	e34b3200 	movt	r3, #45568	; 0xb200
b200611c:	e5933000 	ldr	r3, [r3]
b2006120:	e5933008 	ldr	r3, [r3, #8]
b2006124:	e1a00003 	mov	r0, r3
b2006128:	ebfff597 	bl	b200378c <which_page>
b200612c:	e50b000c 	str	r0, [fp, #-12]
b2006130:	e51b000c 	ldr	r0, [fp, #-12]
b2006134:	ebfff522 	bl	b20035c4 <blk_alloc>
b2006138:	e1a03000 	mov	r3, r0
b200613c:	e1a02003 	mov	r2, r3
b2006140:	e51b3008 	ldr	r3, [fp, #-8]
b2006144:	e5832000 	str	r2, [r3]
b2006148:	e320f000 	nop	{0}
b200614c:	e24bd004 	sub	sp, fp, #4
b2006150:	e8bd8800 	pop	{fp, pc}

b2006154 <__malloc_mfree_blk_handler>:
b2006154:	e92d4800 	push	{fp, lr}
b2006158:	e28db004 	add	fp, sp, #4
b200615c:	e24dd008 	sub	sp, sp, #8
b2006160:	e50b0008 	str	r0, [fp, #-8]
b2006164:	e50b100c 	str	r1, [fp, #-12]
b2006168:	e51b000c 	ldr	r0, [fp, #-12]
b200616c:	ebfff5d6 	bl	b20038cc <free_blk>
b2006170:	e320f000 	nop	{0}
b2006174:	e24bd004 	sub	sp, fp, #4
b2006178:	e8bd8800 	pop	{fp, pc}

b200617c <__get_mblk_list_handler>:
b200617c:	e92d4800 	push	{fp, lr}
b2006180:	e28db004 	add	fp, sp, #4
b2006184:	e24dd010 	sub	sp, sp, #16
b2006188:	e50b0010 	str	r0, [fp, #-16]
b200618c:	e30930e4 	movw	r3, #37092	; 0x90e4
b2006190:	e34b3200 	movt	r3, #45568	; 0xb200
b2006194:	e5933000 	ldr	r3, [r3]
b2006198:	e5933008 	ldr	r3, [r3, #8]
b200619c:	e1a00003 	mov	r0, r3
b20061a0:	ebfff579 	bl	b200378c <which_page>
b20061a4:	e50b000c 	str	r0, [fp, #-12]
b20061a8:	e51b300c 	ldr	r3, [fp, #-12]
b20061ac:	e593301c 	ldr	r3, [r3, #28]
b20061b0:	e50b3008 	str	r3, [fp, #-8]
b20061b4:	ea000009 	b	b20061e0 <__get_mblk_list_handler+0x64>
b20061b8:	e51b3008 	ldr	r3, [fp, #-8]
b20061bc:	e5933000 	ldr	r3, [r3]
b20061c0:	e1a02003 	mov	r2, r3
b20061c4:	e51b1008 	ldr	r1, [fp, #-8]
b20061c8:	e3080d78 	movw	r0, #36216	; 0x8d78
b20061cc:	e34b0200 	movt	r0, #45568	; 0xb200
b20061d0:	ebfff159 	bl	b200273c <printk>
b20061d4:	e51b3008 	ldr	r3, [fp, #-8]
b20061d8:	e5933000 	ldr	r3, [r3]
b20061dc:	e50b3008 	str	r3, [fp, #-8]
b20061e0:	e51b3008 	ldr	r3, [fp, #-8]
b20061e4:	e5933000 	ldr	r3, [r3]
b20061e8:	e3530000 	cmp	r3, #0
b20061ec:	1afffff1 	bne	b20061b8 <__get_mblk_list_handler+0x3c>
b20061f0:	e51b3008 	ldr	r3, [fp, #-8]
b20061f4:	e5933000 	ldr	r3, [r3]
b20061f8:	e1a02003 	mov	r2, r3
b20061fc:	e51b1008 	ldr	r1, [fp, #-8]
b2006200:	e3080d78 	movw	r0, #36216	; 0x8d78
b2006204:	e34b0200 	movt	r0, #45568	; 0xb200
b2006208:	ebfff14b 	bl	b200273c <printk>
b200620c:	e320f000 	nop	{0}
b2006210:	e24bd004 	sub	sp, fp, #4
b2006214:	e8bd8800 	pop	{fp, pc}

b2006218 <__get_task_priority_handler>:
b2006218:	e52db004 	push	{fp}		; (str fp, [sp, #-4]!)
b200621c:	e28db000 	add	fp, sp, #0
b2006220:	e24dd014 	sub	sp, sp, #20
b2006224:	e50b0010 	str	r0, [fp, #-16]
b2006228:	e51b3010 	ldr	r3, [fp, #-16]
b200622c:	e50b3008 	str	r3, [fp, #-8]
b2006230:	e30930e4 	movw	r3, #37092	; 0x90e4
b2006234:	e34b3200 	movt	r3, #45568	; 0xb200
b2006238:	e5933000 	ldr	r3, [r3]
b200623c:	e5933020 	ldr	r3, [r3, #32]
b2006240:	e1a02003 	mov	r2, r3
b2006244:	e51b3008 	ldr	r3, [fp, #-8]
b2006248:	e5832000 	str	r2, [r3]
b200624c:	e320f000 	nop	{0}
b2006250:	e28bd000 	add	sp, fp, #0
b2006254:	e49db004 	pop	{fp}		; (ldr fp, [sp], #4)
b2006258:	e12fff1e 	bx	lr

b200625c <__write_handler>:
b200625c:	e92d4800 	push	{fp, lr}
b2006260:	e28db004 	add	fp, sp, #4
b2006264:	e24dd020 	sub	sp, sp, #32
b2006268:	e50b0020 	str	r0, [fp, #-32]	; 0xffffffe0
b200626c:	e50b1024 	str	r1, [fp, #-36]	; 0xffffffdc
b2006270:	e51b3024 	ldr	r3, [fp, #-36]	; 0xffffffdc
b2006274:	e50b3008 	str	r3, [fp, #-8]
b2006278:	e51b3008 	ldr	r3, [fp, #-8]
b200627c:	e5933000 	ldr	r3, [r3]
b2006280:	e50b300c 	str	r3, [fp, #-12]
b2006284:	e51b3008 	ldr	r3, [fp, #-8]
b2006288:	e5933004 	ldr	r3, [r3, #4]
b200628c:	e50b3010 	str	r3, [fp, #-16]
b2006290:	e51b3008 	ldr	r3, [fp, #-8]
b2006294:	e5933008 	ldr	r3, [r3, #8]
b2006298:	e50b3014 	str	r3, [fp, #-20]	; 0xffffffec
b200629c:	e30930e4 	movw	r3, #37092	; 0x90e4
b20062a0:	e34b3200 	movt	r3, #45568	; 0xb200
b20062a4:	e5932000 	ldr	r2, [r3]
b20062a8:	e51b300c 	ldr	r3, [fp, #-12]
b20062ac:	e2833008 	add	r3, r3, #8
b20062b0:	e1a03103 	lsl	r3, r3, #2
b20062b4:	e0823003 	add	r3, r2, r3
b20062b8:	e5933004 	ldr	r3, [r3, #4]
b20062bc:	e5933010 	ldr	r3, [r3, #16]
b20062c0:	e51b1014 	ldr	r1, [fp, #-20]	; 0xffffffec
b20062c4:	e51b0010 	ldr	r0, [fp, #-16]
b20062c8:	e12fff33 	blx	r3
b20062cc:	e50b0018 	str	r0, [fp, #-24]	; 0xffffffe8
b20062d0:	e51b3020 	ldr	r3, [fp, #-32]	; 0xffffffe0
b20062d4:	e50b301c 	str	r3, [fp, #-28]	; 0xffffffe4
b20062d8:	e51b2018 	ldr	r2, [fp, #-24]	; 0xffffffe8
b20062dc:	e51b301c 	ldr	r3, [fp, #-28]	; 0xffffffe4
b20062e0:	e5832000 	str	r2, [r3]
b20062e4:	e320f000 	nop	{0}
b20062e8:	e24bd004 	sub	sp, fp, #4
b20062ec:	e8bd8800 	pop	{fp, pc}

b20062f0 <__read_handler>:
b20062f0:	e92d4800 	push	{fp, lr}
b20062f4:	e28db004 	add	fp, sp, #4
b20062f8:	e24dd020 	sub	sp, sp, #32
b20062fc:	e50b0020 	str	r0, [fp, #-32]	; 0xffffffe0
b2006300:	e50b1024 	str	r1, [fp, #-36]	; 0xffffffdc
b2006304:	e51b3024 	ldr	r3, [fp, #-36]	; 0xffffffdc
b2006308:	e50b3008 	str	r3, [fp, #-8]
b200630c:	e51b3008 	ldr	r3, [fp, #-8]
b2006310:	e5933000 	ldr	r3, [r3]
b2006314:	e50b300c 	str	r3, [fp, #-12]
b2006318:	e51b3008 	ldr	r3, [fp, #-8]
b200631c:	e5933004 	ldr	r3, [r3, #4]
b2006320:	e50b3010 	str	r3, [fp, #-16]
b2006324:	e51b3008 	ldr	r3, [fp, #-8]
b2006328:	e5933008 	ldr	r3, [r3, #8]
b200632c:	e50b3014 	str	r3, [fp, #-20]	; 0xffffffec
b2006330:	e30930e4 	movw	r3, #37092	; 0x90e4
b2006334:	e34b3200 	movt	r3, #45568	; 0xb200
b2006338:	e5932000 	ldr	r2, [r3]
b200633c:	e51b300c 	ldr	r3, [fp, #-12]
b2006340:	e2833008 	add	r3, r3, #8
b2006344:	e1a03103 	lsl	r3, r3, #2
b2006348:	e0823003 	add	r3, r2, r3
b200634c:	e5933004 	ldr	r3, [r3, #4]
b2006350:	e593300c 	ldr	r3, [r3, #12]
b2006354:	e51b1014 	ldr	r1, [fp, #-20]	; 0xffffffec
b2006358:	e51b0010 	ldr	r0, [fp, #-16]
b200635c:	e12fff33 	blx	r3
b2006360:	e50b0018 	str	r0, [fp, #-24]	; 0xffffffe8
b2006364:	e51b3020 	ldr	r3, [fp, #-32]	; 0xffffffe0
b2006368:	e50b301c 	str	r3, [fp, #-28]	; 0xffffffe4
b200636c:	e51b2018 	ldr	r2, [fp, #-24]	; 0xffffffe8
b2006370:	e51b301c 	ldr	r3, [fp, #-28]	; 0xffffffe4
b2006374:	e5832000 	str	r2, [r3]
b2006378:	e320f000 	nop	{0}
b200637c:	e24bd004 	sub	sp, fp, #4
b2006380:	e8bd8800 	pop	{fp, pc}

b2006384 <__open_handler>:
b2006384:	e92d4800 	push	{fp, lr}
b2006388:	e28db004 	add	fp, sp, #4
b200638c:	e24dd018 	sub	sp, sp, #24
b2006390:	e50b0018 	str	r0, [fp, #-24]	; 0xffffffe8
b2006394:	e50b101c 	str	r1, [fp, #-28]	; 0xffffffe4
b2006398:	e51b301c 	ldr	r3, [fp, #-28]	; 0xffffffe4
b200639c:	e50b3008 	str	r3, [fp, #-8]
b20063a0:	e3e03000 	mvn	r3, #0
b20063a4:	e50b300c 	str	r3, [fp, #-12]
b20063a8:	e30930e4 	movw	r3, #37092	; 0x90e4
b20063ac:	e34b3200 	movt	r3, #45568	; 0xb200
b20063b0:	e5933000 	ldr	r3, [r3]
b20063b4:	e1a01003 	mov	r1, r3
b20063b8:	e51b0008 	ldr	r0, [fp, #-8]
b20063bc:	ebffee09 	bl	b2001be8 <file_open>
b20063c0:	e50b000c 	str	r0, [fp, #-12]
b20063c4:	e51b300c 	ldr	r3, [fp, #-12]
b20063c8:	e3530000 	cmp	r3, #0
b20063cc:	aa000002 	bge	b20063dc <__open_handler+0x58>
b20063d0:	e3080d94 	movw	r0, #36244	; 0x8d94
b20063d4:	e34b0200 	movt	r0, #45568	; 0xb200
b20063d8:	ebfff0d7 	bl	b200273c <printk>
b20063dc:	e51b3018 	ldr	r3, [fp, #-24]	; 0xffffffe8
b20063e0:	e50b3010 	str	r3, [fp, #-16]
b20063e4:	e51b200c 	ldr	r2, [fp, #-12]
b20063e8:	e51b3010 	ldr	r3, [fp, #-16]
b20063ec:	e5832000 	str	r2, [r3]
b20063f0:	e320f000 	nop	{0}
b20063f4:	e24bd004 	sub	sp, fp, #4
b20063f8:	e8bd8800 	pop	{fp, pc}

b20063fc <__getcwd_handler>:
b20063fc:	e92d4800 	push	{fp, lr}
b2006400:	e28db004 	add	fp, sp, #4
b2006404:	e24dd010 	sub	sp, sp, #16
b2006408:	e50b0010 	str	r0, [fp, #-16]
b200640c:	e50b1014 	str	r1, [fp, #-20]	; 0xffffffec
b2006410:	e51b3014 	ldr	r3, [fp, #-20]	; 0xffffffec
b2006414:	e50b3008 	str	r3, [fp, #-8]
b2006418:	e30930e4 	movw	r3, #37092	; 0x90e4
b200641c:	e34b3200 	movt	r3, #45568	; 0xb200
b2006420:	e5933000 	ldr	r3, [r3]
b2006424:	e5933044 	ldr	r3, [r3, #68]	; 0x44
b2006428:	e2833010 	add	r3, r3, #16
b200642c:	e1a00003 	mov	r0, r3
b2006430:	ebfffca8 	bl	b20056d8 <_strlen>
b2006434:	e1a03000 	mov	r3, r0
b2006438:	e1a02003 	mov	r2, r3
b200643c:	e51b3008 	ldr	r3, [fp, #-8]
b2006440:	e5933004 	ldr	r3, [r3, #4]
b2006444:	e1520003 	cmp	r2, r3
b2006448:	9a000002 	bls	b2006458 <__getcwd_handler+0x5c>
b200644c:	e51b3008 	ldr	r3, [fp, #-8]
b2006450:	e3a02000 	mov	r2, #0
b2006454:	e5832000 	str	r2, [r3]
b2006458:	e51b3008 	ldr	r3, [fp, #-8]
b200645c:	e5932000 	ldr	r2, [r3]
b2006460:	e30930e4 	movw	r3, #37092	; 0x90e4
b2006464:	e34b3200 	movt	r3, #45568	; 0xb200
b2006468:	e5933000 	ldr	r3, [r3]
b200646c:	e5933044 	ldr	r3, [r3, #68]	; 0x44
b2006470:	e5933020 	ldr	r3, [r3, #32]
b2006474:	e1a01003 	mov	r1, r3
b2006478:	e1a00002 	mov	r0, r2
b200647c:	ebfffcdc 	bl	b20057f4 <_strcat>
b2006480:	e320f000 	nop	{0}
b2006484:	e24bd004 	sub	sp, fp, #4
b2006488:	e8bd8800 	pop	{fp, pc}

b200648c <__getsubdir_handler>:
b200648c:	e92d4810 	push	{r4, fp, lr}
b2006490:	e28db008 	add	fp, sp, #8
b2006494:	e24dd024 	sub	sp, sp, #36	; 0x24
b2006498:	e50b0028 	str	r0, [fp, #-40]	; 0xffffffd8
b200649c:	e50b102c 	str	r1, [fp, #-44]	; 0xffffffd4
b20064a0:	e51b302c 	ldr	r3, [fp, #-44]	; 0xffffffd4
b20064a4:	e50b3014 	str	r3, [fp, #-20]	; 0xffffffec
b20064a8:	e51b3014 	ldr	r3, [fp, #-20]	; 0xffffffec
b20064ac:	e5933000 	ldr	r3, [r3]
b20064b0:	e50b3018 	str	r3, [fp, #-24]	; 0xffffffe8
b20064b4:	e51b3014 	ldr	r3, [fp, #-20]	; 0xffffffec
b20064b8:	e5933004 	ldr	r3, [r3, #4]
b20064bc:	e50b301c 	str	r3, [fp, #-28]	; 0xffffffe4
b20064c0:	e51b301c 	ldr	r3, [fp, #-28]	; 0xffffffe4
b20064c4:	e1a02003 	mov	r2, r3
b20064c8:	e3a01000 	mov	r1, #0
b20064cc:	e51b0018 	ldr	r0, [fp, #-24]	; 0xffffffe8
b20064d0:	ebfff1c9 	bl	b2002bfc <_memset>
b20064d4:	e30930e4 	movw	r3, #37092	; 0x90e4
b20064d8:	e34b3200 	movt	r3, #45568	; 0xb200
b20064dc:	e5933000 	ldr	r3, [r3]
b20064e0:	e5933044 	ldr	r3, [r3, #68]	; 0x44
b20064e4:	e50b3020 	str	r3, [fp, #-32]	; 0xffffffe0
b20064e8:	e51b3020 	ldr	r3, [fp, #-32]	; 0xffffffe0
b20064ec:	e5933000 	ldr	r3, [r3]
b20064f0:	e50b3010 	str	r3, [fp, #-16]
b20064f4:	e3083db0 	movw	r3, #36272	; 0x8db0
b20064f8:	e34b3200 	movt	r3, #45568	; 0xb200
b20064fc:	e50b3024 	str	r3, [fp, #-36]	; 0xffffffdc
b2006500:	ea00001b 	b	b2006574 <__getsubdir_handler+0xe8>
b2006504:	e51b0018 	ldr	r0, [fp, #-24]	; 0xffffffe8
b2006508:	ebfffc72 	bl	b20056d8 <_strlen>
b200650c:	e1a02000 	mov	r2, r0
b2006510:	e51b301c 	ldr	r3, [fp, #-28]	; 0xffffffe4
b2006514:	e0433002 	sub	r3, r3, r2
b2006518:	e1a04003 	mov	r4, r3
b200651c:	e51b3010 	ldr	r3, [fp, #-16]
b2006520:	e5933020 	ldr	r3, [r3, #32]
b2006524:	e1a00003 	mov	r0, r3
b2006528:	ebfffc6a 	bl	b20056d8 <_strlen>
b200652c:	e1a03000 	mov	r3, r0
b2006530:	e2833004 	add	r3, r3, #4
b2006534:	e1540003 	cmp	r4, r3
b2006538:	2a000002 	bcs	b2006548 <__getsubdir_handler+0xbc>
b200653c:	e3a03000 	mov	r3, #0
b2006540:	e50b3018 	str	r3, [fp, #-24]	; 0xffffffe8
b2006544:	ea00000e 	b	b2006584 <__getsubdir_handler+0xf8>
b2006548:	e51b3010 	ldr	r3, [fp, #-16]
b200654c:	e5933020 	ldr	r3, [r3, #32]
b2006550:	e1a01003 	mov	r1, r3
b2006554:	e51b0018 	ldr	r0, [fp, #-24]	; 0xffffffe8
b2006558:	ebfffca5 	bl	b20057f4 <_strcat>
b200655c:	e51b1024 	ldr	r1, [fp, #-36]	; 0xffffffdc
b2006560:	e51b0018 	ldr	r0, [fp, #-24]	; 0xffffffe8
b2006564:	ebfffca2 	bl	b20057f4 <_strcat>
b2006568:	e51b3010 	ldr	r3, [fp, #-16]
b200656c:	e5933008 	ldr	r3, [r3, #8]
b2006570:	e50b3010 	str	r3, [fp, #-16]
b2006574:	e51b3010 	ldr	r3, [fp, #-16]
b2006578:	e3530000 	cmp	r3, #0
b200657c:	1affffe0 	bne	b2006504 <__getsubdir_handler+0x78>
b2006580:	e320f000 	nop	{0}
b2006584:	e320f000 	nop	{0}
b2006588:	e24bd008 	sub	sp, fp, #8
b200658c:	e8bd8810 	pop	{r4, fp, pc}

b2006590 <__getfdir_handler>:
b2006590:	e92d4810 	push	{r4, fp, lr}
b2006594:	e28db008 	add	fp, sp, #8
b2006598:	e24dd024 	sub	sp, sp, #36	; 0x24
b200659c:	e50b0028 	str	r0, [fp, #-40]	; 0xffffffd8
b20065a0:	e50b102c 	str	r1, [fp, #-44]	; 0xffffffd4
b20065a4:	e51b302c 	ldr	r3, [fp, #-44]	; 0xffffffd4
b20065a8:	e50b3014 	str	r3, [fp, #-20]	; 0xffffffec
b20065ac:	e51b3014 	ldr	r3, [fp, #-20]	; 0xffffffec
b20065b0:	e5933000 	ldr	r3, [r3]
b20065b4:	e50b3018 	str	r3, [fp, #-24]	; 0xffffffe8
b20065b8:	e51b3014 	ldr	r3, [fp, #-20]	; 0xffffffec
b20065bc:	e5933004 	ldr	r3, [r3, #4]
b20065c0:	e50b301c 	str	r3, [fp, #-28]	; 0xffffffe4
b20065c4:	e51b301c 	ldr	r3, [fp, #-28]	; 0xffffffe4
b20065c8:	e1a02003 	mov	r2, r3
b20065cc:	e3a01000 	mov	r1, #0
b20065d0:	e51b0018 	ldr	r0, [fp, #-24]	; 0xffffffe8
b20065d4:	ebfff188 	bl	b2002bfc <_memset>
b20065d8:	e30930e4 	movw	r3, #37092	; 0x90e4
b20065dc:	e34b3200 	movt	r3, #45568	; 0xb200
b20065e0:	e5933000 	ldr	r3, [r3]
b20065e4:	e5933044 	ldr	r3, [r3, #68]	; 0x44
b20065e8:	e50b3020 	str	r3, [fp, #-32]	; 0xffffffe0
b20065ec:	e51b3020 	ldr	r3, [fp, #-32]	; 0xffffffe0
b20065f0:	e593300c 	ldr	r3, [r3, #12]
b20065f4:	e50b3010 	str	r3, [fp, #-16]
b20065f8:	e3083db0 	movw	r3, #36272	; 0x8db0
b20065fc:	e34b3200 	movt	r3, #45568	; 0xb200
b2006600:	e50b3024 	str	r3, [fp, #-36]	; 0xffffffdc
b2006604:	ea00001b 	b	b2006678 <__getfdir_handler+0xe8>
b2006608:	e51b0018 	ldr	r0, [fp, #-24]	; 0xffffffe8
b200660c:	ebfffc31 	bl	b20056d8 <_strlen>
b2006610:	e1a02000 	mov	r2, r0
b2006614:	e51b301c 	ldr	r3, [fp, #-28]	; 0xffffffe4
b2006618:	e0433002 	sub	r3, r3, r2
b200661c:	e1a04003 	mov	r4, r3
b2006620:	e51b3010 	ldr	r3, [fp, #-16]
b2006624:	e5933024 	ldr	r3, [r3, #36]	; 0x24
b2006628:	e1a00003 	mov	r0, r3
b200662c:	ebfffc29 	bl	b20056d8 <_strlen>
b2006630:	e1a03000 	mov	r3, r0
b2006634:	e2833004 	add	r3, r3, #4
b2006638:	e1540003 	cmp	r4, r3
b200663c:	2a000002 	bcs	b200664c <__getfdir_handler+0xbc>
b2006640:	e3a03000 	mov	r3, #0
b2006644:	e50b3018 	str	r3, [fp, #-24]	; 0xffffffe8
b2006648:	ea00000e 	b	b2006688 <__getfdir_handler+0xf8>
b200664c:	e51b3010 	ldr	r3, [fp, #-16]
b2006650:	e5933024 	ldr	r3, [r3, #36]	; 0x24
b2006654:	e1a01003 	mov	r1, r3
b2006658:	e51b0018 	ldr	r0, [fp, #-24]	; 0xffffffe8
b200665c:	ebfffc64 	bl	b20057f4 <_strcat>
b2006660:	e51b1024 	ldr	r1, [fp, #-36]	; 0xffffffdc
b2006664:	e51b0018 	ldr	r0, [fp, #-24]	; 0xffffffe8
b2006668:	ebfffc61 	bl	b20057f4 <_strcat>
b200666c:	e51b3010 	ldr	r3, [fp, #-16]
b2006670:	e5933000 	ldr	r3, [r3]
b2006674:	e50b3010 	str	r3, [fp, #-16]
b2006678:	e51b3010 	ldr	r3, [fp, #-16]
b200667c:	e3530000 	cmp	r3, #0
b2006680:	1affffe0 	bne	b2006608 <__getfdir_handler+0x78>
b2006684:	e320f000 	nop	{0}
b2006688:	e320f000 	nop	{0}
b200668c:	e24bd008 	sub	sp, fp, #8
b2006690:	e8bd8810 	pop	{r4, fp, pc}

b2006694 <__chdir_handler>:
b2006694:	e92d4800 	push	{fp, lr}
b2006698:	e28db004 	add	fp, sp, #4
b200669c:	e24dd018 	sub	sp, sp, #24
b20066a0:	e50b0018 	str	r0, [fp, #-24]	; 0xffffffe8
b20066a4:	e50b101c 	str	r1, [fp, #-28]	; 0xffffffe4
b20066a8:	e51b301c 	ldr	r3, [fp, #-28]	; 0xffffffe4
b20066ac:	e50b3008 	str	r3, [fp, #-8]
b20066b0:	e30930e4 	movw	r3, #37092	; 0x90e4
b20066b4:	e34b3200 	movt	r3, #45568	; 0xb200
b20066b8:	e5933000 	ldr	r3, [r3]
b20066bc:	e5933044 	ldr	r3, [r3, #68]	; 0x44
b20066c0:	e50b300c 	str	r3, [fp, #-12]
b20066c4:	e51b1008 	ldr	r1, [fp, #-8]
b20066c8:	e51b000c 	ldr	r0, [fp, #-12]
b20066cc:	ebffed78 	bl	b2001cb4 <find_target_subdir>
b20066d0:	e50b0010 	str	r0, [fp, #-16]
b20066d4:	e51b3018 	ldr	r3, [fp, #-24]	; 0xffffffe8
b20066d8:	e50b3014 	str	r3, [fp, #-20]	; 0xffffffec
b20066dc:	e51b3010 	ldr	r3, [fp, #-16]
b20066e0:	e3530000 	cmp	r3, #0
b20066e4:	0a000008 	beq	b200670c <__chdir_handler+0x78>
b20066e8:	e30930e4 	movw	r3, #37092	; 0x90e4
b20066ec:	e34b3200 	movt	r3, #45568	; 0xb200
b20066f0:	e5933000 	ldr	r3, [r3]
b20066f4:	e51b2010 	ldr	r2, [fp, #-16]
b20066f8:	e5832044 	str	r2, [r3, #68]	; 0x44
b20066fc:	e51b3014 	ldr	r3, [fp, #-20]	; 0xffffffec
b2006700:	e3a02000 	mov	r2, #0
b2006704:	e5832000 	str	r2, [r3]
b2006708:	ea000002 	b	b2006718 <__chdir_handler+0x84>
b200670c:	e51b3014 	ldr	r3, [fp, #-20]	; 0xffffffec
b2006710:	e3e02000 	mvn	r2, #0
b2006714:	e5832000 	str	r2, [r3]
b2006718:	e320f000 	nop	{0}
b200671c:	e24bd004 	sub	sp, fp, #4
b2006720:	e8bd8800 	pop	{fp, pc}

b2006724 <__getfullpath_handler>:
b2006724:	e92d4810 	push	{r4, fp, lr}
b2006728:	e28db008 	add	fp, sp, #8
b200672c:	e24dd06c 	sub	sp, sp, #108	; 0x6c
b2006730:	e50b0070 	str	r0, [fp, #-112]	; 0xffffff90
b2006734:	e50b1074 	str	r1, [fp, #-116]	; 0xffffff8c
b2006738:	e51b3074 	ldr	r3, [fp, #-116]	; 0xffffff8c
b200673c:	e50b301c 	str	r3, [fp, #-28]	; 0xffffffe4
b2006740:	e51b301c 	ldr	r3, [fp, #-28]	; 0xffffffe4
b2006744:	e5933000 	ldr	r3, [r3]
b2006748:	e50b3020 	str	r3, [fp, #-32]	; 0xffffffe0
b200674c:	e51b301c 	ldr	r3, [fp, #-28]	; 0xffffffe4
b2006750:	e5933004 	ldr	r3, [r3, #4]
b2006754:	e50b3024 	str	r3, [fp, #-36]	; 0xffffffdc
b2006758:	e30930e4 	movw	r3, #37092	; 0x90e4
b200675c:	e34b3200 	movt	r3, #45568	; 0xb200
b2006760:	e5933000 	ldr	r3, [r3]
b2006764:	e5933044 	ldr	r3, [r3, #68]	; 0x44
b2006768:	e50b3010 	str	r3, [fp, #-16]
b200676c:	e3a03000 	mov	r3, #0
b2006770:	e50b3014 	str	r3, [fp, #-20]	; 0xffffffec
b2006774:	ea000008 	b	b200679c <__getfullpath_handler+0x78>
b2006778:	e51b3014 	ldr	r3, [fp, #-20]	; 0xffffffec
b200677c:	e1a03103 	lsl	r3, r3, #2
b2006780:	e24b200c 	sub	r2, fp, #12
b2006784:	e0823003 	add	r3, r2, r3
b2006788:	e3a02000 	mov	r2, #0
b200678c:	e503205c 	str	r2, [r3, #-92]	; 0xffffffa4
b2006790:	e51b3014 	ldr	r3, [fp, #-20]	; 0xffffffec
b2006794:	e2833001 	add	r3, r3, #1
b2006798:	e50b3014 	str	r3, [fp, #-20]	; 0xffffffec
b200679c:	e51b3014 	ldr	r3, [fp, #-20]	; 0xffffffec
b20067a0:	e353000f 	cmp	r3, #15
b20067a4:	dafffff3 	ble	b2006778 <__getfullpath_handler+0x54>
b20067a8:	e3a03000 	mov	r3, #0
b20067ac:	e50b3018 	str	r3, [fp, #-24]	; 0xffffffe8
b20067b0:	ea00000b 	b	b20067e4 <__getfullpath_handler+0xc0>
b20067b4:	e51b3018 	ldr	r3, [fp, #-24]	; 0xffffffe8
b20067b8:	e1a03103 	lsl	r3, r3, #2
b20067bc:	e24b200c 	sub	r2, fp, #12
b20067c0:	e0823003 	add	r3, r2, r3
b20067c4:	e51b2010 	ldr	r2, [fp, #-16]
b20067c8:	e503205c 	str	r2, [r3, #-92]	; 0xffffffa4
b20067cc:	e51b3010 	ldr	r3, [fp, #-16]
b20067d0:	e5933004 	ldr	r3, [r3, #4]
b20067d4:	e50b3010 	str	r3, [fp, #-16]
b20067d8:	e51b3018 	ldr	r3, [fp, #-24]	; 0xffffffe8
b20067dc:	e2833001 	add	r3, r3, #1
b20067e0:	e50b3018 	str	r3, [fp, #-24]	; 0xffffffe8
b20067e4:	e51b3010 	ldr	r3, [fp, #-16]
b20067e8:	e3530000 	cmp	r3, #0
b20067ec:	1afffff0 	bne	b20067b4 <__getfullpath_handler+0x90>
b20067f0:	e51b3018 	ldr	r3, [fp, #-24]	; 0xffffffe8
b20067f4:	e50b3028 	str	r3, [fp, #-40]	; 0xffffffd8
b20067f8:	e51b3018 	ldr	r3, [fp, #-24]	; 0xffffffe8
b20067fc:	e2433001 	sub	r3, r3, #1
b2006800:	e50b3018 	str	r3, [fp, #-24]	; 0xffffffe8
b2006804:	ea00001e 	b	b2006884 <__getfullpath_handler+0x160>
b2006808:	e51b0020 	ldr	r0, [fp, #-32]	; 0xffffffe0
b200680c:	ebfffbb1 	bl	b20056d8 <_strlen>
b2006810:	e1a02000 	mov	r2, r0
b2006814:	e51b3024 	ldr	r3, [fp, #-36]	; 0xffffffdc
b2006818:	e0434002 	sub	r4, r3, r2
b200681c:	e51b3018 	ldr	r3, [fp, #-24]	; 0xffffffe8
b2006820:	e1a03103 	lsl	r3, r3, #2
b2006824:	e24b200c 	sub	r2, fp, #12
b2006828:	e0823003 	add	r3, r2, r3
b200682c:	e513305c 	ldr	r3, [r3, #-92]	; 0xffffffa4
b2006830:	e5933020 	ldr	r3, [r3, #32]
b2006834:	e1a00003 	mov	r0, r3
b2006838:	ebfffba6 	bl	b20056d8 <_strlen>
b200683c:	e1a03000 	mov	r3, r0
b2006840:	e1540003 	cmp	r4, r3
b2006844:	aa000002 	bge	b2006854 <__getfullpath_handler+0x130>
b2006848:	e3080db4 	movw	r0, #36276	; 0x8db4
b200684c:	e34b0200 	movt	r0, #45568	; 0xb200
b2006850:	ebffefb9 	bl	b200273c <printk>
b2006854:	e51b3018 	ldr	r3, [fp, #-24]	; 0xffffffe8
b2006858:	e1a03103 	lsl	r3, r3, #2
b200685c:	e24b200c 	sub	r2, fp, #12
b2006860:	e0823003 	add	r3, r2, r3
b2006864:	e513305c 	ldr	r3, [r3, #-92]	; 0xffffffa4
b2006868:	e5933020 	ldr	r3, [r3, #32]
b200686c:	e1a01003 	mov	r1, r3
b2006870:	e51b0020 	ldr	r0, [fp, #-32]	; 0xffffffe0
b2006874:	ebfffbde 	bl	b20057f4 <_strcat>
b2006878:	e51b3018 	ldr	r3, [fp, #-24]	; 0xffffffe8
b200687c:	e2433001 	sub	r3, r3, #1
b2006880:	e50b3018 	str	r3, [fp, #-24]	; 0xffffffe8
b2006884:	e51b3018 	ldr	r3, [fp, #-24]	; 0xffffffe8
b2006888:	e3530000 	cmp	r3, #0
b200688c:	aaffffdd 	bge	b2006808 <__getfullpath_handler+0xe4>
b2006890:	e320f000 	nop	{0}
b2006894:	e320f000 	nop	{0}
b2006898:	e24bd008 	sub	sp, fp, #8
b200689c:	e8bd8810 	pop	{r4, fp, pc}

b20068a0 <syscall_print_hello>:
b20068a0:	e92d4005 	push	{r0, r2, lr}
b20068a4:	e1a02000 	mov	r2, r0
b20068a8:	e3a00001 	mov	r0, #1
b20068ac:	ef000000 	svc	0x00000000
b20068b0:	e8bd4005 	pop	{r0, r2, lr}
b20068b4:	e321f010 	msr	CPSR_c, #16
b20068b8:	e12fff1e 	bx	lr

b20068bc <syscall_yield>:
b20068bc:	e92d4001 	push	{r0, lr}
b20068c0:	e3a00002 	mov	r0, #2
b20068c4:	e92d5fff 	push	{r0, r1, r2, r3, r4, r5, r6, r7, r8, r9, sl, fp, ip, lr}
b20068c8:	e3a00005 	mov	r0, #5
b20068cc:	eb0002e1 	bl	b2007458 <reloadOsTick>
b20068d0:	e8bd5fff 	pop	{r0, r1, r2, r3, r4, r5, r6, r7, r8, r9, sl, fp, ip, lr}
b20068d4:	ef000000 	svc	0x00000000
b20068d8:	e8bd4001 	pop	{r0, lr}
b20068dc:	e321f010 	msr	CPSR_c, #16
b20068e0:	e12fff1e 	bx	lr

b20068e4 <syscall_get_tid>:
b20068e4:	e92d4004 	push	{r2, lr}
b20068e8:	e1a02000 	mov	r2, r0
b20068ec:	e3a00003 	mov	r0, #3
b20068f0:	ef000000 	svc	0x00000000
b20068f4:	e8bd4004 	pop	{r2, lr}
b20068f8:	e321f010 	msr	CPSR_c, #16
b20068fc:	e12fff1e 	bx	lr

b2006900 <syscall_exit>:
b2006900:	e92d4005 	push	{r0, r2, lr}
b2006904:	e1a02000 	mov	r2, r0
b2006908:	e3a00004 	mov	r0, #4
b200690c:	e92d5fff 	push	{r0, r1, r2, r3, r4, r5, r6, r7, r8, r9, sl, fp, ip, lr}
b2006910:	e3a00005 	mov	r0, #5
b2006914:	eb0002cf 	bl	b2007458 <reloadOsTick>
b2006918:	e8bd5fff 	pop	{r0, r1, r2, r3, r4, r5, r6, r7, r8, r9, sl, fp, ip, lr}
b200691c:	ef000000 	svc	0x00000000
b2006920:	e8bd4005 	pop	{r0, r2, lr}
b2006924:	e321f010 	msr	CPSR_c, #16
b2006928:	e12fff1e 	bx	lr

b200692c <syscall_fork>:
b200692c:	e92d4004 	push	{r2, lr}
b2006930:	e1a02000 	mov	r2, r0
b2006934:	e3a00005 	mov	r0, #5
b2006938:	e92d5fff 	push	{r0, r1, r2, r3, r4, r5, r6, r7, r8, r9, sl, fp, ip, lr}
b200693c:	e3a00005 	mov	r0, #5
b2006940:	eb0002c4 	bl	b2007458 <reloadOsTick>
b2006944:	e8bd5fff 	pop	{r0, r1, r2, r3, r4, r5, r6, r7, r8, r9, sl, fp, ip, lr}
b2006948:	ef000000 	svc	0x00000000
b200694c:	e8bd4004 	pop	{r2, lr}
b2006950:	e321f010 	msr	CPSR_c, #16
b2006954:	e12fff1e 	bx	lr

b2006958 <syscall_do_taskCreate>:
b2006958:	e92d4004 	push	{r2, lr}
b200695c:	e1a02000 	mov	r2, r0
b2006960:	e3a00006 	mov	r0, #6
b2006964:	e92d5fff 	push	{r0, r1, r2, r3, r4, r5, r6, r7, r8, r9, sl, fp, ip, lr}
b2006968:	e3a00005 	mov	r0, #5
b200696c:	eb0002b9 	bl	b2007458 <reloadOsTick>
b2006970:	e8bd5fff 	pop	{r0, r1, r2, r3, r4, r5, r6, r7, r8, r9, sl, fp, ip, lr}
b2006974:	ef000000 	svc	0x00000000
b2006978:	e8bd4004 	pop	{r2, lr}
b200697c:	e321f010 	msr	CPSR_c, #16
b2006980:	e12fff1e 	bx	lr

b2006984 <syscall_malloc_blk>:
b2006984:	e92d4004 	push	{r2, lr}
b2006988:	e1a02000 	mov	r2, r0
b200698c:	e3a00007 	mov	r0, #7
b2006990:	e92d5fff 	push	{r0, r1, r2, r3, r4, r5, r6, r7, r8, r9, sl, fp, ip, lr}
b2006994:	e3a00005 	mov	r0, #5
b2006998:	eb0002ae 	bl	b2007458 <reloadOsTick>
b200699c:	e8bd5fff 	pop	{r0, r1, r2, r3, r4, r5, r6, r7, r8, r9, sl, fp, ip, lr}
b20069a0:	ef000000 	svc	0x00000000
b20069a4:	e8bd4004 	pop	{r2, lr}
b20069a8:	e321f010 	msr	CPSR_c, #16
b20069ac:	e12fff1e 	bx	lr

b20069b0 <syscall_mfree_blk>:
b20069b0:	e92d4004 	push	{r2, lr}
b20069b4:	e1a02000 	mov	r2, r0
b20069b8:	e3a00008 	mov	r0, #8
b20069bc:	e92d5fff 	push	{r0, r1, r2, r3, r4, r5, r6, r7, r8, r9, sl, fp, ip, lr}
b20069c0:	e3a00005 	mov	r0, #5
b20069c4:	eb0002a3 	bl	b2007458 <reloadOsTick>
b20069c8:	e8bd5fff 	pop	{r0, r1, r2, r3, r4, r5, r6, r7, r8, r9, sl, fp, ip, lr}
b20069cc:	ef000000 	svc	0x00000000
b20069d0:	e8bd4004 	pop	{r2, lr}
b20069d4:	e321f010 	msr	CPSR_c, #16
b20069d8:	e12fff1e 	bx	lr

b20069dc <syscall_get_mblk_list>:
b20069dc:	e92d4004 	push	{r2, lr}
b20069e0:	e1a02000 	mov	r2, r0
b20069e4:	e3a00009 	mov	r0, #9
b20069e8:	e92d5fff 	push	{r0, r1, r2, r3, r4, r5, r6, r7, r8, r9, sl, fp, ip, lr}
b20069ec:	e3a00005 	mov	r0, #5
b20069f0:	eb000298 	bl	b2007458 <reloadOsTick>
b20069f4:	e8bd5fff 	pop	{r0, r1, r2, r3, r4, r5, r6, r7, r8, r9, sl, fp, ip, lr}
b20069f8:	ef000000 	svc	0x00000000
b20069fc:	e8bd4004 	pop	{r2, lr}
b2006a00:	e321f010 	msr	CPSR_c, #16
b2006a04:	e12fff1e 	bx	lr

b2006a08 <syscall_get_task_priority>:
b2006a08:	e92d4004 	push	{r2, lr}
b2006a0c:	e1a02000 	mov	r2, r0
b2006a10:	e3a0000a 	mov	r0, #10
b2006a14:	ef000000 	svc	0x00000000
b2006a18:	e8bd4004 	pop	{r2, lr}
b2006a1c:	e321f010 	msr	CPSR_c, #16
b2006a20:	e12fff1e 	bx	lr

b2006a24 <syscall_write>:
b2006a24:	e92d4004 	push	{r2, lr}
b2006a28:	e1a02000 	mov	r2, r0
b2006a2c:	e3a0000b 	mov	r0, #11
b2006a30:	ef000000 	svc	0x00000000
b2006a34:	e8bd4004 	pop	{r2, lr}
b2006a38:	e321f010 	msr	CPSR_c, #16
b2006a3c:	e12fff1e 	bx	lr

b2006a40 <syscall_read>:
b2006a40:	e92d4004 	push	{r2, lr}
b2006a44:	e1a02000 	mov	r2, r0
b2006a48:	e3a0000c 	mov	r0, #12
b2006a4c:	ef000000 	svc	0x00000000
b2006a50:	e8bd4004 	pop	{r2, lr}
b2006a54:	e321f010 	msr	CPSR_c, #16
b2006a58:	e12fff1e 	bx	lr

b2006a5c <syscall_open>:
b2006a5c:	e92d4004 	push	{r2, lr}
b2006a60:	e1a02000 	mov	r2, r0
b2006a64:	e3a0000d 	mov	r0, #13
b2006a68:	ef000000 	svc	0x00000000
b2006a6c:	e8bd4004 	pop	{r2, lr}
b2006a70:	e321f010 	msr	CPSR_c, #16
b2006a74:	e12fff1e 	bx	lr

b2006a78 <syscall_getcwd>:
b2006a78:	e92d4004 	push	{r2, lr}
b2006a7c:	e1a02000 	mov	r2, r0
b2006a80:	e3a0000e 	mov	r0, #14
b2006a84:	ef000000 	svc	0x00000000
b2006a88:	e8bd4004 	pop	{r2, lr}
b2006a8c:	e321f010 	msr	CPSR_c, #16
b2006a90:	e12fff1e 	bx	lr

b2006a94 <syscall_getsubdir>:
b2006a94:	e92d4004 	push	{r2, lr}
b2006a98:	e1a02000 	mov	r2, r0
b2006a9c:	e3a0000f 	mov	r0, #15
b2006aa0:	ef000000 	svc	0x00000000
b2006aa4:	e8bd4004 	pop	{r2, lr}
b2006aa8:	e321f010 	msr	CPSR_c, #16
b2006aac:	e12fff1e 	bx	lr

b2006ab0 <syscall_getfdir>:
b2006ab0:	e92d4004 	push	{r2, lr}
b2006ab4:	e1a02000 	mov	r2, r0
b2006ab8:	e3a00010 	mov	r0, #16
b2006abc:	ef000000 	svc	0x00000000
b2006ac0:	e8bd4004 	pop	{r2, lr}
b2006ac4:	e321f010 	msr	CPSR_c, #16
b2006ac8:	e12fff1e 	bx	lr

b2006acc <syscall_chdir>:
b2006acc:	e92d4004 	push	{r2, lr}
b2006ad0:	e1a02000 	mov	r2, r0
b2006ad4:	e3a00011 	mov	r0, #17
b2006ad8:	ef000000 	svc	0x00000000
b2006adc:	e8bd4004 	pop	{r2, lr}
b2006ae0:	e321f010 	msr	CPSR_c, #16
b2006ae4:	e12fff1e 	bx	lr

b2006ae8 <syscall_getfullpath>:
b2006ae8:	e92d4004 	push	{r2, lr}
b2006aec:	e1a02000 	mov	r2, r0
b2006af0:	e3a00012 	mov	r0, #18
b2006af4:	ef000000 	svc	0x00000000
b2006af8:	e8bd4004 	pop	{r2, lr}
b2006afc:	e321f010 	msr	CPSR_c, #16
b2006b00:	e12fff1e 	bx	lr

b2006b04 <sched>:
b2006b04:	e92d4800 	push	{fp, lr}
b2006b08:	e28db004 	add	fp, sp, #4
b2006b0c:	eb00000b 	bl	b2006b40 <choose_task>
b2006b10:	e1a02000 	mov	r2, r0
b2006b14:	e30930e4 	movw	r3, #37092	; 0x90e4
b2006b18:	e34b3200 	movt	r3, #45568	; 0xb200
b2006b1c:	e5832000 	str	r2, [r3]
b2006b20:	e30930e4 	movw	r3, #37092	; 0x90e4
b2006b24:	e34b3200 	movt	r3, #45568	; 0xb200
b2006b28:	e5933000 	ldr	r3, [r3]
b2006b2c:	e593301c 	ldr	r3, [r3, #28]
b2006b30:	e1a00003 	mov	r0, r3
b2006b34:	eb0001e4 	bl	b20072cc <TaskRun>
b2006b38:	e320f000 	nop	{0}
b2006b3c:	e8bd8800 	pop	{fp, pc}

b2006b40 <choose_task>:
b2006b40:	e92d4800 	push	{fp, lr}
b2006b44:	e28db004 	add	fp, sp, #4
b2006b48:	e24dd010 	sub	sp, sp, #16
b2006b4c:	e3a03000 	mov	r3, #0
b2006b50:	e50b3008 	str	r3, [fp, #-8]
b2006b54:	ea00001e 	b	b2006bd4 <choose_task+0x94>
b2006b58:	e30d30f8 	movw	r3, #53496	; 0xd0f8
b2006b5c:	e34b3201 	movt	r3, #45569	; 0xb201
b2006b60:	e51b2008 	ldr	r2, [fp, #-8]
b2006b64:	e7933102 	ldr	r3, [r3, r2, lsl #2]
b2006b68:	e3530000 	cmp	r3, #0
b2006b6c:	0a000015 	beq	b2006bc8 <choose_task+0x88>
b2006b70:	e30d30f8 	movw	r3, #53496	; 0xd0f8
b2006b74:	e34b3201 	movt	r3, #45569	; 0xb201
b2006b78:	e51b2008 	ldr	r2, [fp, #-8]
b2006b7c:	e7933102 	ldr	r3, [r3, r2, lsl #2]
b2006b80:	e5933018 	ldr	r3, [r3, #24]
b2006b84:	e3530001 	cmp	r3, #1
b2006b88:	1a00000e 	bne	b2006bc8 <choose_task+0x88>
b2006b8c:	e30d30f8 	movw	r3, #53496	; 0xd0f8
b2006b90:	e34b3201 	movt	r3, #45569	; 0xb201
b2006b94:	e51b2008 	ldr	r2, [fp, #-8]
b2006b98:	e7933102 	ldr	r3, [r3, r2, lsl #2]
b2006b9c:	e50b300c 	str	r3, [fp, #-12]
b2006ba0:	e51b0008 	ldr	r0, [fp, #-8]
b2006ba4:	eb000100 	bl	b2006fac <task_dequeue>
b2006ba8:	e50b0010 	str	r0, [fp, #-16]
b2006bac:	e51b300c 	ldr	r3, [fp, #-12]
b2006bb0:	e3a02000 	mov	r2, #0
b2006bb4:	e5832018 	str	r2, [r3, #24]
b2006bb8:	e51b000c 	ldr	r0, [fp, #-12]
b2006bbc:	eb0000c6 	bl	b2006edc <task_enqueue>
b2006bc0:	e51b300c 	ldr	r3, [fp, #-12]
b2006bc4:	ea000005 	b	b2006be0 <choose_task+0xa0>
b2006bc8:	e51b3008 	ldr	r3, [fp, #-8]
b2006bcc:	e2833001 	add	r3, r3, #1
b2006bd0:	e50b3008 	str	r3, [fp, #-8]
b2006bd4:	e51b3008 	ldr	r3, [fp, #-8]
b2006bd8:	e3530004 	cmp	r3, #4
b2006bdc:	daffffdd 	ble	b2006b58 <choose_task+0x18>
b2006be0:	e1a00003 	mov	r0, r3
b2006be4:	e24bd004 	sub	sp, fp, #4
b2006be8:	e8bd8800 	pop	{fp, pc}

b2006bec <schedFuncContextPrepare>:
b2006bec:	e52db004 	push	{fp}		; (str fp, [sp, #-4]!)
b2006bf0:	e28db000 	add	fp, sp, #0
b2006bf4:	e3083ec8 	movw	r3, #36552	; 0x8ec8
b2006bf8:	e34b3200 	movt	r3, #45568	; 0xb200
b2006bfc:	e5932000 	ldr	r2, [r3]
b2006c00:	e3063b04 	movw	r3, #27396	; 0x6b04
b2006c04:	e34b3200 	movt	r3, #45568	; 0xb200
b2006c08:	e5823034 	str	r3, [r2, #52]	; 0x34
b2006c0c:	e320f000 	nop	{0}
b2006c10:	e28bd000 	add	sp, fp, #0
b2006c14:	e49db004 	pop	{fp}		; (ldr fp, [sp], #4)
b2006c18:	e12fff1e 	bx	lr

b2006c1c <task_init>:
b2006c1c:	e52db004 	push	{fp}		; (str fp, [sp, #-4]!)
b2006c20:	e28db000 	add	fp, sp, #0
b2006c24:	e24dd00c 	sub	sp, sp, #12
b2006c28:	e3a03000 	mov	r3, #0
b2006c2c:	e50b3008 	str	r3, [fp, #-8]
b2006c30:	ea000007 	b	b2006c54 <task_init+0x38>
b2006c34:	e30d30f8 	movw	r3, #53496	; 0xd0f8
b2006c38:	e34b3201 	movt	r3, #45569	; 0xb201
b2006c3c:	e51b2008 	ldr	r2, [fp, #-8]
b2006c40:	e3a01000 	mov	r1, #0
b2006c44:	e7831102 	str	r1, [r3, r2, lsl #2]
b2006c48:	e51b3008 	ldr	r3, [fp, #-8]
b2006c4c:	e2833001 	add	r3, r3, #1
b2006c50:	e50b3008 	str	r3, [fp, #-8]
b2006c54:	e51b3008 	ldr	r3, [fp, #-8]
b2006c58:	e3530004 	cmp	r3, #4
b2006c5c:	dafffff4 	ble	b2006c34 <task_init+0x18>
b2006c60:	e320f000 	nop	{0}
b2006c64:	e320f000 	nop	{0}
b2006c68:	e28bd000 	add	sp, fp, #0
b2006c6c:	e49db004 	pop	{fp}		; (ldr fp, [sp], #4)
b2006c70:	e12fff1e 	bx	lr

b2006c74 <taskCreate>:
b2006c74:	e52db004 	push	{fp}		; (str fp, [sp, #-4]!)
b2006c78:	e28db000 	add	fp, sp, #0
b2006c7c:	e24dd01c 	sub	sp, sp, #28
b2006c80:	e50b0010 	str	r0, [fp, #-16]
b2006c84:	e50b1014 	str	r1, [fp, #-20]	; 0xffffffec
b2006c88:	e50b2018 	str	r2, [fp, #-24]	; 0xffffffe8
b2006c8c:	e50b301c 	str	r3, [fp, #-28]	; 0xffffffe4
b2006c90:	e51b3018 	ldr	r3, [fp, #-24]	; 0xffffffe8
b2006c94:	e50b300c 	str	r3, [fp, #-12]
b2006c98:	e3083ecc 	movw	r3, #36556	; 0x8ecc
b2006c9c:	e34b3200 	movt	r3, #45568	; 0xb200
b2006ca0:	e5933000 	ldr	r3, [r3]
b2006ca4:	e2832001 	add	r2, r3, #1
b2006ca8:	e3083ecc 	movw	r3, #36556	; 0x8ecc
b2006cac:	e34b3200 	movt	r3, #45568	; 0xb200
b2006cb0:	e5832000 	str	r2, [r3]
b2006cb4:	e3083ecc 	movw	r3, #36556	; 0x8ecc
b2006cb8:	e34b3200 	movt	r3, #45568	; 0xb200
b2006cbc:	e5932000 	ldr	r2, [r3]
b2006cc0:	e51b3010 	ldr	r3, [fp, #-16]
b2006cc4:	e5832014 	str	r2, [r3, #20]
b2006cc8:	e51b3010 	ldr	r3, [fp, #-16]
b2006ccc:	e51b201c 	ldr	r2, [fp, #-28]	; 0xffffffe4
b2006cd0:	e5832020 	str	r2, [r3, #32]
b2006cd4:	e51b3010 	ldr	r3, [fp, #-16]
b2006cd8:	e51b200c 	ldr	r2, [fp, #-12]
b2006cdc:	e5832008 	str	r2, [r3, #8]
b2006ce0:	e51b3010 	ldr	r3, [fp, #-16]
b2006ce4:	e5933008 	ldr	r3, [r3, #8]
b2006ce8:	e2833e7f 	add	r3, r3, #2032	; 0x7f0
b2006cec:	e283300c 	add	r3, r3, #12
b2006cf0:	e51b2010 	ldr	r2, [fp, #-16]
b2006cf4:	e582300c 	str	r3, [r2, #12]
b2006cf8:	e51b3010 	ldr	r3, [fp, #-16]
b2006cfc:	e593300c 	ldr	r3, [r3, #12]
b2006d00:	e243203c 	sub	r2, r3, #60	; 0x3c
b2006d04:	e51b3010 	ldr	r3, [fp, #-16]
b2006d08:	e583201c 	str	r2, [r3, #28]
b2006d0c:	e51b3010 	ldr	r3, [fp, #-16]
b2006d10:	e593301c 	ldr	r3, [r3, #28]
b2006d14:	e51b2014 	ldr	r2, [fp, #-20]	; 0xffffffec
b2006d18:	e5832024 	str	r2, [r3, #36]	; 0x24
b2006d1c:	e51b3010 	ldr	r3, [fp, #-16]
b2006d20:	e51b2014 	ldr	r2, [fp, #-20]	; 0xffffffec
b2006d24:	e5832010 	str	r2, [r3, #16]
b2006d28:	e51b3010 	ldr	r3, [fp, #-16]
b2006d2c:	e3a02001 	mov	r2, #1
b2006d30:	e5832018 	str	r2, [r3, #24]
b2006d34:	e3a03000 	mov	r3, #0
b2006d38:	e50b3008 	str	r3, [fp, #-8]
b2006d3c:	ea000009 	b	b2006d68 <taskCreate+0xf4>
b2006d40:	e51b2010 	ldr	r2, [fp, #-16]
b2006d44:	e51b3008 	ldr	r3, [fp, #-8]
b2006d48:	e2833008 	add	r3, r3, #8
b2006d4c:	e1a03103 	lsl	r3, r3, #2
b2006d50:	e0823003 	add	r3, r2, r3
b2006d54:	e3a02000 	mov	r2, #0
b2006d58:	e5832004 	str	r2, [r3, #4]
b2006d5c:	e51b3008 	ldr	r3, [fp, #-8]
b2006d60:	e2833001 	add	r3, r3, #1
b2006d64:	e50b3008 	str	r3, [fp, #-8]
b2006d68:	e51b3008 	ldr	r3, [fp, #-8]
b2006d6c:	e3530007 	cmp	r3, #7
b2006d70:	dafffff2 	ble	b2006d40 <taskCreate+0xcc>
b2006d74:	e51b3010 	ldr	r3, [fp, #-16]
b2006d78:	e3a02000 	mov	r2, #0
b2006d7c:	e5832044 	str	r2, [r3, #68]	; 0x44
b2006d80:	e51b3010 	ldr	r3, [fp, #-16]
b2006d84:	e5933014 	ldr	r3, [r3, #20]
b2006d88:	e1a00003 	mov	r0, r3
b2006d8c:	e28bd000 	add	sp, fp, #0
b2006d90:	e49db004 	pop	{fp}		; (ldr fp, [sp], #4)
b2006d94:	e12fff1e 	bx	lr

b2006d98 <do_ktaskCreate>:
b2006d98:	e92d4800 	push	{fp, lr}
b2006d9c:	e28db004 	add	fp, sp, #4
b2006da0:	e24dd010 	sub	sp, sp, #16
b2006da4:	e50b0010 	str	r0, [fp, #-16]
b2006da8:	e50b1014 	str	r1, [fp, #-20]	; 0xffffffec
b2006dac:	ebfff0c0 	bl	b20030b4 <page_alloc>
b2006db0:	e50b0008 	str	r0, [fp, #-8]
b2006db4:	e51b3008 	ldr	r3, [fp, #-8]
b2006db8:	e3a02003 	mov	r2, #3
b2006dbc:	e5832008 	str	r2, [r3, #8]
b2006dc0:	e51b3008 	ldr	r3, [fp, #-8]
b2006dc4:	e5933010 	ldr	r3, [r3, #16]
b2006dc8:	e3a02801 	mov	r2, #65536	; 0x10000
b2006dcc:	e3a01000 	mov	r1, #0
b2006dd0:	e1a00003 	mov	r0, r3
b2006dd4:	ebffef88 	bl	b2002bfc <_memset>
b2006dd8:	e51b3008 	ldr	r3, [fp, #-8]
b2006ddc:	e5933010 	ldr	r3, [r3, #16]
b2006de0:	e50b300c 	str	r3, [fp, #-12]
b2006de4:	e51b3008 	ldr	r3, [fp, #-8]
b2006de8:	e5933010 	ldr	r3, [r3, #16]
b2006dec:	e2833048 	add	r3, r3, #72	; 0x48
b2006df0:	e1a02003 	mov	r2, r3
b2006df4:	e51b3008 	ldr	r3, [fp, #-8]
b2006df8:	e5832018 	str	r2, [r3, #24]
b2006dfc:	e51b3008 	ldr	r3, [fp, #-8]
b2006e00:	e5932018 	ldr	r2, [r3, #24]
b2006e04:	e51b3008 	ldr	r3, [fp, #-8]
b2006e08:	e583201c 	str	r2, [r3, #28]
b2006e0c:	e51b3008 	ldr	r3, [fp, #-8]
b2006e10:	e5933014 	ldr	r3, [r3, #20]
b2006e14:	e2432e7f 	sub	r2, r3, #2032	; 0x7f0
b2006e18:	e242200c 	sub	r2, r2, #12
b2006e1c:	e51b3010 	ldr	r3, [fp, #-16]
b2006e20:	e51b1014 	ldr	r1, [fp, #-20]	; 0xffffffec
b2006e24:	e51b000c 	ldr	r0, [fp, #-12]
b2006e28:	ebffff91 	bl	b2006c74 <taskCreate>
b2006e2c:	e3a02e3e 	mov	r2, #992	; 0x3e0
b2006e30:	e3a0103c 	mov	r1, #60	; 0x3c
b2006e34:	e51b0008 	ldr	r0, [fp, #-8]
b2006e38:	ebfff1a5 	bl	b20034d4 <memblks_init>
b2006e3c:	e51b000c 	ldr	r0, [fp, #-12]
b2006e40:	eb00000a 	bl	b2006e70 <open_console_in_out>
b2006e44:	e3083ed4 	movw	r3, #36564	; 0x8ed4
b2006e48:	e34b3200 	movt	r3, #45568	; 0xb200
b2006e4c:	e5932000 	ldr	r2, [r3]
b2006e50:	e51b300c 	ldr	r3, [fp, #-12]
b2006e54:	e5832044 	str	r2, [r3, #68]	; 0x44
b2006e58:	e51b000c 	ldr	r0, [fp, #-12]
b2006e5c:	eb00001e 	bl	b2006edc <task_enqueue>
b2006e60:	e320f000 	nop	{0}
b2006e64:	e1a00003 	mov	r0, r3
b2006e68:	e24bd004 	sub	sp, fp, #4
b2006e6c:	e8bd8800 	pop	{fp, pc}

b2006e70 <open_console_in_out>:
b2006e70:	e92d4800 	push	{fp, lr}
b2006e74:	e28db004 	add	fp, sp, #4
b2006e78:	e24dd008 	sub	sp, sp, #8
b2006e7c:	e50b0008 	str	r0, [fp, #-8]
b2006e80:	e51b1008 	ldr	r1, [fp, #-8]
b2006e84:	e3080dc8 	movw	r0, #36296	; 0x8dc8
b2006e88:	e34b0200 	movt	r0, #45568	; 0xb200
b2006e8c:	ebffeb55 	bl	b2001be8 <file_open>
b2006e90:	e1a03000 	mov	r3, r0
b2006e94:	e3530000 	cmp	r3, #0
b2006e98:	aa000002 	bge	b2006ea8 <open_console_in_out+0x38>
b2006e9c:	e3080dd8 	movw	r0, #36312	; 0x8dd8
b2006ea0:	e34b0200 	movt	r0, #45568	; 0xb200
b2006ea4:	ebffee24 	bl	b200273c <printk>
b2006ea8:	e51b1008 	ldr	r1, [fp, #-8]
b2006eac:	e3080df8 	movw	r0, #36344	; 0x8df8
b2006eb0:	e34b0200 	movt	r0, #45568	; 0xb200
b2006eb4:	ebffeb4b 	bl	b2001be8 <file_open>
b2006eb8:	e1a03000 	mov	r3, r0
b2006ebc:	e3530000 	cmp	r3, #0
b2006ec0:	aa000002 	bge	b2006ed0 <open_console_in_out+0x60>
b2006ec4:	e3080e08 	movw	r0, #36360	; 0x8e08
b2006ec8:	e34b0200 	movt	r0, #45568	; 0xb200
b2006ecc:	ebffee1a 	bl	b200273c <printk>
b2006ed0:	e320f000 	nop	{0}
b2006ed4:	e24bd004 	sub	sp, fp, #4
b2006ed8:	e8bd8800 	pop	{fp, pc}

b2006edc <task_enqueue>:
b2006edc:	e52db004 	push	{fp}		; (str fp, [sp, #-4]!)
b2006ee0:	e28db000 	add	fp, sp, #0
b2006ee4:	e24dd014 	sub	sp, sp, #20
b2006ee8:	e50b0010 	str	r0, [fp, #-16]
b2006eec:	e51b3010 	ldr	r3, [fp, #-16]
b2006ef0:	e5932020 	ldr	r2, [r3, #32]
b2006ef4:	e30d30f8 	movw	r3, #53496	; 0xd0f8
b2006ef8:	e34b3201 	movt	r3, #45569	; 0xb201
b2006efc:	e7933102 	ldr	r3, [r3, r2, lsl #2]
b2006f00:	e3530000 	cmp	r3, #0
b2006f04:	1a00000c 	bne	b2006f3c <task_enqueue+0x60>
b2006f08:	e51b3010 	ldr	r3, [fp, #-16]
b2006f0c:	e3a02000 	mov	r2, #0
b2006f10:	e5832000 	str	r2, [r3]
b2006f14:	e51b3010 	ldr	r3, [fp, #-16]
b2006f18:	e3a02000 	mov	r2, #0
b2006f1c:	e5832004 	str	r2, [r3, #4]
b2006f20:	e51b3010 	ldr	r3, [fp, #-16]
b2006f24:	e5932020 	ldr	r2, [r3, #32]
b2006f28:	e30d30f8 	movw	r3, #53496	; 0xd0f8
b2006f2c:	e34b3201 	movt	r3, #45569	; 0xb201
b2006f30:	e51b1010 	ldr	r1, [fp, #-16]
b2006f34:	e7831102 	str	r1, [r3, r2, lsl #2]
b2006f38:	ea000018 	b	b2006fa0 <task_enqueue+0xc4>
b2006f3c:	e51b3010 	ldr	r3, [fp, #-16]
b2006f40:	e5932020 	ldr	r2, [r3, #32]
b2006f44:	e30d30f8 	movw	r3, #53496	; 0xd0f8
b2006f48:	e34b3201 	movt	r3, #45569	; 0xb201
b2006f4c:	e7933102 	ldr	r3, [r3, r2, lsl #2]
b2006f50:	e50b3008 	str	r3, [fp, #-8]
b2006f54:	ea000002 	b	b2006f64 <task_enqueue+0x88>
b2006f58:	e51b3008 	ldr	r3, [fp, #-8]
b2006f5c:	e5933000 	ldr	r3, [r3]
b2006f60:	e50b3008 	str	r3, [fp, #-8]
b2006f64:	e51b3008 	ldr	r3, [fp, #-8]
b2006f68:	e5933000 	ldr	r3, [r3]
b2006f6c:	e3530000 	cmp	r3, #0
b2006f70:	1afffff8 	bne	b2006f58 <task_enqueue+0x7c>
b2006f74:	e51b3008 	ldr	r3, [fp, #-8]
b2006f78:	e50b300c 	str	r3, [fp, #-12]
b2006f7c:	e51b300c 	ldr	r3, [fp, #-12]
b2006f80:	e51b2010 	ldr	r2, [fp, #-16]
b2006f84:	e5832000 	str	r2, [r3]
b2006f88:	e51b3010 	ldr	r3, [fp, #-16]
b2006f8c:	e51b200c 	ldr	r2, [fp, #-12]
b2006f90:	e5832004 	str	r2, [r3, #4]
b2006f94:	e51b3010 	ldr	r3, [fp, #-16]
b2006f98:	e3a02000 	mov	r2, #0
b2006f9c:	e5832000 	str	r2, [r3]
b2006fa0:	e28bd000 	add	sp, fp, #0
b2006fa4:	e49db004 	pop	{fp}		; (ldr fp, [sp], #4)
b2006fa8:	e12fff1e 	bx	lr

b2006fac <task_dequeue>:
b2006fac:	e92d4800 	push	{fp, lr}
b2006fb0:	e28db004 	add	fp, sp, #4
b2006fb4:	e24dd018 	sub	sp, sp, #24
b2006fb8:	e50b0018 	str	r0, [fp, #-24]	; 0xffffffe8
b2006fbc:	e30d30f8 	movw	r3, #53496	; 0xd0f8
b2006fc0:	e34b3201 	movt	r3, #45569	; 0xb201
b2006fc4:	e51b2018 	ldr	r2, [fp, #-24]	; 0xffffffe8
b2006fc8:	e7933102 	ldr	r3, [r3, r2, lsl #2]
b2006fcc:	e3530000 	cmp	r3, #0
b2006fd0:	1a000004 	bne	b2006fe8 <task_dequeue+0x3c>
b2006fd4:	e3080e28 	movw	r0, #36392	; 0x8e28
b2006fd8:	e34b0200 	movt	r0, #45568	; 0xb200
b2006fdc:	ebffedd6 	bl	b200273c <printk>
b2006fe0:	e3a03000 	mov	r3, #0
b2006fe4:	ea000026 	b	b2007084 <task_dequeue+0xd8>
b2006fe8:	e30d30f8 	movw	r3, #53496	; 0xd0f8
b2006fec:	e34b3201 	movt	r3, #45569	; 0xb201
b2006ff0:	e51b2018 	ldr	r2, [fp, #-24]	; 0xffffffe8
b2006ff4:	e7933102 	ldr	r3, [r3, r2, lsl #2]
b2006ff8:	e5933000 	ldr	r3, [r3]
b2006ffc:	e3530000 	cmp	r3, #0
b2007000:	1a00000b 	bne	b2007034 <task_dequeue+0x88>
b2007004:	e30d30f8 	movw	r3, #53496	; 0xd0f8
b2007008:	e34b3201 	movt	r3, #45569	; 0xb201
b200700c:	e51b2018 	ldr	r2, [fp, #-24]	; 0xffffffe8
b2007010:	e7933102 	ldr	r3, [r3, r2, lsl #2]
b2007014:	e50b3010 	str	r3, [fp, #-16]
b2007018:	e30d30f8 	movw	r3, #53496	; 0xd0f8
b200701c:	e34b3201 	movt	r3, #45569	; 0xb201
b2007020:	e51b2018 	ldr	r2, [fp, #-24]	; 0xffffffe8
b2007024:	e3a01000 	mov	r1, #0
b2007028:	e7831102 	str	r1, [r3, r2, lsl #2]
b200702c:	e51b3010 	ldr	r3, [fp, #-16]
b2007030:	ea000013 	b	b2007084 <task_dequeue+0xd8>
b2007034:	e30d30f8 	movw	r3, #53496	; 0xd0f8
b2007038:	e34b3201 	movt	r3, #45569	; 0xb201
b200703c:	e51b2018 	ldr	r2, [fp, #-24]	; 0xffffffe8
b2007040:	e7933102 	ldr	r3, [r3, r2, lsl #2]
b2007044:	e50b3008 	str	r3, [fp, #-8]
b2007048:	e51b3008 	ldr	r3, [fp, #-8]
b200704c:	e5933000 	ldr	r3, [r3]
b2007050:	e50b300c 	str	r3, [fp, #-12]
b2007054:	e51b300c 	ldr	r3, [fp, #-12]
b2007058:	e3a02000 	mov	r2, #0
b200705c:	e5832004 	str	r2, [r3, #4]
b2007060:	e30d30f8 	movw	r3, #53496	; 0xd0f8
b2007064:	e34b3201 	movt	r3, #45569	; 0xb201
b2007068:	e51b2018 	ldr	r2, [fp, #-24]	; 0xffffffe8
b200706c:	e51b100c 	ldr	r1, [fp, #-12]
b2007070:	e7831102 	str	r1, [r3, r2, lsl #2]
b2007074:	e51b3008 	ldr	r3, [fp, #-8]
b2007078:	e3a02000 	mov	r2, #0
b200707c:	e5832000 	str	r2, [r3]
b2007080:	e51b3008 	ldr	r3, [fp, #-8]
b2007084:	e1a00003 	mov	r0, r3
b2007088:	e24bd004 	sub	sp, fp, #4
b200708c:	e8bd8800 	pop	{fp, pc}

b2007090 <task_pop>:
b2007090:	e92d4800 	push	{fp, lr}
b2007094:	e28db004 	add	fp, sp, #4
b2007098:	e24dd010 	sub	sp, sp, #16
b200709c:	e50b0010 	str	r0, [fp, #-16]
b20070a0:	e51b3010 	ldr	r3, [fp, #-16]
b20070a4:	e3530000 	cmp	r3, #0
b20070a8:	0a00002d 	beq	b2007164 <task_pop+0xd4>
b20070ac:	e51b3010 	ldr	r3, [fp, #-16]
b20070b0:	e5933000 	ldr	r3, [r3]
b20070b4:	e3530000 	cmp	r3, #0
b20070b8:	1a000029 	bne	b2007164 <task_pop+0xd4>
b20070bc:	e51b3010 	ldr	r3, [fp, #-16]
b20070c0:	e5932020 	ldr	r2, [r3, #32]
b20070c4:	e30d30f8 	movw	r3, #53496	; 0xd0f8
b20070c8:	e34b3201 	movt	r3, #45569	; 0xb201
b20070cc:	e7933102 	ldr	r3, [r3, r2, lsl #2]
b20070d0:	e3530000 	cmp	r3, #0
b20070d4:	1a000003 	bne	b20070e8 <task_pop+0x58>
b20070d8:	e3080e28 	movw	r0, #36392	; 0x8e28
b20070dc:	e34b0200 	movt	r0, #45568	; 0xb200
b20070e0:	ebffed95 	bl	b200273c <printk>
b20070e4:	ea00001f 	b	b2007168 <task_pop+0xd8>
b20070e8:	e51b3010 	ldr	r3, [fp, #-16]
b20070ec:	e5932020 	ldr	r2, [r3, #32]
b20070f0:	e30d30f8 	movw	r3, #53496	; 0xd0f8
b20070f4:	e34b3201 	movt	r3, #45569	; 0xb201
b20070f8:	e7933102 	ldr	r3, [r3, r2, lsl #2]
b20070fc:	e5933000 	ldr	r3, [r3]
b2007100:	e3530000 	cmp	r3, #0
b2007104:	1a000009 	bne	b2007130 <task_pop+0xa0>
b2007108:	e3080e40 	movw	r0, #36416	; 0x8e40
b200710c:	e34b0200 	movt	r0, #45568	; 0xb200
b2007110:	ebffed89 	bl	b200273c <printk>
b2007114:	e51b3010 	ldr	r3, [fp, #-16]
b2007118:	e5932020 	ldr	r2, [r3, #32]
b200711c:	e30d30f8 	movw	r3, #53496	; 0xd0f8
b2007120:	e34b3201 	movt	r3, #45569	; 0xb201
b2007124:	e3a01000 	mov	r1, #0
b2007128:	e7831102 	str	r1, [r3, r2, lsl #2]
b200712c:	ea00000d 	b	b2007168 <task_pop+0xd8>
b2007130:	e51b3010 	ldr	r3, [fp, #-16]
b2007134:	e5933004 	ldr	r3, [r3, #4]
b2007138:	e50b3008 	str	r3, [fp, #-8]
b200713c:	e51b3008 	ldr	r3, [fp, #-8]
b2007140:	e3a02000 	mov	r2, #0
b2007144:	e5832000 	str	r2, [r3]
b2007148:	e51b3010 	ldr	r3, [fp, #-16]
b200714c:	e3a02000 	mov	r2, #0
b2007150:	e5832000 	str	r2, [r3]
b2007154:	e51b3010 	ldr	r3, [fp, #-16]
b2007158:	e3a02000 	mov	r2, #0
b200715c:	e5832004 	str	r2, [r3, #4]
b2007160:	ea000000 	b	b2007168 <task_pop+0xd8>
b2007164:	e320f000 	nop	{0}
b2007168:	e24bd004 	sub	sp, fp, #4
b200716c:	e8bd8800 	pop	{fp, pc}

b2007170 <print_task_id_from_head>:
b2007170:	e92d4800 	push	{fp, lr}
b2007174:	e28db004 	add	fp, sp, #4
b2007178:	e24dd010 	sub	sp, sp, #16
b200717c:	e50b0010 	str	r0, [fp, #-16]
b2007180:	e30d30f8 	movw	r3, #53496	; 0xd0f8
b2007184:	e34b3201 	movt	r3, #45569	; 0xb201
b2007188:	e51b2010 	ldr	r2, [fp, #-16]
b200718c:	e7933102 	ldr	r3, [r3, r2, lsl #2]
b2007190:	e3530000 	cmp	r3, #0
b2007194:	1a000003 	bne	b20071a8 <print_task_id_from_head+0x38>
b2007198:	e3080e28 	movw	r0, #36392	; 0x8e28
b200719c:	e34b0200 	movt	r0, #45568	; 0xb200
b20071a0:	ebffed65 	bl	b200273c <printk>
b20071a4:	ea000018 	b	b200720c <print_task_id_from_head+0x9c>
b20071a8:	e30d30f8 	movw	r3, #53496	; 0xd0f8
b20071ac:	e34b3201 	movt	r3, #45569	; 0xb201
b20071b0:	e51b2010 	ldr	r2, [fp, #-16]
b20071b4:	e7933102 	ldr	r3, [r3, r2, lsl #2]
b20071b8:	e50b3008 	str	r3, [fp, #-8]
b20071bc:	ea000008 	b	b20071e4 <print_task_id_from_head+0x74>
b20071c0:	e51b3008 	ldr	r3, [fp, #-8]
b20071c4:	e5933014 	ldr	r3, [r3, #20]
b20071c8:	e1a01003 	mov	r1, r3
b20071cc:	e3080e50 	movw	r0, #36432	; 0x8e50
b20071d0:	e34b0200 	movt	r0, #45568	; 0xb200
b20071d4:	ebffed58 	bl	b200273c <printk>
b20071d8:	e51b3008 	ldr	r3, [fp, #-8]
b20071dc:	e5933000 	ldr	r3, [r3]
b20071e0:	e50b3008 	str	r3, [fp, #-8]
b20071e4:	e51b3008 	ldr	r3, [fp, #-8]
b20071e8:	e5933000 	ldr	r3, [r3]
b20071ec:	e3530000 	cmp	r3, #0
b20071f0:	1afffff2 	bne	b20071c0 <print_task_id_from_head+0x50>
b20071f4:	e51b3008 	ldr	r3, [fp, #-8]
b20071f8:	e5933014 	ldr	r3, [r3, #20]
b20071fc:	e1a01003 	mov	r1, r3
b2007200:	e3080e60 	movw	r0, #36448	; 0x8e60
b2007204:	e34b0200 	movt	r0, #45568	; 0xb200
b2007208:	ebffed4b 	bl	b200273c <printk>
b200720c:	e24bd004 	sub	sp, fp, #4
b2007210:	e8bd8800 	pop	{fp, pc}

b2007214 <print_task_addr_from_head>:
b2007214:	e92d4800 	push	{fp, lr}
b2007218:	e28db004 	add	fp, sp, #4
b200721c:	e24dd010 	sub	sp, sp, #16
b2007220:	e50b0010 	str	r0, [fp, #-16]
b2007224:	e30d30f8 	movw	r3, #53496	; 0xd0f8
b2007228:	e34b3201 	movt	r3, #45569	; 0xb201
b200722c:	e51b2010 	ldr	r2, [fp, #-16]
b2007230:	e7933102 	ldr	r3, [r3, r2, lsl #2]
b2007234:	e3530000 	cmp	r3, #0
b2007238:	1a000003 	bne	b200724c <print_task_addr_from_head+0x38>
b200723c:	e3080e28 	movw	r0, #36392	; 0x8e28
b2007240:	e34b0200 	movt	r0, #45568	; 0xb200
b2007244:	ebffed3c 	bl	b200273c <printk>
b2007248:	ea00001d 	b	b20072c4 <print_task_addr_from_head+0xb0>
b200724c:	e30d30f8 	movw	r3, #53496	; 0xd0f8
b2007250:	e34b3201 	movt	r3, #45569	; 0xb201
b2007254:	e51b2010 	ldr	r2, [fp, #-16]
b2007258:	e7933102 	ldr	r3, [r3, r2, lsl #2]
b200725c:	e50b3008 	str	r3, [fp, #-8]
b2007260:	e51b3010 	ldr	r3, [fp, #-16]
b2007264:	e1a02103 	lsl	r2, r3, #2
b2007268:	e30d30f8 	movw	r3, #53496	; 0xd0f8
b200726c:	e34b3201 	movt	r3, #45569	; 0xb201
b2007270:	e0823003 	add	r3, r2, r3
b2007274:	e1a01003 	mov	r1, r3
b2007278:	e3080e74 	movw	r0, #36468	; 0x8e74
b200727c:	e34b0200 	movt	r0, #45568	; 0xb200
b2007280:	ebffed2d 	bl	b200273c <printk>
b2007284:	ea000006 	b	b20072a4 <print_task_addr_from_head+0x90>
b2007288:	e51b1008 	ldr	r1, [fp, #-8]
b200728c:	e3080e9c 	movw	r0, #36508	; 0x8e9c
b2007290:	e34b0200 	movt	r0, #45568	; 0xb200
b2007294:	ebffed28 	bl	b200273c <printk>
b2007298:	e51b3008 	ldr	r3, [fp, #-8]
b200729c:	e5933000 	ldr	r3, [r3]
b20072a0:	e50b3008 	str	r3, [fp, #-8]
b20072a4:	e51b3008 	ldr	r3, [fp, #-8]
b20072a8:	e5933000 	ldr	r3, [r3]
b20072ac:	e3530000 	cmp	r3, #0
b20072b0:	1afffff4 	bne	b2007288 <print_task_addr_from_head+0x74>
b20072b4:	e51b1008 	ldr	r1, [fp, #-8]
b20072b8:	e3080eb0 	movw	r0, #36528	; 0x8eb0
b20072bc:	e34b0200 	movt	r0, #45568	; 0xb200
b20072c0:	ebffed1d 	bl	b200273c <printk>
b20072c4:	e24bd004 	sub	sp, fp, #4
b20072c8:	e8bd8800 	pop	{fp, pc}

b20072cc <TaskRun>:
b20072cc:	e14fc000 	mrs	ip, SPSR
b20072d0:	e92d5ff0 	push	{r4, r5, r6, r7, r8, r9, sl, fp, ip, lr}
b20072d4:	e10fa000 	mrs	sl, CPSR
b20072d8:	e3caa01f 	bic	sl, sl, #31
b20072dc:	e38aa01f 	orr	sl, sl, #31
b20072e0:	e38aa0c0 	orr	sl, sl, #192	; 0xc0
b20072e4:	e129f00a 	msr	CPSR_fc, sl
b20072e8:	e1a0d000 	mov	sp, r0
b20072ec:	e8bd5fff 	pop	{r0, r1, r2, r3, r4, r5, r6, r7, r8, r9, sl, fp, ip, lr}
b20072f0:	e92d5fff 	push	{r0, r1, r2, r3, r4, r5, r6, r7, r8, r9, sl, fp, ip, lr}
b20072f4:	e3a00005 	mov	r0, #5
b20072f8:	eb000056 	bl	b2007458 <reloadOsTick>
b20072fc:	e8bd5fff 	pop	{r0, r1, r2, r3, r4, r5, r6, r7, r8, r9, sl, fp, ip, lr}
b2007300:	e321f010 	msr	CPSR_c, #16
b2007304:	e12fff19 	bx	r9

b2007308 <set_context_sp>:
b2007308:	e92d5ff0 	push	{r4, r5, r6, r7, r8, r9, sl, fp, ip, lr}
b200730c:	e10fa000 	mrs	sl, CPSR
b2007310:	e3caa01f 	bic	sl, sl, #31
b2007314:	e38aa01f 	orr	sl, sl, #31
b2007318:	e38aa0c0 	orr	sl, sl, #192	; 0xc0
b200731c:	e129f00a 	msr	CPSR_fc, sl
b2007320:	e1a0d000 	mov	sp, r0
b2007324:	e10fa000 	mrs	sl, CPSR
b2007328:	e3caa01f 	bic	sl, sl, #31
b200732c:	e38aa013 	orr	sl, sl, #19
b2007330:	e38aa0c0 	orr	sl, sl, #192	; 0xc0
b2007334:	e129f00a 	msr	CPSR_fc, sl
b2007338:	e8bd5ff0 	pop	{r4, r5, r6, r7, r8, r9, sl, fp, ip, lr}
b200733c:	e12fff1e 	bx	lr

b2007340 <timer_init>:
b2007340:	e92d4800 	push	{fp, lr}
b2007344:	e28db004 	add	fp, sp, #4
b2007348:	e24dd008 	sub	sp, sp, #8
b200734c:	e50b0008 	str	r0, [fp, #-8]
b2007350:	e50b100c 	str	r1, [fp, #-12]
b2007354:	e3a03000 	mov	r3, #0
b2007358:	e34434e0 	movt	r3, #17632	; 0x44e0
b200735c:	e5932080 	ldr	r2, [r3, #128]	; 0x80
b2007360:	e3a03000 	mov	r3, #0
b2007364:	e34434e0 	movt	r3, #17632	; 0x44e0
b2007368:	e3822002 	orr	r2, r2, #2
b200736c:	e5832080 	str	r2, [r3, #128]	; 0x80
b2007370:	e51b3008 	ldr	r3, [fp, #-8]
b2007374:	e3a02002 	mov	r2, #2
b2007378:	e583202c 	str	r2, [r3, #44]	; 0x2c
b200737c:	e51b3008 	ldr	r3, [fp, #-8]
b2007380:	e3a02002 	mov	r2, #2
b2007384:	e5832038 	str	r2, [r3, #56]	; 0x38
b2007388:	e51b300c 	ldr	r3, [fp, #-12]
b200738c:	e1a02783 	lsl	r2, r3, #15
b2007390:	e3043dd3 	movw	r3, #19923	; 0x4dd3
b2007394:	e3413062 	movt	r3, #4194	; 0x1062
b2007398:	e0832293 	umull	r2, r3, r3, r2
b200739c:	e1a03323 	lsr	r3, r3, #6
b20073a0:	e1e02003 	mvn	r2, r3
b20073a4:	e51b3008 	ldr	r3, [fp, #-8]
b20073a8:	e5832040 	str	r2, [r3, #64]	; 0x40
b20073ac:	e51b300c 	ldr	r3, [fp, #-12]
b20073b0:	e1a02783 	lsl	r2, r3, #15
b20073b4:	e3043dd3 	movw	r3, #19923	; 0x4dd3
b20073b8:	e3413062 	movt	r3, #4194	; 0x1062
b20073bc:	e0832293 	umull	r2, r3, r3, r2
b20073c0:	e1a03323 	lsr	r3, r3, #6
b20073c4:	e1e02003 	mvn	r2, r3
b20073c8:	e51b3008 	ldr	r3, [fp, #-8]
b20073cc:	e583203c 	str	r2, [r3, #60]	; 0x3c
b20073d0:	e3a00ffa 	mov	r0, #1000	; 0x3e8
b20073d4:	eb000078 	bl	b20075bc <delay>
b20073d8:	e51b3008 	ldr	r3, [fp, #-8]
b20073dc:	e5933038 	ldr	r3, [r3, #56]	; 0x38
b20073e0:	e3832001 	orr	r2, r3, #1
b20073e4:	e51b3008 	ldr	r3, [fp, #-8]
b20073e8:	e5832038 	str	r2, [r3, #56]	; 0x38
b20073ec:	e320f000 	nop	{0}
b20073f0:	e24bd004 	sub	sp, fp, #4
b20073f4:	e8bd8800 	pop	{fp, pc}

b20073f8 <OsTickInit>:
b20073f8:	e92d4800 	push	{fp, lr}
b20073fc:	e28db004 	add	fp, sp, #4
b2007400:	e24dd008 	sub	sp, sp, #8
b2007404:	e50b0008 	str	r0, [fp, #-8]
b2007408:	e51b3008 	ldr	r3, [fp, #-8]
b200740c:	e3a02002 	mov	r2, #2
b2007410:	e583202c 	str	r2, [r3, #44]	; 0x2c
b2007414:	e51b3008 	ldr	r3, [fp, #-8]
b2007418:	e3a02002 	mov	r2, #2
b200741c:	e5832038 	str	r2, [r3, #56]	; 0x38
b2007420:	e51b2008 	ldr	r2, [fp, #-8]
b2007424:	e30f3333 	movw	r3, #62259	; 0xf333
b2007428:	e34f3fff 	movt	r3, #65535	; 0xffff
b200742c:	e5823040 	str	r3, [r2, #64]	; 0x40
b2007430:	e3a00ffa 	mov	r0, #1000	; 0x3e8
b2007434:	eb000060 	bl	b20075bc <delay>
b2007438:	e51b3008 	ldr	r3, [fp, #-8]
b200743c:	e5933038 	ldr	r3, [r3, #56]	; 0x38
b2007440:	e3832001 	orr	r2, r3, #1
b2007444:	e51b3008 	ldr	r3, [fp, #-8]
b2007448:	e5832038 	str	r2, [r3, #56]	; 0x38
b200744c:	e320f000 	nop	{0}
b2007450:	e24bd004 	sub	sp, fp, #4
b2007454:	e8bd8800 	pop	{fp, pc}

b2007458 <reloadOsTick>:
b2007458:	e52db004 	push	{fp}		; (str fp, [sp, #-4]!)
b200745c:	e28db000 	add	fp, sp, #0
b2007460:	e24dd00c 	sub	sp, sp, #12
b2007464:	e50b0008 	str	r0, [fp, #-8]
b2007468:	e51b3008 	ldr	r3, [fp, #-8]
b200746c:	e1a02783 	lsl	r2, r3, #15
b2007470:	e3043dd3 	movw	r3, #19923	; 0x4dd3
b2007474:	e3413062 	movt	r3, #4194	; 0x1062
b2007478:	e0832293 	umull	r2, r3, r3, r2
b200747c:	e1a02323 	lsr	r2, r3, #6
b2007480:	e3a03a05 	mov	r3, #20480	; 0x5000
b2007484:	e34434e0 	movt	r3, #17632	; 0x44e0
b2007488:	e1e02002 	mvn	r2, r2
b200748c:	e583203c 	str	r2, [r3, #60]	; 0x3c
b2007490:	e320f000 	nop	{0}
b2007494:	e28bd000 	add	sp, fp, #0
b2007498:	e49db004 	pop	{fp}		; (ldr fp, [sp], #4)
b200749c:	e12fff1e 	bx	lr

b20074a0 <timer_start>:
b20074a0:	e52db004 	push	{fp}		; (str fp, [sp, #-4]!)
b20074a4:	e28db000 	add	fp, sp, #0
b20074a8:	e24dd00c 	sub	sp, sp, #12
b20074ac:	e50b0008 	str	r0, [fp, #-8]
b20074b0:	e51b3008 	ldr	r3, [fp, #-8]
b20074b4:	e5933038 	ldr	r3, [r3, #56]	; 0x38
b20074b8:	e3832001 	orr	r2, r3, #1
b20074bc:	e51b3008 	ldr	r3, [fp, #-8]
b20074c0:	e5832038 	str	r2, [r3, #56]	; 0x38
b20074c4:	e320f000 	nop	{0}
b20074c8:	e28bd000 	add	sp, fp, #0
b20074cc:	e49db004 	pop	{fp}		; (ldr fp, [sp], #4)
b20074d0:	e12fff1e 	bx	lr

b20074d4 <timerDisable>:
b20074d4:	e52db004 	push	{fp}		; (str fp, [sp, #-4]!)
b20074d8:	e28db000 	add	fp, sp, #0
b20074dc:	e24dd00c 	sub	sp, sp, #12
b20074e0:	e50b0008 	str	r0, [fp, #-8]
b20074e4:	e51b3008 	ldr	r3, [fp, #-8]
b20074e8:	e3a02000 	mov	r2, #0
b20074ec:	e5832038 	str	r2, [r3, #56]	; 0x38
b20074f0:	e51b3008 	ldr	r3, [fp, #-8]
b20074f4:	e3a02000 	mov	r2, #0
b20074f8:	e5832040 	str	r2, [r3, #64]	; 0x40
b20074fc:	e51b3008 	ldr	r3, [fp, #-8]
b2007500:	e3a02002 	mov	r2, #2
b2007504:	e5832030 	str	r2, [r3, #48]	; 0x30
b2007508:	e320f000 	nop	{0}
b200750c:	e28bd000 	add	sp, fp, #0
b2007510:	e49db004 	pop	{fp}		; (ldr fp, [sp], #4)
b2007514:	e12fff1e 	bx	lr

b2007518 <enableTimerAndBindISR>:
b2007518:	e92d4800 	push	{fp, lr}
b200751c:	e28db004 	add	fp, sp, #4
b2007520:	e24dd008 	sub	sp, sp, #8
b2007524:	e50b0008 	str	r0, [fp, #-8]
b2007528:	e50b100c 	str	r1, [fp, #-12]
b200752c:	e51b3008 	ldr	r3, [fp, #-8]
b2007530:	e6ef3073 	uxtb	r3, r3
b2007534:	e51b100c 	ldr	r1, [fp, #-12]
b2007538:	e1a00003 	mov	r0, r3
b200753c:	ebffebba 	bl	b200242c <irq_isr_bind>
b2007540:	e320f000 	nop	{0}
b2007544:	e24bd004 	sub	sp, fp, #4
b2007548:	e8bd8800 	pop	{fp, pc}

b200754c <enableOsTick>:
b200754c:	e92d4800 	push	{fp, lr}
b2007550:	e28db004 	add	fp, sp, #4
b2007554:	e24dd008 	sub	sp, sp, #8
b2007558:	e1a03000 	mov	r3, r0
b200755c:	e54b3005 	strb	r3, [fp, #-5]
b2007560:	e55b2005 	ldrb	r2, [fp, #-5]
b2007564:	e3a03c01 	mov	r3, #256	; 0x100
b2007568:	e3443820 	movt	r3, #18464	; 0x4820
b200756c:	e0823003 	add	r3, r2, r3
b2007570:	e3a02000 	mov	r2, #0
b2007574:	e5c32000 	strb	r2, [r3]
b2007578:	e55b3005 	ldrb	r3, [fp, #-5]
b200757c:	e1a00003 	mov	r0, r3
b2007580:	ebffeb3b 	bl	b2002274 <eableINT_NUM>
b2007584:	e320f000 	nop	{0}
b2007588:	e24bd004 	sub	sp, fp, #4
b200758c:	e8bd8800 	pop	{fp, pc}

b2007590 <disnableTimerAndUnbindISR>:
b2007590:	e92d4800 	push	{fp, lr}
b2007594:	e28db004 	add	fp, sp, #4
b2007598:	e24dd008 	sub	sp, sp, #8
b200759c:	e50b0008 	str	r0, [fp, #-8]
b20075a0:	e51b3008 	ldr	r3, [fp, #-8]
b20075a4:	e6ef3073 	uxtb	r3, r3
b20075a8:	e1a00003 	mov	r0, r3
b20075ac:	ebffebb5 	bl	b2002488 <irq_isr_unbind>
b20075b0:	e320f000 	nop	{0}
b20075b4:	e24bd004 	sub	sp, fp, #4
b20075b8:	e8bd8800 	pop	{fp, pc}

b20075bc <delay>:
b20075bc:	e52db004 	push	{fp}		; (str fp, [sp, #-4]!)
b20075c0:	e28db000 	add	fp, sp, #0
b20075c4:	e24dd014 	sub	sp, sp, #20
b20075c8:	e50b0010 	str	r0, [fp, #-16]
b20075cc:	e3a03000 	mov	r3, #0
b20075d0:	e50b3008 	str	r3, [fp, #-8]
b20075d4:	ea000002 	b	b20075e4 <delay+0x28>
b20075d8:	e51b3008 	ldr	r3, [fp, #-8]
b20075dc:	e2833001 	add	r3, r3, #1
b20075e0:	e50b3008 	str	r3, [fp, #-8]
b20075e4:	e51b2008 	ldr	r2, [fp, #-8]
b20075e8:	e51b3010 	ldr	r3, [fp, #-16]
b20075ec:	e1520003 	cmp	r2, r3
b20075f0:	3afffff8 	bcc	b20075d8 <delay+0x1c>
b20075f4:	e320f000 	nop	{0}
b20075f8:	e320f000 	nop	{0}
b20075fc:	e28bd000 	add	sp, fp, #0
b2007600:	e49db004 	pop	{fp}		; (ldr fp, [sp], #4)
b2007604:	e12fff1e 	bx	lr

b2007608 <uart_Init>:
b2007608:	e52db004 	push	{fp}		; (str fp, [sp, #-4]!)
b200760c:	e28db000 	add	fp, sp, #0
b2007610:	e24dd00c 	sub	sp, sp, #12
b2007614:	e50b0008 	str	r0, [fp, #-8]
b2007618:	e1a00001 	mov	r0, r1
b200761c:	e1a01002 	mov	r1, r2
b2007620:	e1a02003 	mov	r2, r3
b2007624:	e1a03000 	mov	r3, r0
b2007628:	e54b3009 	strb	r3, [fp, #-9]
b200762c:	e1a03001 	mov	r3, r1
b2007630:	e54b300a 	strb	r3, [fp, #-10]
b2007634:	e1a03002 	mov	r3, r2
b2007638:	e54b300b 	strb	r3, [fp, #-11]
b200763c:	e3093e80 	movw	r3, #40576	; 0x9e80
b2007640:	e34434e1 	movt	r3, #17633	; 0x44e1
b2007644:	e3a02000 	mov	r2, #0
b2007648:	e583200c 	str	r2, [r3, #12]
b200764c:	e3093e80 	movw	r3, #40576	; 0x9e80
b2007650:	e34434e1 	movt	r3, #17633	; 0x44e1
b2007654:	e3a02030 	mov	r2, #48	; 0x30
b2007658:	e5832008 	str	r2, [r3, #8]
b200765c:	e320f000 	nop	{0}
b2007660:	e28bd000 	add	sp, fp, #0
b2007664:	e49db004 	pop	{fp}		; (ldr fp, [sp], #4)
b2007668:	e12fff1e 	bx	lr

b200766c <uart_set_Baudrate>:
b200766c:	e52db004 	push	{fp}		; (str fp, [sp, #-4]!)
b2007670:	e28db000 	add	fp, sp, #0
b2007674:	e24dd00c 	sub	sp, sp, #12
b2007678:	e50b0008 	str	r0, [fp, #-8]
b200767c:	e50b100c 	str	r1, [fp, #-12]
b2007680:	e320f000 	nop	{0}
b2007684:	e28bd000 	add	sp, fp, #0
b2007688:	e49db004 	pop	{fp}		; (ldr fp, [sp], #4)
b200768c:	e12fff1e 	bx	lr

b2007690 <uart_putC>:
b2007690:	e52db004 	push	{fp}		; (str fp, [sp, #-4]!)
b2007694:	e28db000 	add	fp, sp, #0
b2007698:	e24dd00c 	sub	sp, sp, #12
b200769c:	e50b0008 	str	r0, [fp, #-8]
b20076a0:	e1a03001 	mov	r3, r1
b20076a4:	e54b3009 	strb	r3, [fp, #-9]
b20076a8:	e320f000 	nop	{0}
b20076ac:	e51b3008 	ldr	r3, [fp, #-8]
b20076b0:	e5933014 	ldr	r3, [r3, #20]
b20076b4:	e2033020 	and	r3, r3, #32
b20076b8:	e3530000 	cmp	r3, #0
b20076bc:	0afffffa 	beq	b20076ac <uart_putC+0x1c>
b20076c0:	e55b2009 	ldrb	r2, [fp, #-9]
b20076c4:	e51b3008 	ldr	r3, [fp, #-8]
b20076c8:	e5832000 	str	r2, [r3]
b20076cc:	e320f000 	nop	{0}
b20076d0:	e28bd000 	add	sp, fp, #0
b20076d4:	e49db004 	pop	{fp}		; (ldr fp, [sp], #4)
b20076d8:	e12fff1e 	bx	lr

b20076dc <uart_getC>:
b20076dc:	e52db004 	push	{fp}		; (str fp, [sp, #-4]!)
b20076e0:	e28db000 	add	fp, sp, #0
b20076e4:	e24dd014 	sub	sp, sp, #20
b20076e8:	e50b0010 	str	r0, [fp, #-16]
b20076ec:	e320f000 	nop	{0}
b20076f0:	e51b3010 	ldr	r3, [fp, #-16]
b20076f4:	e5933014 	ldr	r3, [r3, #20]
b20076f8:	e2033001 	and	r3, r3, #1
b20076fc:	e3530000 	cmp	r3, #0
b2007700:	0afffffa 	beq	b20076f0 <uart_getC+0x14>
b2007704:	e51b3010 	ldr	r3, [fp, #-16]
b2007708:	e5933000 	ldr	r3, [r3]
b200770c:	e54b3005 	strb	r3, [fp, #-5]
b2007710:	e55b3005 	ldrb	r3, [fp, #-5]
b2007714:	e1a00003 	mov	r0, r3
b2007718:	e28bd000 	add	sp, fp, #0
b200771c:	e49db004 	pop	{fp}		; (ldr fp, [sp], #4)
b2007720:	e12fff1e 	bx	lr

b2007724 <uart_tx_str>:
b2007724:	e92d4800 	push	{fp, lr}
b2007728:	e28db004 	add	fp, sp, #4
b200772c:	e24dd018 	sub	sp, sp, #24
b2007730:	e50b0010 	str	r0, [fp, #-16]
b2007734:	e50b1014 	str	r1, [fp, #-20]	; 0xffffffec
b2007738:	e50b2018 	str	r2, [fp, #-24]	; 0xffffffe8
b200773c:	e3a03000 	mov	r3, #0
b2007740:	e50b3008 	str	r3, [fp, #-8]
b2007744:	ea000009 	b	b2007770 <uart_tx_str+0x4c>
b2007748:	e51b3008 	ldr	r3, [fp, #-8]
b200774c:	e51b2014 	ldr	r2, [fp, #-20]	; 0xffffffec
b2007750:	e0823003 	add	r3, r2, r3
b2007754:	e5d33000 	ldrb	r3, [r3]
b2007758:	e1a01003 	mov	r1, r3
b200775c:	e51b0010 	ldr	r0, [fp, #-16]
b2007760:	ebffffca 	bl	b2007690 <uart_putC>
b2007764:	e51b3008 	ldr	r3, [fp, #-8]
b2007768:	e2833001 	add	r3, r3, #1
b200776c:	e50b3008 	str	r3, [fp, #-8]
b2007770:	e51b2008 	ldr	r2, [fp, #-8]
b2007774:	e51b3018 	ldr	r3, [fp, #-24]	; 0xffffffe8
b2007778:	e1520003 	cmp	r2, r3
b200777c:	bafffff1 	blt	b2007748 <uart_tx_str+0x24>
b2007780:	e320f000 	nop	{0}
b2007784:	e320f000 	nop	{0}
b2007788:	e24bd004 	sub	sp, fp, #4
b200778c:	e8bd8800 	pop	{fp, pc}

b2007790 <usrLedInitAsm>:
b2007790:	e92d4800 	push	{fp, lr}
b2007794:	e28db004 	add	fp, sp, #4
b2007798:	e3a01002 	mov	r1, #2
b200779c:	e3401004 	movt	r1, #4
b20077a0:	e3a000ac 	mov	r0, #172	; 0xac
b20077a4:	e34404e0 	movt	r0, #17632	; 0x44e0
b20077a8:	ebfff699 	bl	b2005214 <WRITE_REG32>
b20077ac:	e30c0134 	movw	r0, #49460	; 0xc134
b20077b0:	e3440804 	movt	r0, #18436	; 0x4804
b20077b4:	ebfff698 	bl	b200521c <READ_REG32>
b20077b8:	e1a02000 	mov	r2, r0
b20077bc:	e30d310c 	movw	r3, #53516	; 0xd10c
b20077c0:	e34b3201 	movt	r3, #45569	; 0xb201
b20077c4:	e5832000 	str	r2, [r3]
b20077c8:	e30d310c 	movw	r3, #53516	; 0xd10c
b20077cc:	e34b3201 	movt	r3, #45569	; 0xb201
b20077d0:	e5933000 	ldr	r3, [r3]
b20077d4:	e3c3261e 	bic	r2, r3, #31457280	; 0x1e00000
b20077d8:	e30d310c 	movw	r3, #53516	; 0xd10c
b20077dc:	e34b3201 	movt	r3, #45569	; 0xb201
b20077e0:	e5832000 	str	r2, [r3]
b20077e4:	e30d310c 	movw	r3, #53516	; 0xd10c
b20077e8:	e34b3201 	movt	r3, #45569	; 0xb201
b20077ec:	e5933000 	ldr	r3, [r3]
b20077f0:	e1a01003 	mov	r1, r3
b20077f4:	e30c0134 	movw	r0, #49460	; 0xc134
b20077f8:	e3440804 	movt	r0, #18436	; 0x4804
b20077fc:	ebfff684 	bl	b2005214 <WRITE_REG32>
b2007800:	e320f000 	nop	{0}
b2007804:	e8bd8800 	pop	{fp, pc}

b2007808 <usrLedBlinkAsm>:
b2007808:	e92d4800 	push	{fp, lr}
b200780c:	e28db004 	add	fp, sp, #4
b2007810:	e3a0161e 	mov	r1, #31457280	; 0x1e00000
b2007814:	e30c0194 	movw	r0, #49556	; 0xc194
b2007818:	e3440804 	movt	r0, #18436	; 0x4804
b200781c:	ebfff67c 	bl	b2005214 <WRITE_REG32>
b2007820:	e30d310c 	movw	r3, #53516	; 0xd10c
b2007824:	e34b3201 	movt	r3, #45569	; 0xb201
b2007828:	e3a02000 	mov	r2, #0
b200782c:	e5832000 	str	r2, [r3]
b2007830:	ea000006 	b	b2007850 <usrLedBlinkAsm+0x48>
b2007834:	e30d310c 	movw	r3, #53516	; 0xd10c
b2007838:	e34b3201 	movt	r3, #45569	; 0xb201
b200783c:	e5933000 	ldr	r3, [r3]
b2007840:	e2832001 	add	r2, r3, #1
b2007844:	e30d310c 	movw	r3, #53516	; 0xd10c
b2007848:	e34b3201 	movt	r3, #45569	; 0xb201
b200784c:	e5832000 	str	r2, [r3]
b2007850:	e30d310c 	movw	r3, #53516	; 0xd10c
b2007854:	e34b3201 	movt	r3, #45569	; 0xb201
b2007858:	e5932000 	ldr	r2, [r3]
b200785c:	e304323f 	movw	r3, #16959	; 0x423f
b2007860:	e340300f 	movt	r3, #15
b2007864:	e1520003 	cmp	r2, r3
b2007868:	9afffff1 	bls	b2007834 <usrLedBlinkAsm+0x2c>
b200786c:	e3a0161e 	mov	r1, #31457280	; 0x1e00000
b2007870:	e30c0190 	movw	r0, #49552	; 0xc190
b2007874:	e3440804 	movt	r0, #18436	; 0x4804
b2007878:	ebfff665 	bl	b2005214 <WRITE_REG32>
b200787c:	e30d310c 	movw	r3, #53516	; 0xd10c
b2007880:	e34b3201 	movt	r3, #45569	; 0xb201
b2007884:	e3a02000 	mov	r2, #0
b2007888:	e5832000 	str	r2, [r3]
b200788c:	ea000006 	b	b20078ac <usrLedBlinkAsm+0xa4>
b2007890:	e30d310c 	movw	r3, #53516	; 0xd10c
b2007894:	e34b3201 	movt	r3, #45569	; 0xb201
b2007898:	e5933000 	ldr	r3, [r3]
b200789c:	e2832001 	add	r2, r3, #1
b20078a0:	e30d310c 	movw	r3, #53516	; 0xd10c
b20078a4:	e34b3201 	movt	r3, #45569	; 0xb201
b20078a8:	e5832000 	str	r2, [r3]
b20078ac:	e30d310c 	movw	r3, #53516	; 0xd10c
b20078b0:	e34b3201 	movt	r3, #45569	; 0xb201
b20078b4:	e5932000 	ldr	r2, [r3]
b20078b8:	e304323f 	movw	r3, #16959	; 0x423f
b20078bc:	e340300f 	movt	r3, #15
b20078c0:	e1520003 	cmp	r2, r3
b20078c4:	9afffff1 	bls	b2007890 <usrLedBlinkAsm+0x88>
b20078c8:	e320f000 	nop	{0}
b20078cc:	e320f000 	nop	{0}
b20078d0:	e8bd8800 	pop	{fp, pc}

b20078d4 <usrLedInit>:
b20078d4:	e52db004 	push	{fp}		; (str fp, [sp, #-4]!)
b20078d8:	e28db000 	add	fp, sp, #0
b20078dc:	e3a03000 	mov	r3, #0
b20078e0:	e34434e0 	movt	r3, #17632	; 0x44e0
b20078e4:	e3a02002 	mov	r2, #2
b20078e8:	e3402004 	movt	r2, #4
b20078ec:	e58320ac 	str	r2, [r3, #172]	; 0xac
b20078f0:	e3a03903 	mov	r3, #49152	; 0xc000
b20078f4:	e3443804 	movt	r3, #18436	; 0x4804
b20078f8:	e5932134 	ldr	r2, [r3, #308]	; 0x134
b20078fc:	e3a03903 	mov	r3, #49152	; 0xc000
b2007900:	e3443804 	movt	r3, #18436	; 0x4804
b2007904:	e3c2261e 	bic	r2, r2, #31457280	; 0x1e00000
b2007908:	e5832134 	str	r2, [r3, #308]	; 0x134
b200790c:	e320f000 	nop	{0}
b2007910:	e28bd000 	add	sp, fp, #0
b2007914:	e49db004 	pop	{fp}		; (ldr fp, [sp], #4)
b2007918:	e12fff1e 	bx	lr

b200791c <usrLedBlink>:
b200791c:	e52db004 	push	{fp}		; (str fp, [sp, #-4]!)
b2007920:	e28db000 	add	fp, sp, #0
b2007924:	e3a03903 	mov	r3, #49152	; 0xc000
b2007928:	e3443804 	movt	r3, #18436	; 0x4804
b200792c:	e3a0261e 	mov	r2, #31457280	; 0x1e00000
b2007930:	e5832194 	str	r2, [r3, #404]	; 0x194
b2007934:	e30d310c 	movw	r3, #53516	; 0xd10c
b2007938:	e34b3201 	movt	r3, #45569	; 0xb201
b200793c:	e3a02000 	mov	r2, #0
b2007940:	e5832000 	str	r2, [r3]
b2007944:	ea000006 	b	b2007964 <usrLedBlink+0x48>
b2007948:	e30d310c 	movw	r3, #53516	; 0xd10c
b200794c:	e34b3201 	movt	r3, #45569	; 0xb201
b2007950:	e5933000 	ldr	r3, [r3]
b2007954:	e2832001 	add	r2, r3, #1
b2007958:	e30d310c 	movw	r3, #53516	; 0xd10c
b200795c:	e34b3201 	movt	r3, #45569	; 0xb201
b2007960:	e5832000 	str	r2, [r3]
b2007964:	e30d310c 	movw	r3, #53516	; 0xd10c
b2007968:	e34b3201 	movt	r3, #45569	; 0xb201
b200796c:	e5932000 	ldr	r2, [r3]
b2007970:	e30a311f 	movw	r3, #41247	; 0xa11f
b2007974:	e3403007 	movt	r3, #7
b2007978:	e1520003 	cmp	r2, r3
b200797c:	9afffff1 	bls	b2007948 <usrLedBlink+0x2c>
b2007980:	e3a03903 	mov	r3, #49152	; 0xc000
b2007984:	e3443804 	movt	r3, #18436	; 0x4804
b2007988:	e3a0261e 	mov	r2, #31457280	; 0x1e00000
b200798c:	e5832190 	str	r2, [r3, #400]	; 0x190
b2007990:	e30d310c 	movw	r3, #53516	; 0xd10c
b2007994:	e34b3201 	movt	r3, #45569	; 0xb201
b2007998:	e3a02000 	mov	r2, #0
b200799c:	e5832000 	str	r2, [r3]
b20079a0:	ea000006 	b	b20079c0 <usrLedBlink+0xa4>
b20079a4:	e30d310c 	movw	r3, #53516	; 0xd10c
b20079a8:	e34b3201 	movt	r3, #45569	; 0xb201
b20079ac:	e5933000 	ldr	r3, [r3]
b20079b0:	e2832001 	add	r2, r3, #1
b20079b4:	e30d310c 	movw	r3, #53516	; 0xd10c
b20079b8:	e34b3201 	movt	r3, #45569	; 0xb201
b20079bc:	e5832000 	str	r2, [r3]
b20079c0:	e30d310c 	movw	r3, #53516	; 0xd10c
b20079c4:	e34b3201 	movt	r3, #45569	; 0xb201
b20079c8:	e5932000 	ldr	r2, [r3]
b20079cc:	e30a311f 	movw	r3, #41247	; 0xa11f
b20079d0:	e3403007 	movt	r3, #7
b20079d4:	e1520003 	cmp	r2, r3
b20079d8:	9afffff1 	bls	b20079a4 <usrLedBlink+0x88>
b20079dc:	e320f000 	nop	{0}
b20079e0:	e320f000 	nop	{0}
b20079e4:	e28bd000 	add	sp, fp, #0
b20079e8:	e49db004 	pop	{fp}		; (ldr fp, [sp], #4)
b20079ec:	e12fff1e 	bx	lr

b20079f0 <usrLedToggle>:
b20079f0:	e52db004 	push	{fp}		; (str fp, [sp, #-4]!)
b20079f4:	e28db000 	add	fp, sp, #0
b20079f8:	e24dd00c 	sub	sp, sp, #12
b20079fc:	e50b0008 	str	r0, [fp, #-8]
b2007a00:	e3a03903 	mov	r3, #49152	; 0xc000
b2007a04:	e3443804 	movt	r3, #18436	; 0x4804
b2007a08:	e593213c 	ldr	r2, [r3, #316]	; 0x13c
b2007a0c:	e51b3008 	ldr	r3, [fp, #-8]
b2007a10:	e2833015 	add	r3, r3, #21
b2007a14:	e3a01001 	mov	r1, #1
b2007a18:	e1a03311 	lsl	r3, r1, r3
b2007a1c:	e1a01003 	mov	r1, r3
b2007a20:	e3a03903 	mov	r3, #49152	; 0xc000
b2007a24:	e3443804 	movt	r3, #18436	; 0x4804
b2007a28:	e0222001 	eor	r2, r2, r1
b2007a2c:	e583213c 	str	r2, [r3, #316]	; 0x13c
b2007a30:	e320f000 	nop	{0}
b2007a34:	e28bd000 	add	sp, fp, #0
b2007a38:	e49db004 	pop	{fp}		; (ldr fp, [sp], #4)
b2007a3c:	e12fff1e 	bx	lr

b2007a40 <__print_hello>:
b2007a40:	e92d4800 	push	{fp, lr}
b2007a44:	e28db004 	add	fp, sp, #4
b2007a48:	e24dd008 	sub	sp, sp, #8
b2007a4c:	e50b0008 	str	r0, [fp, #-8]
b2007a50:	e51b0008 	ldr	r0, [fp, #-8]
b2007a54:	ebfffb91 	bl	b20068a0 <syscall_print_hello>
b2007a58:	e320f000 	nop	{0}
b2007a5c:	e24bd004 	sub	sp, fp, #4
b2007a60:	e8bd8800 	pop	{fp, pc}

b2007a64 <__yield>:
b2007a64:	e92d4800 	push	{fp, lr}
b2007a68:	e28db004 	add	fp, sp, #4
b2007a6c:	ebfffb92 	bl	b20068bc <syscall_yield>
b2007a70:	e320f000 	nop	{0}
b2007a74:	e8bd8800 	pop	{fp, pc}

b2007a78 <__gettid>:
b2007a78:	e92d4800 	push	{fp, lr}
b2007a7c:	e28db004 	add	fp, sp, #4
b2007a80:	ebfffb97 	bl	b20068e4 <syscall_get_tid>
b2007a84:	e1a03000 	mov	r3, r0
b2007a88:	e1a00003 	mov	r0, r3
b2007a8c:	e8bd8800 	pop	{fp, pc}

b2007a90 <__exit>:
b2007a90:	e92d4800 	push	{fp, lr}
b2007a94:	e28db004 	add	fp, sp, #4
b2007a98:	ebfffb98 	bl	b2006900 <syscall_exit>
b2007a9c:	e320f000 	nop	{0}
b2007aa0:	e8bd8800 	pop	{fp, pc}

b2007aa4 <__fork>:
b2007aa4:	e92d4800 	push	{fp, lr}
b2007aa8:	e28db004 	add	fp, sp, #4
b2007aac:	ebfffb9e 	bl	b200692c <syscall_fork>
b2007ab0:	e1a03000 	mov	r3, r0
b2007ab4:	e1a00003 	mov	r0, r3
b2007ab8:	e8bd8800 	pop	{fp, pc}

b2007abc <__do_taskCreate>:
b2007abc:	e92d4800 	push	{fp, lr}
b2007ac0:	e28db004 	add	fp, sp, #4
b2007ac4:	e24dd010 	sub	sp, sp, #16
b2007ac8:	e50b0010 	str	r0, [fp, #-16]
b2007acc:	e50b1014 	str	r1, [fp, #-20]	; 0xffffffec
b2007ad0:	e51b3010 	ldr	r3, [fp, #-16]
b2007ad4:	e50b300c 	str	r3, [fp, #-12]
b2007ad8:	e51b3014 	ldr	r3, [fp, #-20]	; 0xffffffec
b2007adc:	e50b3008 	str	r3, [fp, #-8]
b2007ae0:	e24b300c 	sub	r3, fp, #12
b2007ae4:	e1a00003 	mov	r0, r3
b2007ae8:	ebfffb9a 	bl	b2006958 <syscall_do_taskCreate>
b2007aec:	e1a03000 	mov	r3, r0
b2007af0:	e1a00003 	mov	r0, r3
b2007af4:	e24bd004 	sub	sp, fp, #4
b2007af8:	e8bd8800 	pop	{fp, pc}

b2007afc <__malloc_blk>:
b2007afc:	e92d4800 	push	{fp, lr}
b2007b00:	e28db004 	add	fp, sp, #4
b2007b04:	ebfffb9e 	bl	b2006984 <syscall_malloc_blk>
b2007b08:	e1a03000 	mov	r3, r0
b2007b0c:	e1a00003 	mov	r0, r3
b2007b10:	e8bd8800 	pop	{fp, pc}

b2007b14 <__mfree_blk>:
b2007b14:	e92d4800 	push	{fp, lr}
b2007b18:	e28db004 	add	fp, sp, #4
b2007b1c:	e24dd008 	sub	sp, sp, #8
b2007b20:	e50b0008 	str	r0, [fp, #-8]
b2007b24:	e51b0008 	ldr	r0, [fp, #-8]
b2007b28:	ebfffba0 	bl	b20069b0 <syscall_mfree_blk>
b2007b2c:	e320f000 	nop	{0}
b2007b30:	e24bd004 	sub	sp, fp, #4
b2007b34:	e8bd8800 	pop	{fp, pc}

b2007b38 <__get_mblk_list>:
b2007b38:	e92d4800 	push	{fp, lr}
b2007b3c:	e28db004 	add	fp, sp, #4
b2007b40:	ebfffba5 	bl	b20069dc <syscall_get_mblk_list>
b2007b44:	e320f000 	nop	{0}
b2007b48:	e8bd8800 	pop	{fp, pc}

b2007b4c <__get_task_priority>:
b2007b4c:	e92d4800 	push	{fp, lr}
b2007b50:	e28db004 	add	fp, sp, #4
b2007b54:	ebfffbab 	bl	b2006a08 <syscall_get_task_priority>
b2007b58:	e1a03000 	mov	r3, r0
b2007b5c:	e1a00003 	mov	r0, r3
b2007b60:	e8bd8800 	pop	{fp, pc}

b2007b64 <__write>:
b2007b64:	e92d4800 	push	{fp, lr}
b2007b68:	e28db004 	add	fp, sp, #4
b2007b6c:	e24dd020 	sub	sp, sp, #32
b2007b70:	e50b0018 	str	r0, [fp, #-24]	; 0xffffffe8
b2007b74:	e50b101c 	str	r1, [fp, #-28]	; 0xffffffe4
b2007b78:	e50b2020 	str	r2, [fp, #-32]	; 0xffffffe0
b2007b7c:	e51b3018 	ldr	r3, [fp, #-24]	; 0xffffffe8
b2007b80:	e50b3010 	str	r3, [fp, #-16]
b2007b84:	e51b301c 	ldr	r3, [fp, #-28]	; 0xffffffe4
b2007b88:	e50b300c 	str	r3, [fp, #-12]
b2007b8c:	e51b3020 	ldr	r3, [fp, #-32]	; 0xffffffe0
b2007b90:	e50b3008 	str	r3, [fp, #-8]
b2007b94:	e24b3010 	sub	r3, fp, #16
b2007b98:	e1a00003 	mov	r0, r3
b2007b9c:	ebfffba0 	bl	b2006a24 <syscall_write>
b2007ba0:	e1a03000 	mov	r3, r0
b2007ba4:	e1a00003 	mov	r0, r3
b2007ba8:	e24bd004 	sub	sp, fp, #4
b2007bac:	e8bd8800 	pop	{fp, pc}

b2007bb0 <__read>:
b2007bb0:	e92d4800 	push	{fp, lr}
b2007bb4:	e28db004 	add	fp, sp, #4
b2007bb8:	e24dd020 	sub	sp, sp, #32
b2007bbc:	e50b0018 	str	r0, [fp, #-24]	; 0xffffffe8
b2007bc0:	e50b101c 	str	r1, [fp, #-28]	; 0xffffffe4
b2007bc4:	e50b2020 	str	r2, [fp, #-32]	; 0xffffffe0
b2007bc8:	e51b3018 	ldr	r3, [fp, #-24]	; 0xffffffe8
b2007bcc:	e50b3010 	str	r3, [fp, #-16]
b2007bd0:	e51b301c 	ldr	r3, [fp, #-28]	; 0xffffffe4
b2007bd4:	e50b300c 	str	r3, [fp, #-12]
b2007bd8:	e51b3020 	ldr	r3, [fp, #-32]	; 0xffffffe0
b2007bdc:	e50b3008 	str	r3, [fp, #-8]
b2007be0:	e24b3010 	sub	r3, fp, #16
b2007be4:	e1a00003 	mov	r0, r3
b2007be8:	ebfffb94 	bl	b2006a40 <syscall_read>
b2007bec:	e1a03000 	mov	r3, r0
b2007bf0:	e1a00003 	mov	r0, r3
b2007bf4:	e24bd004 	sub	sp, fp, #4
b2007bf8:	e8bd8800 	pop	{fp, pc}

b2007bfc <__open>:
b2007bfc:	e92d4800 	push	{fp, lr}
b2007c00:	e28db004 	add	fp, sp, #4
b2007c04:	e24dd008 	sub	sp, sp, #8
b2007c08:	e50b0008 	str	r0, [fp, #-8]
b2007c0c:	e51b0008 	ldr	r0, [fp, #-8]
b2007c10:	ebfffb91 	bl	b2006a5c <syscall_open>
b2007c14:	e1a03000 	mov	r3, r0
b2007c18:	e1a00003 	mov	r0, r3
b2007c1c:	e24bd004 	sub	sp, fp, #4
b2007c20:	e8bd8800 	pop	{fp, pc}

b2007c24 <__getcwd>:
b2007c24:	e92d4800 	push	{fp, lr}
b2007c28:	e28db004 	add	fp, sp, #4
b2007c2c:	e24dd010 	sub	sp, sp, #16
b2007c30:	e50b0010 	str	r0, [fp, #-16]
b2007c34:	e50b1014 	str	r1, [fp, #-20]	; 0xffffffec
b2007c38:	e51b3014 	ldr	r3, [fp, #-20]	; 0xffffffec
b2007c3c:	e1a02003 	mov	r2, r3
b2007c40:	e3a01000 	mov	r1, #0
b2007c44:	e51b0010 	ldr	r0, [fp, #-16]
b2007c48:	ebffebeb 	bl	b2002bfc <_memset>
b2007c4c:	e51b3010 	ldr	r3, [fp, #-16]
b2007c50:	e50b300c 	str	r3, [fp, #-12]
b2007c54:	e51b3014 	ldr	r3, [fp, #-20]	; 0xffffffec
b2007c58:	e50b3008 	str	r3, [fp, #-8]
b2007c5c:	e24b300c 	sub	r3, fp, #12
b2007c60:	e1a00003 	mov	r0, r3
b2007c64:	ebfffb83 	bl	b2006a78 <syscall_getcwd>
b2007c68:	e320f000 	nop	{0}
b2007c6c:	e24bd004 	sub	sp, fp, #4
b2007c70:	e8bd8800 	pop	{fp, pc}

b2007c74 <__getsubdir>:
b2007c74:	e92d4800 	push	{fp, lr}
b2007c78:	e28db004 	add	fp, sp, #4
b2007c7c:	e24dd010 	sub	sp, sp, #16
b2007c80:	e50b0010 	str	r0, [fp, #-16]
b2007c84:	e50b1014 	str	r1, [fp, #-20]	; 0xffffffec
b2007c88:	e51b3014 	ldr	r3, [fp, #-20]	; 0xffffffec
b2007c8c:	e1a02003 	mov	r2, r3
b2007c90:	e3a01000 	mov	r1, #0
b2007c94:	e51b0010 	ldr	r0, [fp, #-16]
b2007c98:	ebffebd7 	bl	b2002bfc <_memset>
b2007c9c:	e51b3010 	ldr	r3, [fp, #-16]
b2007ca0:	e50b300c 	str	r3, [fp, #-12]
b2007ca4:	e51b3014 	ldr	r3, [fp, #-20]	; 0xffffffec
b2007ca8:	e50b3008 	str	r3, [fp, #-8]
b2007cac:	e24b300c 	sub	r3, fp, #12
b2007cb0:	e1a00003 	mov	r0, r3
b2007cb4:	ebfffb76 	bl	b2006a94 <syscall_getsubdir>
b2007cb8:	e51b300c 	ldr	r3, [fp, #-12]
b2007cbc:	e3530000 	cmp	r3, #0
b2007cc0:	1a000001 	bne	b2007ccc <__getsubdir+0x58>
b2007cc4:	e3e03000 	mvn	r3, #0
b2007cc8:	ea000000 	b	b2007cd0 <__getsubdir+0x5c>
b2007ccc:	e3a03000 	mov	r3, #0
b2007cd0:	e1a00003 	mov	r0, r3
b2007cd4:	e24bd004 	sub	sp, fp, #4
b2007cd8:	e8bd8800 	pop	{fp, pc}

b2007cdc <__getfdir>:
b2007cdc:	e92d4800 	push	{fp, lr}
b2007ce0:	e28db004 	add	fp, sp, #4
b2007ce4:	e24dd010 	sub	sp, sp, #16
b2007ce8:	e50b0010 	str	r0, [fp, #-16]
b2007cec:	e50b1014 	str	r1, [fp, #-20]	; 0xffffffec
b2007cf0:	e51b3014 	ldr	r3, [fp, #-20]	; 0xffffffec
b2007cf4:	e1a02003 	mov	r2, r3
b2007cf8:	e3a01000 	mov	r1, #0
b2007cfc:	e51b0010 	ldr	r0, [fp, #-16]
b2007d00:	ebffebbd 	bl	b2002bfc <_memset>
b2007d04:	e51b3010 	ldr	r3, [fp, #-16]
b2007d08:	e50b300c 	str	r3, [fp, #-12]
b2007d0c:	e51b3014 	ldr	r3, [fp, #-20]	; 0xffffffec
b2007d10:	e50b3008 	str	r3, [fp, #-8]
b2007d14:	e24b300c 	sub	r3, fp, #12
b2007d18:	e1a00003 	mov	r0, r3
b2007d1c:	ebfffb63 	bl	b2006ab0 <syscall_getfdir>
b2007d20:	e51b300c 	ldr	r3, [fp, #-12]
b2007d24:	e3530000 	cmp	r3, #0
b2007d28:	1a000001 	bne	b2007d34 <__getfdir+0x58>
b2007d2c:	e3e03000 	mvn	r3, #0
b2007d30:	ea000000 	b	b2007d38 <__getfdir+0x5c>
b2007d34:	e3a03000 	mov	r3, #0
b2007d38:	e1a00003 	mov	r0, r3
b2007d3c:	e24bd004 	sub	sp, fp, #4
b2007d40:	e8bd8800 	pop	{fp, pc}

b2007d44 <__chdir>:
b2007d44:	e92d4800 	push	{fp, lr}
b2007d48:	e28db004 	add	fp, sp, #4
b2007d4c:	e24dd008 	sub	sp, sp, #8
b2007d50:	e50b0008 	str	r0, [fp, #-8]
b2007d54:	e51b0008 	ldr	r0, [fp, #-8]
b2007d58:	ebfffb5b 	bl	b2006acc <syscall_chdir>
b2007d5c:	e1a03000 	mov	r3, r0
b2007d60:	e1a00003 	mov	r0, r3
b2007d64:	e24bd004 	sub	sp, fp, #4
b2007d68:	e8bd8800 	pop	{fp, pc}

b2007d6c <__getfullpath>:
b2007d6c:	e92d4800 	push	{fp, lr}
b2007d70:	e28db004 	add	fp, sp, #4
b2007d74:	e24dd010 	sub	sp, sp, #16
b2007d78:	e50b0010 	str	r0, [fp, #-16]
b2007d7c:	e50b1014 	str	r1, [fp, #-20]	; 0xffffffec
b2007d80:	e51b3010 	ldr	r3, [fp, #-16]
b2007d84:	e50b300c 	str	r3, [fp, #-12]
b2007d88:	e51b3014 	ldr	r3, [fp, #-20]	; 0xffffffec
b2007d8c:	e50b3008 	str	r3, [fp, #-8]
b2007d90:	e24b300c 	sub	r3, fp, #12
b2007d94:	e1a00003 	mov	r0, r3
b2007d98:	ebfffb52 	bl	b2006ae8 <syscall_getfullpath>
b2007d9c:	e320f000 	nop	{0}
b2007da0:	e24bd004 	sub	sp, fp, #4
b2007da4:	e8bd8800 	pop	{fp, pc}

b2007da8 <__udivsi3>:
b2007da8:	e2512001 	subs	r2, r1, #1
b2007dac:	012fff1e 	bxeq	lr
b2007db0:	3a000036 	bcc	b2007e90 <__udivsi3+0xe8>
b2007db4:	e1500001 	cmp	r0, r1
b2007db8:	9a000022 	bls	b2007e48 <__udivsi3+0xa0>
b2007dbc:	e1110002 	tst	r1, r2
b2007dc0:	0a000023 	beq	b2007e54 <__udivsi3+0xac>
b2007dc4:	e311020e 	tst	r1, #-536870912	; 0xe0000000
b2007dc8:	01a01181 	lsleq	r1, r1, #3
b2007dcc:	03a03008 	moveq	r3, #8
b2007dd0:	13a03001 	movne	r3, #1
b2007dd4:	e3510201 	cmp	r1, #268435456	; 0x10000000
b2007dd8:	31510000 	cmpcc	r1, r0
b2007ddc:	31a01201 	lslcc	r1, r1, #4
b2007de0:	31a03203 	lslcc	r3, r3, #4
b2007de4:	3afffffa 	bcc	b2007dd4 <__udivsi3+0x2c>
b2007de8:	e3510102 	cmp	r1, #-2147483648	; 0x80000000
b2007dec:	31510000 	cmpcc	r1, r0
b2007df0:	31a01081 	lslcc	r1, r1, #1
b2007df4:	31a03083 	lslcc	r3, r3, #1
b2007df8:	3afffffa 	bcc	b2007de8 <__udivsi3+0x40>
b2007dfc:	e3a02000 	mov	r2, #0
b2007e00:	e1500001 	cmp	r0, r1
b2007e04:	20400001 	subcs	r0, r0, r1
b2007e08:	21822003 	orrcs	r2, r2, r3
b2007e0c:	e15000a1 	cmp	r0, r1, lsr #1
b2007e10:	204000a1 	subcs	r0, r0, r1, lsr #1
b2007e14:	218220a3 	orrcs	r2, r2, r3, lsr #1
b2007e18:	e1500121 	cmp	r0, r1, lsr #2
b2007e1c:	20400121 	subcs	r0, r0, r1, lsr #2
b2007e20:	21822123 	orrcs	r2, r2, r3, lsr #2
b2007e24:	e15001a1 	cmp	r0, r1, lsr #3
b2007e28:	204001a1 	subcs	r0, r0, r1, lsr #3
b2007e2c:	218221a3 	orrcs	r2, r2, r3, lsr #3
b2007e30:	e3500000 	cmp	r0, #0
b2007e34:	11b03223 	lsrsne	r3, r3, #4
b2007e38:	11a01221 	lsrne	r1, r1, #4
b2007e3c:	1affffef 	bne	b2007e00 <__udivsi3+0x58>
b2007e40:	e1a00002 	mov	r0, r2
b2007e44:	e12fff1e 	bx	lr
b2007e48:	03a00001 	moveq	r0, #1
b2007e4c:	13a00000 	movne	r0, #0
b2007e50:	e12fff1e 	bx	lr
b2007e54:	e3510801 	cmp	r1, #65536	; 0x10000
b2007e58:	21a01821 	lsrcs	r1, r1, #16
b2007e5c:	23a02010 	movcs	r2, #16
b2007e60:	33a02000 	movcc	r2, #0
b2007e64:	e3510c01 	cmp	r1, #256	; 0x100
b2007e68:	21a01421 	lsrcs	r1, r1, #8
b2007e6c:	22822008 	addcs	r2, r2, #8
b2007e70:	e3510010 	cmp	r1, #16
b2007e74:	21a01221 	lsrcs	r1, r1, #4
b2007e78:	22822004 	addcs	r2, r2, #4
b2007e7c:	e3510004 	cmp	r1, #4
b2007e80:	82822003 	addhi	r2, r2, #3
b2007e84:	908220a1 	addls	r2, r2, r1, lsr #1
b2007e88:	e1a00230 	lsr	r0, r0, r2
b2007e8c:	e12fff1e 	bx	lr
b2007e90:	e3500000 	cmp	r0, #0
b2007e94:	13e00000 	mvnne	r0, #0
b2007e98:	ea000059 	b	b2008004 <__aeabi_idiv0>

b2007e9c <__aeabi_uidivmod>:
b2007e9c:	e3510000 	cmp	r1, #0
b2007ea0:	0afffffa 	beq	b2007e90 <__udivsi3+0xe8>
b2007ea4:	e92d4003 	push	{r0, r1, lr}
b2007ea8:	ebffffbe 	bl	b2007da8 <__udivsi3>
b2007eac:	e8bd4006 	pop	{r1, r2, lr}
b2007eb0:	e0030092 	mul	r3, r2, r0
b2007eb4:	e0411003 	sub	r1, r1, r3
b2007eb8:	e12fff1e 	bx	lr

b2007ebc <__divsi3>:
b2007ebc:	e3510000 	cmp	r1, #0
b2007ec0:	0a000043 	beq	b2007fd4 <.divsi3_skip_div0_test+0x110>

b2007ec4 <.divsi3_skip_div0_test>:
b2007ec4:	e020c001 	eor	ip, r0, r1
b2007ec8:	42611000 	rsbmi	r1, r1, #0
b2007ecc:	e2512001 	subs	r2, r1, #1
b2007ed0:	0a000027 	beq	b2007f74 <.divsi3_skip_div0_test+0xb0>
b2007ed4:	e1b03000 	movs	r3, r0
b2007ed8:	42603000 	rsbmi	r3, r0, #0
b2007edc:	e1530001 	cmp	r3, r1
b2007ee0:	9a000026 	bls	b2007f80 <.divsi3_skip_div0_test+0xbc>
b2007ee4:	e1110002 	tst	r1, r2
b2007ee8:	0a000028 	beq	b2007f90 <.divsi3_skip_div0_test+0xcc>
b2007eec:	e311020e 	tst	r1, #-536870912	; 0xe0000000
b2007ef0:	01a01181 	lsleq	r1, r1, #3
b2007ef4:	03a02008 	moveq	r2, #8
b2007ef8:	13a02001 	movne	r2, #1
b2007efc:	e3510201 	cmp	r1, #268435456	; 0x10000000
b2007f00:	31510003 	cmpcc	r1, r3
b2007f04:	31a01201 	lslcc	r1, r1, #4
b2007f08:	31a02202 	lslcc	r2, r2, #4
b2007f0c:	3afffffa 	bcc	b2007efc <.divsi3_skip_div0_test+0x38>
b2007f10:	e3510102 	cmp	r1, #-2147483648	; 0x80000000
b2007f14:	31510003 	cmpcc	r1, r3
b2007f18:	31a01081 	lslcc	r1, r1, #1
b2007f1c:	31a02082 	lslcc	r2, r2, #1
b2007f20:	3afffffa 	bcc	b2007f10 <.divsi3_skip_div0_test+0x4c>
b2007f24:	e3a00000 	mov	r0, #0
b2007f28:	e1530001 	cmp	r3, r1
b2007f2c:	20433001 	subcs	r3, r3, r1
b2007f30:	21800002 	orrcs	r0, r0, r2
b2007f34:	e15300a1 	cmp	r3, r1, lsr #1
b2007f38:	204330a1 	subcs	r3, r3, r1, lsr #1
b2007f3c:	218000a2 	orrcs	r0, r0, r2, lsr #1
b2007f40:	e1530121 	cmp	r3, r1, lsr #2
b2007f44:	20433121 	subcs	r3, r3, r1, lsr #2
b2007f48:	21800122 	orrcs	r0, r0, r2, lsr #2
b2007f4c:	e15301a1 	cmp	r3, r1, lsr #3
b2007f50:	204331a1 	subcs	r3, r3, r1, lsr #3
b2007f54:	218001a2 	orrcs	r0, r0, r2, lsr #3
b2007f58:	e3530000 	cmp	r3, #0
b2007f5c:	11b02222 	lsrsne	r2, r2, #4
b2007f60:	11a01221 	lsrne	r1, r1, #4
b2007f64:	1affffef 	bne	b2007f28 <.divsi3_skip_div0_test+0x64>
b2007f68:	e35c0000 	cmp	ip, #0
b2007f6c:	42600000 	rsbmi	r0, r0, #0
b2007f70:	e12fff1e 	bx	lr
b2007f74:	e13c0000 	teq	ip, r0
b2007f78:	42600000 	rsbmi	r0, r0, #0
b2007f7c:	e12fff1e 	bx	lr
b2007f80:	33a00000 	movcc	r0, #0
b2007f84:	01a00fcc 	asreq	r0, ip, #31
b2007f88:	03800001 	orreq	r0, r0, #1
b2007f8c:	e12fff1e 	bx	lr
b2007f90:	e3510801 	cmp	r1, #65536	; 0x10000
b2007f94:	21a01821 	lsrcs	r1, r1, #16
b2007f98:	23a02010 	movcs	r2, #16
b2007f9c:	33a02000 	movcc	r2, #0
b2007fa0:	e3510c01 	cmp	r1, #256	; 0x100
b2007fa4:	21a01421 	lsrcs	r1, r1, #8
b2007fa8:	22822008 	addcs	r2, r2, #8
b2007fac:	e3510010 	cmp	r1, #16
b2007fb0:	21a01221 	lsrcs	r1, r1, #4
b2007fb4:	22822004 	addcs	r2, r2, #4
b2007fb8:	e3510004 	cmp	r1, #4
b2007fbc:	82822003 	addhi	r2, r2, #3
b2007fc0:	908220a1 	addls	r2, r2, r1, lsr #1
b2007fc4:	e35c0000 	cmp	ip, #0
b2007fc8:	e1a00233 	lsr	r0, r3, r2
b2007fcc:	42600000 	rsbmi	r0, r0, #0
b2007fd0:	e12fff1e 	bx	lr
b2007fd4:	e3500000 	cmp	r0, #0
b2007fd8:	c3e00102 	mvngt	r0, #-2147483648	; 0x80000000
b2007fdc:	b3a00102 	movlt	r0, #-2147483648	; 0x80000000
b2007fe0:	ea000007 	b	b2008004 <__aeabi_idiv0>

b2007fe4 <__aeabi_idivmod>:
b2007fe4:	e3510000 	cmp	r1, #0
b2007fe8:	0afffff9 	beq	b2007fd4 <.divsi3_skip_div0_test+0x110>
b2007fec:	e92d4003 	push	{r0, r1, lr}
b2007ff0:	ebffffb3 	bl	b2007ec4 <.divsi3_skip_div0_test>
b2007ff4:	e8bd4006 	pop	{r1, r2, lr}
b2007ff8:	e0030092 	mul	r3, r2, r0
b2007ffc:	e0411003 	sub	r1, r1, r3
b2008000:	e12fff1e 	bx	lr

b2008004 <__aeabi_idiv0>:
b2008004:	e12fff1e 	bx	lr

b2008008 <.LC0>:
b2008008:	20667562 	rsbcs	r7, r6, r2, ror #10
b200800c:	657a6973 	ldrbvs	r6, [sl, #-2419]!	; 0xfffff68d
b2008010:	746f6e20 	strbtvc	r6, [pc], #-3616	; b2008018 <.LC0+0x10>
b2008014:	6f6e6520 	svcvs	0x006e6520
b2008018:	2e686775 	mcrcs	7, 3, r6, cr8, cr5, {3}
b200801c:	00000a0d 	andeq	r0, r0, sp, lsl #20

b2008020 <.LC1>:
b2008020:	00003b3b 	andeq	r3, r0, fp, lsr fp

b2008024 <.LC2>:
b2008024:	00000a0d 	andeq	r0, r0, sp, lsl #20

b2008028 <.LC0>:
b2008028:	3a20524c 	bcc	b281c960 <_end+0x7ff84c>
b200802c:	0d782520 	cfldr64eq	mvdx2, [r8, #-128]!	; 0xffffff80
b2008030:	0000000a 	andeq	r0, r0, sl

b2008034 <.LC1>:
b2008034:	3a205053 	bcc	b281c188 <_end+0x7ff074>
b2008038:	0d782520 	cfldr64eq	mvdx2, [r8, #-128]!	; 0xffffff80
b200803c:	0000000a 	andeq	r0, r0, sl

b2008040 <.LC2>:
b2008040:	45524548 	ldrbmi	r4, [r2, #-1352]	; 0xfffffab8
b2008044:	00000a0d 	andeq	r0, r0, sp, lsl #20

b2008048 <.LC3>:
b2008048:	72737063 	rsbsvc	r7, r3, #99	; 0x63
b200804c:	25203a20 	strcs	r3, [r0, #-2592]!	; 0xfffff5e0
b2008050:	0a0d2078 	beq	b2350238 <_end+0x333124>
b2008054:	00000000 	andeq	r0, r0, r0

b2008058 <.LC4>:
b2008058:	204d454d 	subcs	r4, sp, sp, asr #10
b200805c:	52444441 	subpl	r4, r4, #1090519040	; 0x41000000
b2008060:	25203a20 	strcs	r3, [r0, #-2592]!	; 0xfffff5e0
b2008064:	2d2d2070 	stccs	0, cr2, [sp, #-448]!	; 0xfffffe40
b2008068:	4f43202d 	svcmi	0x0043202d
b200806c:	4e45544e 	cdpmi	4, 4, cr5, cr5, cr14, {2}
b2008070:	203a2054 	eorscs	r2, sl, r4, asr r0
b2008074:	0a0d7825 	beq	b2366110 <_end+0x348ffc>
b2008078:	00000000 	andeq	r0, r0, r0

b200807c <.LC5>:
b200807c:	75206e49 	strvc	r6, [r0, #-3657]!	; 0xfffff1b7
b2008080:	20726573 	rsbscs	r6, r2, r3, ror r5
b2008084:	65646f6d 	strbvs	r6, [r4, #-3949]!	; 0xfffff093
b2008088:	7063202e 	rsbvc	r2, r3, lr, lsr #32
b200808c:	6d207273 	sfmvs	f7, 4, [r0, #-460]!	; 0xfffffe34
b2008090:	2065646f 	rsbcs	r6, r5, pc, ror #8
b2008094:	73746962 	cmnvc	r4, #1605632	; 0x188000
b2008098:	78253a20 	stmdavc	r5!, {r5, r9, fp, ip, sp}
b200809c:	00000a0d 	andeq	r0, r0, sp, lsl #20

b20080a0 <.LC6>:
b20080a0:	73206e49 			; <UNDEFINED> instruction: 0x73206e49
b20080a4:	65747379 	ldrbvs	r7, [r4, #-889]!	; 0xfffffc87
b20080a8:	6f6d206d 	svcvs	0x006d206d
b20080ac:	202e6564 	eorcs	r6, lr, r4, ror #10
b20080b0:	72737063 	rsbsvc	r7, r3, #99	; 0x63
b20080b4:	646f6d20 	strbtvs	r6, [pc], #-3360	; b20080bc <.LC6+0x1c>
b20080b8:	69622065 	stmdbvs	r2!, {r0, r2, r5, r6, sp}^
b20080bc:	3a207374 	bcc	b2824e94 <_end+0x807d80>
b20080c0:	0a0d7825 	beq	b236615c <_end+0x349048>
b20080c4:	00000000 	andeq	r0, r0, r0

b20080c8 <.LC7>:
b20080c8:	69206e49 	stmdbvs	r0!, {r0, r3, r6, r9, sl, fp, sp, lr}
b20080cc:	6d207172 	stfvss	f7, [r0, #-456]!	; 0xfffffe38
b20080d0:	2e65646f 	cdpcs	4, 6, cr6, cr5, cr15, {3}
b20080d4:	73706320 	cmnvc	r0, #32, 6	; 0x80000000
b20080d8:	6f6d2072 	svcvs	0x006d2072
b20080dc:	62206564 	eorvs	r6, r0, #100, 10	; 0x19000000
b20080e0:	20737469 	rsbscs	r7, r3, r9, ror #8
b20080e4:	0d78253a 	cfldr64eq	mvdx2, [r8, #-232]!	; 0xffffff18
b20080e8:	0000000a 	andeq	r0, r0, sl

b20080ec <.LC8>:
b20080ec:	6b206e49 	blvs	b2823a18 <_end+0x806904>
b20080f0:	656e7265 	strbvs	r7, [lr, #-613]!	; 0xfffffd9b
b20080f4:	6f6d206c 	svcvs	0x006d206c
b20080f8:	202e6564 	eorcs	r6, lr, r4, ror #10
b20080fc:	72737063 	rsbsvc	r7, r3, #99	; 0x63
b2008100:	646f6d20 	strbtvs	r6, [pc], #-3360	; b2008108 <.LC8+0x1c>
b2008104:	69622065 	stmdbvs	r2!, {r0, r2, r5, r6, sp}^
b2008108:	3a207374 	bcc	b2824ee0 <_end+0x807dcc>
b200810c:	0a0d7825 	beq	b23661a8 <_end+0x349094>
b2008110:	00000000 	andeq	r0, r0, r0

b2008114 <.LC9>:
b2008114:	3a203052 	bcc	b2814264 <_end+0x7f7150>
b2008118:	2d782520 	cfldr64cs	mvdx2, [r8, #-128]!	; 0xffffff80
b200811c:	31522d2d 	cmpcc	r2, sp, lsr #26
b2008120:	25203a20 	strcs	r3, [r0, #-2592]!	; 0xfffff5e0
b2008124:	2d2d2d78 	stccs	13, cr2, [sp, #-480]!	; 0xfffffe20
b2008128:	3a203252 	bcc	b2814a78 <_end+0x7f7964>
b200812c:	2d782520 	cfldr64cs	mvdx2, [r8, #-128]!	; 0xffffff80
b2008130:	33522d2d 	cmpcc	r2, #2880	; 0xb40
b2008134:	25203a20 	strcs	r3, [r0, #-2592]!	; 0xfffff5e0
b2008138:	000a0d78 	andeq	r0, sl, r8, ror sp

b200813c <.LC10>:
b200813c:	6e697250 	mcrvs	2, 3, r7, cr9, cr0, {2}
b2008140:	72662074 	rsbvc	r2, r6, #116	; 0x74
b2008144:	6c206565 	cfstr32vs	mvfx6, [r0], #-404	; 0xfffffe6c
b2008148:	20747369 	rsbscs	r7, r4, r9, ror #6
b200814c:	6d6f7266 	sfmvs	f7, 2, [pc, #-408]!	; b2007fbc <.divsi3_skip_div0_test+0xf8>
b2008150:	61656820 	cmnvs	r5, r0, lsr #16
b2008154:	000a0d64 	andeq	r0, sl, r4, ror #26

b2008158 <.LC11>:
b2008158:	20207025 	eorcs	r7, r0, r5, lsr #32
b200815c:	00000000 	andeq	r0, r0, r0

b2008160 <.LC12>:
b2008160:	206d656d 	rsbcs	r6, sp, sp, ror #10
b2008164:	61657261 	cmnvs	r5, r1, ror #4
b2008168:	3a646920 	bcc	b39225f0 <_end+0x19054dc>
b200816c:	20206425 	eorcs	r6, r0, r5, lsr #8
b2008170:	00000000 	andeq	r0, r0, r0

b2008174 <.LC13>:
b2008174:	206d656d 	rsbcs	r6, sp, sp, ror #10
b2008178:	61657261 	cmnvs	r5, r1, ror #4
b200817c:	61747320 	cmnvs	r4, r0, lsr #6
b2008180:	3a737574 	bcc	b3ce5758 <_end+0x1cc8644>
b2008184:	0a0d6425 	beq	b2361220 <_end+0x34410c>
b2008188:	00000000 	andeq	r0, r0, r0

b200818c <.LC14>:
b200818c:	6e697250 	mcrvs	2, 3, r7, cr9, cr0, {2}
b2008190:	72662074 	rsbvc	r2, r6, #116	; 0x74
b2008194:	6c206565 	cfstr32vs	mvfx6, [r0], #-404	; 0xfffffe6c
b2008198:	20747369 	rsbscs	r7, r4, r9, ror #6
b200819c:	6d6f7266 	sfmvs	f7, 2, [pc, #-408]!	; b200800c <.LC0+0x4>
b20081a0:	646e6520 	strbtvs	r6, [lr], #-1312	; 0xfffffae0
b20081a4:	00000a0d 	andeq	r0, r0, sp, lsl #20

b20081a8 <.LC15>:
b20081a8:	6e697250 	mcrvs	2, 3, r7, cr9, cr0, {2}
b20081ac:	6e692074 	mcrvs	0, 3, r2, cr9, cr4, {3}
b20081b0:	20657375 	rsbcs	r7, r5, r5, ror r3
b20081b4:	7473696c 	ldrbtvc	r6, [r3], #-2412	; 0xfffff694
b20081b8:	00000a0d 	andeq	r0, r0, sp, lsl #20

b20081bc <.LC16>:
b20081bc:	74736554 	ldrbtvc	r6, [r3], #-1364	; 0xfffffaac
b20081c0:	6c6c6120 	stfvse	f6, [ip], #-128	; 0xffffff80
b20081c4:	0a0d636f 	beq	b2360f88 <_end+0x343e74>
b20081c8:	00000000 	andeq	r0, r0, r0

b20081cc <.LC17>:
b20081cc:	74736554 	ldrbtvc	r6, [r3], #-1364	; 0xfffffaac
b20081d0:	65726620 	ldrbvs	r6, [r2, #-1568]!	; 0xfffff9e0
b20081d4:	000a0d65 	andeq	r0, sl, r5, ror #26

b20081d8 <.LC18>:
b20081d8:	61657241 	cmnvs	r5, r1, asr #4
b20081dc:	62207327 	eorvs	r7, r0, #-1677721600	; 0x9c000000
b20081e0:	685f6b6c 	ldmdavs	pc, {r2, r3, r5, r6, r8, r9, fp, sp, lr}^	; <UNPREDICTABLE>
b20081e4:	5f646165 	svcpl	0x00646165
b20081e8:	20727470 	rsbscs	r7, r2, r0, ror r4
b20081ec:	72646461 	rsbvc	r6, r4, #1627389952	; 0x61000000
b20081f0:	70253d20 	eorvc	r3, r5, r0, lsr #26
b20081f4:	00000a0d 	andeq	r0, r0, sp, lsl #20

b20081f8 <.LC19>:
b20081f8:	253d2070 	ldrcs	r2, [sp, #-112]!	; 0xffffff90
b20081fc:	000a0d70 	andeq	r0, sl, r0, ror sp

b2008200 <.LC20>:
b2008200:	61657241 	cmnvs	r5, r1, asr #4
b2008204:	73207327 			; <UNDEFINED> instruction: 0x73207327
b2008208:	74726174 	ldrbtvc	r6, [r2], #-372	; 0xfffffe8c
b200820c:	64646120 	strbtvs	r6, [r4], #-288	; 0xfffffee0
b2008210:	253d2072 	ldrcs	r2, [sp, #-114]!	; 0xffffff8e
b2008214:	000a0d70 	andeq	r0, sl, r0, ror sp

b2008218 <.LC21>:
b2008218:	61657241 	cmnvs	r5, r1, asr #4
b200821c:	62207327 	eorvs	r7, r0, #-1677721600	; 0x9c000000
b2008220:	20736b6c 	rsbscs	r6, r3, ip, ror #22
b2008224:	6b6e696c 	blvs	b3ba27dc <_end+0x1b856c8>
b2008228:	64646120 	strbtvs	r6, [r4], #-288	; 0xfffffee0
b200822c:	253d2072 	ldrcs	r2, [sp, #-114]!	; 0xffffff8e
b2008230:	252c2070 	strcs	r2, [ip, #-112]!	; 0xffffff90
b2008234:	000a0d78 	andeq	r0, sl, r8, ror sp

b2008238 <.LC22>:
b2008238:	61657241 	cmnvs	r5, r1, asr #4
b200823c:	62207327 	eorvs	r7, r0, #-1677721600	; 0x9c000000
b2008240:	20736b6c 	rsbscs	r6, r3, ip, ror #22
b2008244:	6b6e696c 	blvs	b3ba27fc <_end+0x1b856e8>
b2008248:	64646120 	strbtvs	r6, [r4], #-288	; 0xfffffee0
b200824c:	253d2072 	ldrcs	r2, [sp, #-114]!	; 0xffffff8e
b2008250:	000a0d70 	andeq	r0, sl, r0, ror sp

b2008254 <.LC23>:
b2008254:	75746572 	ldrbvc	r6, [r4, #-1394]!	; 0xfffffa8e
b2008258:	70206e72 	eorvc	r6, r0, r2, ror lr
b200825c:	3d207274 	sfmcc	f7, 4, [r0, #-464]!	; 0xfffffe30
b2008260:	0a0d7025 	beq	b23642fc <_end+0x3471e8>
b2008264:	00000000 	andeq	r0, r0, r0

b2008268 <.LC24>:
b2008268:	206b6c62 	rsbcs	r6, fp, r2, ror #24
b200826c:	64616568 	strbtvs	r6, [r1], #-1384	; 0xfffffa98
b2008270:	70253d20 	eorvc	r3, r5, r0, lsr #26
b2008274:	00000a0d 	andeq	r0, r0, sp, lsl #20

b2008278 <.LC25>:
b2008278:	74736554 	ldrbtvc	r6, [r3], #-1364	; 0xfffffaac
b200827c:	65726620 	ldrbvs	r6, [r2, #-1568]!	; 0xfffff9e0
b2008280:	6c625f65 	stclvs	15, cr5, [r2], #-404	; 0xfffffe6c
b2008284:	000a0d6b 	andeq	r0, sl, fp, ror #26

b2008288 <.LC26>:
b2008288:	72646461 	rsbvc	r6, r4, #1627389952	; 0x61000000
b200828c:	2070253d 	rsbscs	r2, r0, sp, lsr r5
b2008290:	6e6f632c 	cdpvs	3, 6, cr6, cr15, cr12, {1}
b2008294:	746e6574 	strbtvc	r6, [lr], #-1396	; 0xfffffa8c
b2008298:	0d78253d 	cfldr64eq	mvdx2, [r8, #-244]!	; 0xffffff0c
b200829c:	0000000a 	andeq	r0, r0, sl

b20082a0 <.LC0>:
b20082a0:	20667562 	rsbcs	r7, r6, r2, ror #10
b20082a4:	657a6973 	ldrbvs	r6, [sl, #-2419]!	; 0xfffff68d
b20082a8:	746f6e20 	strbtvc	r6, [pc], #-3616	; b20082b0 <.LC0+0x10>
b20082ac:	6f6e6520 	svcvs	0x006e6520
b20082b0:	2e686775 	mcrcs	7, 3, r6, cr8, cr5, {3}
b20082b4:	00000a0d 	andeq	r0, r0, sp, lsl #20

b20082b8 <.LC1>:
b20082b8:	00000a0d 	andeq	r0, r0, sp, lsl #20

b20082bc <.LC2>:
b20082bc:	696c7053 	stmdbvs	ip!, {r0, r1, r4, r6, ip, sp, lr}^
b20082c0:	75732074 	ldrbvc	r2, [r3, #-116]!	; 0xffffff8c
b20082c4:	72696462 	rsbvc	r6, r9, #1644167168	; 0x62000000
b20082c8:	73696c20 	cmnvc	r9, #32, 24	; 0x2000
b20082cc:	74732074 	ldrbtvc	r2, [r3], #-116	; 0xffffff8c
b20082d0:	676e6972 			; <UNDEFINED> instruction: 0x676e6972
b20082d4:	0000002e 	andeq	r0, r0, lr, lsr #32

b20082d8 <.LC3>:
b20082d8:	00003b3b 	andeq	r3, r0, fp, lsr fp

b20082dc <.LC4>:
b20082dc:	00000a0d 	andeq	r0, r0, sp, lsl #20

b20082e0 <.LC5>:
b20082e0:	65675f5f 	strbvs	r5, [r7, #-3935]!	; 0xfffff0a1
b20082e4:	62757374 	rsbsvs	r7, r5, #116, 6	; 0xd0000001
b20082e8:	20726964 	rsbscs	r6, r2, r4, ror #18
b20082ec:	74736554 	ldrbtvc	r6, [r3], #-1364	; 0xfffffaac
b20082f0:	646e6520 	strbtvs	r6, [lr], #-1312	; 0xfffffae0
b20082f4:	0a0d0a0d 	beq	b234ab30 <_end+0x32da1c>
b20082f8:	00000000 	andeq	r0, r0, r0

b20082fc <.LC6>:
b20082fc:	696c7053 	stmdbvs	ip!, {r0, r1, r4, r6, ip, sp, lr}^
b2008300:	69662074 	stmdbvs	r6!, {r2, r4, r5, r6, sp}^
b2008304:	6c20656c 	cfstr32vs	mvfx6, [r0], #-432	; 0xfffffe50
b2008308:	20747369 	rsbscs	r7, r4, r9, ror #6
b200830c:	69727473 	ldmdbvs	r2!, {r0, r1, r4, r5, r6, sl, ip, sp, lr}^
b2008310:	002e676e 	eoreq	r6, lr, lr, ror #14

b2008314 <.LC7>:
b2008314:	65675f5f 	strbvs	r5, [r7, #-3935]!	; 0xfffff0a1
b2008318:	69646674 	stmdbvs	r4!, {r2, r4, r5, r6, r9, sl, sp, lr}^
b200831c:	65542072 	ldrbvs	r2, [r4, #-114]	; 0xffffff8e
b2008320:	65207473 	strvs	r7, [r0, #-1139]!	; 0xfffffb8d
b2008324:	0a0d646e 	beq	b23614e4 <_end+0x3443d0>
b2008328:	00000000 	andeq	r0, r0, r0

b200832c <.LC8>:
b200832c:	694c0a0d 	stmdbvs	ip, {r0, r2, r3, r9, fp}^
b2008330:	73207473 			; <UNDEFINED> instruction: 0x73207473
b2008334:	69646275 	stmdbvs	r4!, {r0, r2, r4, r5, r6, r9, sp, lr}^
b2008338:	61207372 			; <UNDEFINED> instruction: 0x61207372
b200833c:	6620646e 	strtvs	r6, [r0], -lr, ror #8
b2008340:	73656c69 	cmnvc	r5, #26880	; 0x6900
b2008344:	00000a0d 	andeq	r0, r0, sp, lsl #20

b2008348 <.LC9>:
b2008348:	0a0d0a0d 	beq	b234ab84 <_end+0x32da70>
b200834c:	6e616843 	cdpvs	8, 6, cr6, cr1, cr3, {2}
b2008350:	64206567 	strtvs	r6, [r0], #-1383	; 0xfffffa99
b2008354:	74207269 	strtvc	r7, [r0], #-617	; 0xfffffd97
b2008358:	2e747365 	cdpcs	3, 7, cr7, cr4, cr5, {3}
b200835c:	00000000 	andeq	r0, r0, r0

b2008360 <.LC10>:
b2008360:	7665642f 	strbtvc	r6, [r5], -pc, lsr #8
b2008364:	00000000 	andeq	r0, r0, r0

b2008368 <.LC11>:
b2008368:	69440a0d 	stmdbvs	r4, {r0, r2, r3, r9, fp}^
b200836c:	6f6e2072 	svcvs	0x006e2072
b2008370:	6f662074 	svcvs	0x00662074
b2008374:	0d646e75 	stcleq	14, cr6, [r4, #-468]!	; 0xfffffe2c
b2008378:	0000000a 	andeq	r0, r0, sl

b200837c <.LC12>:
b200837c:	00002e2e 	andeq	r2, r0, lr, lsr #28

b2008380 <.LC13>:
b2008380:	694c0a0d 	stmdbvs	ip, {r0, r2, r3, r9, fp}^
b2008384:	73207473 			; <UNDEFINED> instruction: 0x73207473
b2008388:	69646275 	stmdbvs	r4!, {r0, r2, r4, r5, r6, r9, sp, lr}^
b200838c:	61207372 			; <UNDEFINED> instruction: 0x61207372
b2008390:	6620646e 	strtvs	r6, [r0], -lr, ror #8
b2008394:	73656c69 	cmnvc	r5, #26880	; 0x6900
b2008398:	00000000 	andeq	r0, r0, r0

b200839c <.LC0>:
b200839c:	7665642f 	strbtvc	r6, [r5], -pc, lsr #8
b20083a0:	00000000 	andeq	r0, r0, r0

b20083a4 <.LC1>:
b20083a4:	6669662f 	strbtvs	r6, [r9], -pc, lsr #12
b20083a8:	0000006f 	andeq	r0, r0, pc, rrx

b20083ac <.LC2>:
b20083ac:	6e6f632f 	cdpvs	3, 6, cr6, cr15, cr15, {1}
b20083b0:	656c6f73 	strbvs	r6, [ip, #-3955]!	; 0xfffff08d
b20083b4:	006e695f 	rsbeq	r6, lr, pc, asr r9
b20083b8:	00000000 	andeq	r0, r0, r0

b20083bc <.LC3>:
b20083bc:	6e6f632f 	cdpvs	3, 6, cr6, cr15, cr15, {1}
b20083c0:	656c6f73 	strbvs	r6, [ip, #-3955]!	; 0xfffff08d
b20083c4:	74756f5f 	ldrbtvc	r6, [r5], #-3935	; 0xfffff0a1
b20083c8:	00000000 	andeq	r0, r0, r0

b20083cc <.LC4>:
b20083cc:	7974742f 	ldmdbvc	r4!, {r0, r1, r2, r3, r5, sl, ip, sp, lr}^
b20083d0:	00000030 	andeq	r0, r0, r0, lsr r0

b20083d4 <.LC5>:
b20083d4:	6c69662f 	stclvs	6, cr6, [r9], #-188	; 0xffffff44
b20083d8:	726f4665 	rsbvc	r4, pc, #105906176	; 0x6500000
b20083dc:	74736554 	ldrbtvc	r6, [r3], #-1364	; 0xfffffaac
b20083e0:	00000031 	andeq	r0, r0, r1, lsr r0

b20083e4 <.LC6>:
b20083e4:	6c69662f 	stclvs	6, cr6, [r9], #-188	; 0xffffff44
b20083e8:	726f4665 	rsbvc	r4, pc, #105906176	; 0x6500000
b20083ec:	74736554 	ldrbtvc	r6, [r3], #-1364	; 0xfffffaac
b20083f0:	00000032 	andeq	r0, r0, r2, lsr r0

b20083f4 <.LC7>:
b20083f4:	6c69662f 	stclvs	6, cr6, [r9], #-188	; 0xffffff44
b20083f8:	726f4665 	rsbvc	r4, pc, #105906176	; 0x6500000
b20083fc:	74736554 	ldrbtvc	r6, [r3], #-1364	; 0xfffffaac
b2008400:	00000033 	andeq	r0, r0, r3, lsr r0

b2008404 <.LC8>:
b2008404:	6c69662f 	stclvs	6, cr6, [r9], #-188	; 0xffffff44
b2008408:	726f4665 	rsbvc	r4, pc, #105906176	; 0x6500000
b200840c:	74736554 	ldrbtvc	r6, [r3], #-1364	; 0xfffffaac
b2008410:	00000034 	andeq	r0, r0, r4, lsr r0

b2008414 <.LC9>:
b2008414:	6c69662f 	stclvs	6, cr6, [r9], #-188	; 0xffffff44
b2008418:	726f4665 	rsbvc	r4, pc, #105906176	; 0x6500000
b200841c:	74736554 	ldrbtvc	r6, [r3], #-1364	; 0xfffffaac
b2008420:	00000035 	andeq	r0, r0, r5, lsr r0

b2008424 <.LC10>:
b2008424:	6f6f722f 	svcvs	0x006f722f
b2008428:	00000074 	andeq	r0, r0, r4, ror r0

b200842c <.LC11>:
b200842c:	00002e2e 	andeq	r2, r0, lr, lsr #28

b2008430 <.LC0>:
b2008430:	2b2b0a0d 	blcs	b2acac6c <_end+0xaadb58>
b2008434:	2b2b2b2b 	blcs	b2ad30e8 <_end+0xab5fd4>
b2008438:	2b2b2b2b 	blcs	b2ad30ec <_end+0xab5fd8>
b200843c:	2b2b2b2b 	blcs	b2ad30f0 <_end+0xab5fdc>
b2008440:	2b2b2b2b 	blcs	b2ad30f4 <_end+0xab5fe0>
b2008444:	2b2b2b2b 	blcs	b2ad30f8 <_end+0xab5fe4>
b2008448:	2b2b2b2b 	blcs	b2ad30fc <_end+0xab5fe8>
b200844c:	2b2b2b2b 	blcs	b2ad3100 <_end+0xab5fec>
b2008450:	2b2b2b2b 	blcs	b2ad3104 <_end+0xab5ff0>
b2008454:	2b2b2b2b 	blcs	b2ad3108 <_end+0xab5ff4>
b2008458:	0d2b2b2b 	fstmdbxeq	fp!, {d2-d22}	;@ Deprecated
b200845c:	0000000a 	andeq	r0, r0, sl

b2008460 <.LC1>:
b2008460:	74736554 	ldrbtvc	r6, [r3], #-1364	; 0xfffffaac
b2008464:	73797320 	cmnvc	r9, #32, 6	; 0x80000000
b2008468:	6c6c6163 	stfvse	f6, [ip], #-396	; 0xfffffe74
b200846c:	6c616d20 	stclvs	13, cr6, [r1], #-128	; 0xffffff80
b2008470:	5f636f6c 	svcpl	0x00636f6c
b2008474:	206b6c62 	rsbcs	r6, fp, r2, ror #24
b2008478:	20646e61 	rsbcs	r6, r4, r1, ror #28
b200847c:	6572666d 	ldrbvs	r6, [r2, #-1645]!	; 0xfffff993
b2008480:	6c625f65 	stclvs	15, cr5, [r2], #-404	; 0xfffffe6c
b2008484:	7566206b 	strbvc	r2, [r6, #-107]!	; 0xffffff95
b2008488:	6974636e 	ldmdbvs	r4!, {r1, r2, r3, r5, r6, r8, r9, sp, lr}^
b200848c:	0d2e6e6f 	stceq	14, cr6, [lr, #-444]!	; 0xfffffe44
b2008490:	0000000a 	andeq	r0, r0, sl

b2008494 <.LC2>:
b2008494:	20747331 	rsbscs	r7, r4, r1, lsr r3
b2008498:	206b6c62 	rsbcs	r6, fp, r2, ror #24
b200849c:	72617473 	rsbvc	r7, r1, #1929379840	; 0x73000000
b20084a0:	64612074 	strbtvs	r2, [r1], #-116	; 0xffffff8c
b20084a4:	3d207264 	sfmcc	f7, 4, [r0, #-400]!	; 0xfffffe70
b20084a8:	0a0d7025 	beq	b2364544 <_end+0x347430>
b20084ac:	00000000 	andeq	r0, r0, r0

b20084b0 <.LC3>:
b20084b0:	20646e32 	rsbcs	r6, r4, r2, lsr lr
b20084b4:	206b6c62 	rsbcs	r6, fp, r2, ror #24
b20084b8:	72617473 	rsbvc	r7, r1, #1929379840	; 0x73000000
b20084bc:	64612074 	strbtvs	r2, [r1], #-116	; 0xffffff8c
b20084c0:	3d207264 	sfmcc	f7, 4, [r0, #-400]!	; 0xfffffe70
b20084c4:	0a0d7025 	beq	b2364560 <_end+0x34744c>
b20084c8:	00000000 	andeq	r0, r0, r0

b20084cc <.LC4>:
b20084cc:	20647233 	rsbcs	r7, r4, r3, lsr r2
b20084d0:	206b6c62 	rsbcs	r6, fp, r2, ror #24
b20084d4:	72617473 	rsbvc	r7, r1, #1929379840	; 0x73000000
b20084d8:	64612074 	strbtvs	r2, [r1], #-116	; 0xffffff8c
b20084dc:	3d207264 	sfmcc	f7, 4, [r0, #-400]!	; 0xfffffe70
b20084e0:	0a0d7025 	beq	b236457c <_end+0x347468>
b20084e4:	00000000 	andeq	r0, r0, r0

b20084e8 <.LC5>:
b20084e8:	20776f4e 	rsbscs	r6, r7, lr, asr #30
b20084ec:	74736574 	ldrbtvc	r6, [r3], #-1396	; 0xfffffa8c
b20084f0:	73797320 	cmnvc	r9, #32, 6	; 0x80000000
b20084f4:	6c6c6163 	stfvse	f6, [ip], #-396	; 0xfffffe74
b20084f8:	726f6620 	rsbvc	r6, pc, #32, 12	; 0x2000000
b20084fc:	7566206b 	strbvc	r2, [r6, #-107]!	; 0xffffff95
b2008500:	6974636e 	ldmdbvs	r4!, {r1, r2, r3, r5, r6, r8, r9, sp, lr}^
b2008504:	0d2e6e6f 	stceq	14, cr6, [lr, #-444]!	; 0xfffffe44
b2008508:	0000000a 	andeq	r0, r0, sl

b200850c <.LC6>:
b200850c:	65746641 	ldrbvs	r6, [r4, #-1601]!	; 0xfffff9bf
b2008510:	6f662072 	svcvs	0x00662072
b2008514:	2c206b72 			; <UNDEFINED> instruction: 0x2c206b72
b2008518:	253d5f72 	ldrcs	r5, [sp, #-3954]!	; 0xfffff08e
b200851c:	000a0d64 	andeq	r0, sl, r4, ror #26

b2008520 <.LC7>:
b2008520:	206d2749 	rsbcs	r2, sp, r9, asr #14
b2008524:	72726170 	rsbsvc	r6, r2, #112, 2
b2008528:	20746e65 	rsbscs	r6, r4, r5, ror #28
b200852c:	6b736174 	blvs	b3ce0b04 <_end+0x1cc39f0>
b2008530:	69742c20 	ldmdbvs	r4!, {r5, sl, fp, sp}^
b2008534:	64253d64 	strtvs	r3, [r5], #-3428	; 0xfffff29c
b2008538:	00000a0d 	andeq	r0, r0, sp, lsl #20

b200853c <.LC8>:
b200853c:	206d2749 	rsbcs	r2, sp, r9, asr #14
b2008540:	6c696863 	stclvs	8, cr6, [r9], #-396	; 0xfffffe74
b2008544:	61742064 	cmnvs	r4, r4, rrx
b2008548:	2c2e6b73 			; <UNDEFINED> instruction: 0x2c2e6b73
b200854c:	64697420 	strbtvs	r7, [r9], #-1056	; 0xfffffbe0
b2008550:	0d64253d 	cfstr64eq	mvdx2, [r4, #-244]!	; 0xffffff0c
b2008554:	0000000a 	andeq	r0, r0, sl

b2008558 <.LC0>:
b2008558:	65726548 	ldrbvs	r6, [r2, #-1352]!	; 0xfffffab8
b200855c:	00000a0d 	andeq	r0, r0, sp, lsl #20

b2008560 <.LC1>:
b2008560:	70206e49 	eorvc	r6, r0, r9, asr #28
b2008564:	65666572 	strbvs	r6, [r6, #-1394]!	; 0xfffffa8e
b2008568:	5f686374 	svcpl	0x00686374
b200856c:	726f6261 	rsbvc	r6, pc, #268435462	; 0x10000006
b2008570:	61685f74 	smcvs	34292	; 0x85f4
b2008574:	656c646e 	strbvs	r6, [ip, #-1134]!	; 0xfffffb92
b2008578:	000a0d72 	andeq	r0, sl, r2, ror sp

b200857c <.LC2>:
b200857c:	64206e49 	strtvs	r6, [r0], #-3657	; 0xfffff1b7
b2008580:	5f617461 	svcpl	0x00617461
b2008584:	726f6261 	rsbvc	r6, pc, #268435462	; 0x10000006
b2008588:	61685f74 	smcvs	34292	; 0x85f4
b200858c:	656c646e 	strbvs	r6, [ip, #-1134]!	; 0xfffffb92
b2008590:	000a0d72 	andeq	r0, sl, r2, ror sp

b2008594 <.LC0>:
b2008594:	33323130 	teqcc	r2, #48, 2
b2008598:	37363534 			; <UNDEFINED> instruction: 0x37363534
b200859c:	62613938 	rsbvs	r3, r1, #56, 18	; 0xe0000
b20085a0:	66656463 	strbtvs	r6, [r5], -r3, ror #8
b20085a4:	00000000 	andeq	r0, r0, r0

b20085a8 <.LC0>:
b20085a8:	62616e45 	rsbvs	r6, r1, #1104	; 0x450
b20085ac:	4d20656c 	cfstr32mi	mvfx6, [r0, #-432]!	; 0xfffffe50
b20085b0:	0d2e554d 	cfstr32eq	mvfx5, [lr, #-308]!	; 0xfffffecc
b20085b4:	0000000a 	andeq	r0, r0, sl

b20085b8 <.LC1>:
b20085b8:	654b0a0d 	strbvs	r0, [fp, #-2573]	; 0xfffff5f3
b20085bc:	6c656e72 	stclvs	14, cr6, [r5], #-456	; 0xfffffe38
b20085c0:	696e4920 	stmdbvs	lr!, {r5, r8, fp, lr}^
b20085c4:	74732074 	ldrbtvc	r2, [r3], #-116	; 0xffffff8c
b20085c8:	2e747261 	cdpcs	2, 7, cr7, cr4, cr1, {3}
b20085cc:	0a0d2e2e 	beq	b2353e8c <_end+0x336d78>
b20085d0:	00000000 	andeq	r0, r0, r0

b20085d4 <.LC2>:
b20085d4:	3a207073 	bcc	b28247a8 <_end+0x807694>
b20085d8:	20782520 	rsbscs	r2, r8, r0, lsr #10
b20085dc:	432d2d2d 			; <UNDEFINED> instruction: 0x432d2d2d
b20085e0:	5f353150 	svcpl	0x00353150
b20085e4:	3a203163 	bcc	b2814b78 <_end+0x7f7a64>
b20085e8:	0d782520 	cfldr64eq	mvdx2, [r8, #-128]!	; 0xffffff80
b20085ec:	0000000a 	andeq	r0, r0, sl

b20085f0 <.LC3>:
b20085f0:	52535043 	subspl	r5, r3, #67	; 0x43
b20085f4:	67657220 	strbvs	r7, [r5, -r0, lsr #4]!
b20085f8:	65747369 	ldrbvs	r7, [r4, #-873]!	; 0xfffffc97
b20085fc:	78252072 	stmdavc	r5!, {r1, r4, r5, r6, sp}
b2008600:	00000a0d 	andeq	r0, r0, sp, lsl #20

b2008604 <.LC4>:
b2008604:	65637845 	strbvs	r7, [r3, #-2117]!	; 0xfffff7bb
b2008608:	6f697470 	svcvs	0x00697470
b200860c:	6556206e 	ldrbvs	r2, [r6, #-110]	; 0xffffff92
b2008610:	726f7463 	rsbvc	r7, pc, #1660944384	; 0x63000000
b2008614:	73614220 	cmnvc	r1, #32, 4
b2008618:	203d2065 	eorscs	r2, sp, r5, rrx
b200861c:	0a0d7825 	beq	b23666b8 <_end+0x3495a4>
b2008620:	00000000 	andeq	r0, r0, r0

b2008624 <.LC5>:
b2008624:	6e72656b 	cdpvs	5, 7, cr6, cr2, cr11, {3}
b2008628:	655f6c65 	ldrbvs	r6, [pc, #-3173]	; b20079cb <usrLedBlink+0xaf>
b200862c:	6120646e 			; <UNDEFINED> instruction: 0x6120646e
b2008630:	65726464 	ldrbvs	r6, [r2, #-1124]!	; 0xfffffb9c
b2008634:	3a207373 	bcc	b2825408 <_end+0x8082f4>
b2008638:	0a0d7825 	beq	b23666d4 <_end+0x3495c0>
b200863c:	00000000 	andeq	r0, r0, r0

b2008640 <.LC6>:
b2008640:	73726946 	cmnvc	r2, #1146880	; 0x118000
b2008644:	72612074 	rsbvc	r2, r1, #116	; 0x74
b2008648:	6f206165 	svcvs	0x00206165
b200864c:	656d2066 	strbvs	r2, [sp, #-102]!	; 0xffffff9a
b2008650:	726f656d 	rsbvc	r6, pc, #457179136	; 0x1b400000
b2008654:	64612079 	strbtvs	r2, [r1], #-121	; 0xffffff87
b2008658:	73657264 	cmnvc	r5, #100, 4	; 0x40000006
b200865c:	74732073 	ldrbtvc	r2, [r3], #-115	; 0xffffff8d
b2008660:	20747261 	rsbscs	r7, r4, r1, ror #4
b2008664:	3a207461 	bcc	b28257f0 <_end+0x8086dc>
b2008668:	0a0d7025 	beq	b2364704 <_end+0x3475f0>
b200866c:	00000000 	andeq	r0, r0, r0

b2008670 <.LC7>:
b2008670:	696e490a 	stmdbvs	lr!, {r1, r3, r8, fp, lr}^
b2008674:	6c616974 			; <UNDEFINED> instruction: 0x6c616974
b2008678:	20657a69 	rsbcs	r7, r5, r9, ror #20
b200867c:	72657375 	rsbvc	r7, r5, #-738197503	; 0xd4000001
b2008680:	64656c20 	strbtvs	r6, [r5], #-3104	; 0xfffff3e0
b2008684:	2e2e2e73 	mcrcs	14, 1, r2, cr14, cr3, {3}
b2008688:	00000a0d 	andeq	r0, r0, sp, lsl #20

b200868c <.LC8>:
b200868c:	74696e49 	strbtvc	r6, [r9], #-3657	; 0xfffff1b7
b2008690:	746e6920 	strbtvc	r6, [lr], #-2336	; 0xfffff6e0
b2008694:	75727265 	ldrbvc	r7, [r2, #-613]!	; 0xfffffd9b
b2008698:	0d2e7470 	cfstrseq	mvf7, [lr, #-448]!	; 0xfffffe40
b200869c:	0000000a 	andeq	r0, r0, sl

b20086a0 <.LC9>:
b20086a0:	74696e49 	strbtvc	r6, [r9], #-3657	; 0xfffff1b7
b20086a4:	6d695420 	cfstrdvs	mvd5, [r9, #-128]!	; 0xffffff80
b20086a8:	20307265 	eorscs	r7, r0, r5, ror #4
b20086ac:	73206f74 			; <UNDEFINED> instruction: 0x73206f74
b20086b0:	63746977 	cmnvs	r4, #1949696	; 0x1dc000
b20086b4:	61742068 	cmnvs	r4, r8, rrx
b20086b8:	2e736b73 	vmovcs.s8	r6, d3[7]
b20086bc:	00000a0d 	andeq	r0, r0, sp, lsl #20

b20086c0 <.LC10>:
b20086c0:	74696e49 	strbtvc	r6, [r9], #-3657	; 0xfffff1b7
b20086c4:	73615420 	cmnvc	r1, #32, 8	; 0x20000000
b20086c8:	5320736b 			; <UNDEFINED> instruction: 0x5320736b
b20086cc:	6c6c6568 	cfstr64vs	mvdx6, [ip], #-416	; 0xfffffe60
b20086d0:	0d2e2e2e 	stceq	14, cr2, [lr, #-184]!	; 0xffffff48
b20086d4:	0000000a 	andeq	r0, r0, sl

b20086d8 <.LC11>:
b20086d8:	65686353 	strbvs	r6, [r8, #-851]!	; 0xfffffcad
b20086dc:	74532064 	ldrbvc	r2, [r3], #-100	; 0xffffff9c
b20086e0:	69747261 	ldmdbvs	r4!, {r0, r5, r6, r9, ip, sp, lr}^
b20086e4:	2e2e676e 	cdpcs	7, 2, cr6, cr14, cr14, {3}
b20086e8:	000a0d2e 	andeq	r0, sl, lr, lsr #26

b20086ec <.LC0>:
b20086ec:	68530a0d 	ldmdavs	r3, {r0, r2, r3, r9, fp}^
b20086f0:	6d20776f 	stcvs	7, cr7, [r0, #-444]!	; 0xfffffe44
b20086f4:	726f6d65 	rsbvc	r6, pc, #6464	; 0x1940
b20086f8:	6f632079 	svcvs	0x00632079
b20086fc:	6e65746e 	cdpvs	4, 6, cr7, cr5, cr14, {3}
b2008700:	00003a74 	andeq	r3, r0, r4, ror sl

b2008704 <.LC1>:
b2008704:	00000a0d 	andeq	r0, r0, sp, lsl #20

b2008708 <.LC2>:
b2008708:	3a207825 	bcc	b28267a4 <_end+0x809690>
b200870c:	00000020 	andeq	r0, r0, r0, lsr #32

b2008710 <.LC3>:
b2008710:	20207825 	eorcs	r7, r0, r5, lsr #16
b2008714:	00000000 	andeq	r0, r0, r0

b2008718 <.LC0>:
b2008718:	20656854 	rsbcs	r6, r5, r4, asr r8
b200871c:	61657261 	cmnvs	r5, r1, ror #4
b2008720:	666e6920 	strbtvs	r6, [lr], -r0, lsr #18
b2008724:	6f6e206f 	svcvs	0x006e206f
b2008728:	69206564 	stmdbvs	r0!, {r2, r5, r6, r8, sl, sp, lr}
b200872c:	6c612073 	stclvs	0, cr2, [r1], #-460	; 0xfffffe34
b2008730:	64616572 	strbtvs	r6, [r1], #-1394	; 0xfffffa8e
b2008734:	6e692079 	mcrvs	0, 3, r2, cr9, cr9, {3}
b2008738:	65726620 	ldrbvs	r6, [r2, #-1568]!	; 0xfffff9e0
b200873c:	696c2065 	stmdbvs	ip!, {r0, r2, r5, r6, sp}^
b2008740:	0d2e7473 	cfstrseq	mvf7, [lr, #-460]!	; 0xfffffe34
b2008744:	0000000a 	andeq	r0, r0, sl

b2008748 <.LC0>:
b2008748:	72617453 	rsbvc	r7, r1, #1392508928	; 0x53000000
b200874c:	676e6974 			; <UNDEFINED> instruction: 0x676e6974
b2008750:	65735520 	ldrbvs	r5, [r3, #-1312]!	; 0xfffffae0
b2008754:	61542072 	cmpvs	r4, r2, ror r0
b2008758:	30206b73 	eorcc	r6, r0, r3, ror fp
b200875c:	000a0d20 	andeq	r0, sl, r0, lsr #26

b2008760 <.LC1>:
b2008760:	3d646974 			; <UNDEFINED> instruction: 0x3d646974
b2008764:	232c6425 			; <UNDEFINED> instruction: 0x232c6425
b2008768:	0a0d6425 	beq	b2361804 <_end+0x3446f0>
b200876c:	00000000 	andeq	r0, r0, r0

b2008770 <.LC2>:
b2008770:	72617453 	rsbvc	r7, r1, #1392508928	; 0x53000000
b2008774:	676e6974 			; <UNDEFINED> instruction: 0x676e6974
b2008778:	65735520 	ldrbvs	r5, [r3, #-1312]!	; 0xfffffae0
b200877c:	61542072 	cmpvs	r4, r2, ror r0
b2008780:	31206b73 			; <UNDEFINED> instruction: 0x31206b73
b2008784:	000a0d20 	andeq	r0, sl, r0, lsr #26

b2008788 <.LC3>:
b2008788:	72617453 	rsbvc	r7, r1, #1392508928	; 0x53000000
b200878c:	676e6974 			; <UNDEFINED> instruction: 0x676e6974
b2008790:	65735520 	ldrbvs	r5, [r3, #-1312]!	; 0xfffffae0
b2008794:	61542072 	cmpvs	r4, r2, ror r0
b2008798:	32206b73 	eorcc	r6, r0, #117760	; 0x1cc00
b200879c:	000a0d20 	andeq	r0, sl, r0, lsr #26

b20087a0 <.LC4>:
b20087a0:	72617453 	rsbvc	r7, r1, #1392508928	; 0x53000000
b20087a4:	676e6974 			; <UNDEFINED> instruction: 0x676e6974
b20087a8:	65735520 	ldrbvs	r5, [r3, #-1312]!	; 0xfffffae0
b20087ac:	61542072 	cmpvs	r4, r2, ror r0
b20087b0:	33206b73 			; <UNDEFINED> instruction: 0x33206b73
b20087b4:	000a0d20 	andeq	r0, sl, r0, lsr #26

b20087b8 <.LC5>:
b20087b8:	72617453 	rsbvc	r7, r1, #1392508928	; 0x53000000
b20087bc:	676e6974 			; <UNDEFINED> instruction: 0x676e6974
b20087c0:	65735520 	ldrbvs	r5, [r3, #-1312]!	; 0xfffffae0
b20087c4:	61542072 	cmpvs	r4, r2, ror r0
b20087c8:	34206b73 	strtcc	r6, [r0], #-2931	; 0xfffff48d
b20087cc:	000a0d20 	andeq	r0, sl, r0, lsr #26

b20087d0 <.LC6>:
b20087d0:	2b2b2b2b 	blcs	b2ad3484 <_end+0xab6370>
b20087d4:	2b2b2b2b 	blcs	b2ad3488 <_end+0xab6374>
b20087d8:	2b2b2b2b 	blcs	b2ad348c <_end+0xab6378>
b20087dc:	2b2b2b2b 	blcs	b2ad3490 <_end+0xab637c>
b20087e0:	2b2b2b2b 	blcs	b2ad3494 <_end+0xab6380>
b20087e4:	2b2b2b2b 	blcs	b2ad3498 <_end+0xab6384>
b20087e8:	2b2b2b2b 	blcs	b2ad349c <_end+0xab6388>
b20087ec:	2b2b2b2b 	blcs	b2ad34a0 <_end+0xab638c>
b20087f0:	2b2b2b2b 	blcs	b2ad34a4 <_end+0xab6390>
b20087f4:	2b2b2b2b 	blcs	b2ad34a8 <_end+0xab6394>
b20087f8:	000a0d2b 	andeq	r0, sl, fp, lsr #26

b20087fc <.LC7>:
b20087fc:	20776f4e 	rsbscs	r6, r7, lr, asr #30
b2008800:	74736574 	ldrbtvc	r6, [r3], #-1396	; 0xfffffa8c
b2008804:	6c756d20 	ldclvs	13, cr6, [r5], #-128	; 0xffffff80
b2008808:	61746974 	cmnvs	r4, r4, ror r9
b200880c:	6e696b73 	vmovvs.8	d9[7], r6
b2008810:	0a0d2e67 	beq	b23541b4 <_end+0x3370a0>
b2008814:	00000000 	andeq	r0, r0, r0

b2008818 <.LC0>:
b2008818:	72617453 	rsbvc	r7, r1, #1392508928	; 0x53000000
b200881c:	676e6974 			; <UNDEFINED> instruction: 0x676e6974
b2008820:	79747420 	ldmdbvc	r4!, {r5, sl, ip, sp, lr}^
b2008824:	65745f30 	ldrbvs	r5, [r4, #-3888]!	; 0xfffff0d0
b2008828:	255f7473 	ldrbcs	r7, [pc, #-1139]	; b20083bd <.LC3+0x1>
b200882c:	0a0d2064 	beq	b23509c4 <_end+0x3338b0>
b2008830:	00000000 	andeq	r0, r0, r0

b2008834 <.LC1>:
b2008834:	7974742f 	ldmdbvc	r4!, {r0, r1, r2, r3, r5, sl, ip, sp, lr}^
b2008838:	00000030 	andeq	r0, r0, r0, lsr r0

b200883c <.LC2>:
b200883c:	6f727245 	svcvs	0x00727245
b2008840:	662c2072 			; <UNDEFINED> instruction: 0x662c2072
b2008844:	253d2064 	ldrcs	r2, [sp, #-100]!	; 0xffffff9c
b2008848:	682c2064 	stmdavs	ip!, {r2, r5, r6, sp}
b200884c:	0d746c61 	ldcleq	12, cr6, [r4, #-388]!	; 0xfffffe7c
b2008850:	0000000a 	andeq	r0, r0, sl

b2008854 <.LC3>:
b2008854:	63637553 	cmnvs	r3, #348127232	; 0x14c00000
b2008858:	66737365 	ldrbtvs	r7, [r3], -r5, ror #6
b200885c:	796c6c75 	stmdbvc	ip!, {r0, r2, r4, r5, r6, sl, fp, sp, lr}^
b2008860:	65706f20 	ldrbvs	r6, [r0, #-3872]!	; 0xfffff0e0
b2008864:	7474206e 	ldrbtvc	r2, [r4], #-110	; 0xffffff92
b2008868:	2c203079 	stccs	0, cr3, [r0], #-484	; 0xfffffe1c
b200886c:	3d206466 	cfstrscc	mvf6, [r0, #-408]!	; 0xfffffe68
b2008870:	0a0d6425 	beq	b236190c <_end+0x3447f8>
b2008874:	00000000 	andeq	r0, r0, r0

b2008878 <.LC4>:
b2008878:	74697257 	strbtvc	r7, [r9], #-599	; 0xfffffda9
b200887c:	74742065 	ldrbtvc	r2, [r4], #-101	; 0xffffff9b
b2008880:	74203079 	strtvc	r3, [r0], #-121	; 0xffffff87
b2008884:	0d747365 	ldcleq	3, cr7, [r4, #-404]!	; 0xfffffe6c
b2008888:	0000000a 	andeq	r0, r0, sl

b200888c <.LC5>:
b200888c:	2b2b2b2b 	blcs	b2ad3540 <_end+0xab642c>
b2008890:	2b2b2b2b 	blcs	b2ad3544 <_end+0xab6430>
b2008894:	2b2b2b2b 	blcs	b2ad3548 <_end+0xab6434>
b2008898:	2b2b2b2b 	blcs	b2ad354c <_end+0xab6438>
b200889c:	2b2b2b2b 	blcs	b2ad3550 <_end+0xab643c>
b20088a0:	2b2b2b2b 	blcs	b2ad3554 <_end+0xab6440>
b20088a4:	2b2b2b2b 	blcs	b2ad3558 <_end+0xab6444>
b20088a8:	2b2b2b2b 	blcs	b2ad355c <_end+0xab6448>
b20088ac:	2b2b2b2b 	blcs	b2ad3560 <_end+0xab644c>
b20088b0:	2b2b2b2b 	blcs	b2ad3564 <_end+0xab6450>
b20088b4:	000a0d2b 	andeq	r0, sl, fp, lsr #26

b20088b8 <.LC6>:
b20088b8:	20776f4e 	rsbscs	r6, r7, lr, asr #30
b20088bc:	74736574 	ldrbtvc	r6, [r3], #-1396	; 0xfffffa8c
b20088c0:	65706f20 	ldrbvs	r6, [r0, #-3872]!	; 0xfffff0e0
b20088c4:	7474206e 	ldrbtvc	r2, [r4], #-110	; 0xffffff92
b20088c8:	0d2e3079 	stceq	0, cr3, [lr, #-484]!	; 0xfffffe1c
b20088cc:	0000000a 	andeq	r0, r0, sl

b20088d0 <.LC0>:
b20088d0:	3d646974 			; <UNDEFINED> instruction: 0x3d646974
b20088d4:	702d6425 	eorvc	r6, sp, r5, lsr #8
b20088d8:	3d6f6972 			; <UNDEFINED> instruction: 0x3d6f6972
b20088dc:	232c6425 			; <UNDEFINED> instruction: 0x232c6425
b20088e0:	0a0d6425 	beq	b236197c <_end+0x344868>
b20088e4:	00000000 	andeq	r0, r0, r0

b20088e8 <.LC1>:
b20088e8:	2b2b2b2b 	blcs	b2ad359c <_end+0xab6488>
b20088ec:	2b2b2b2b 	blcs	b2ad35a0 <_end+0xab648c>
b20088f0:	2b2b2b2b 	blcs	b2ad35a4 <_end+0xab6490>
b20088f4:	2b2b2b2b 	blcs	b2ad35a8 <_end+0xab6494>
b20088f8:	2b2b2b2b 	blcs	b2ad35ac <_end+0xab6498>
b20088fc:	2b2b2b2b 	blcs	b2ad35b0 <_end+0xab649c>
b2008900:	2b2b2b2b 	blcs	b2ad35b4 <_end+0xab64a0>
b2008904:	2b2b2b2b 	blcs	b2ad35b8 <_end+0xab64a4>
b2008908:	2b2b2b2b 	blcs	b2ad35bc <_end+0xab64a8>
b200890c:	2b2b2b2b 	blcs	b2ad35c0 <_end+0xab64ac>
b2008910:	000a0d2b 	andeq	r0, sl, fp, lsr #26

b2008914 <.LC2>:
b2008914:	20776f4e 	rsbscs	r6, r7, lr, asr #30
b2008918:	74736574 	ldrbtvc	r6, [r3], #-1396	; 0xfffffa8c
b200891c:	69727020 	ldmdbvs	r2!, {r5, ip, sp, lr}^
b2008920:	7469726f 	strbtvc	r7, [r9], #-623	; 0xfffffd91
b2008924:	61622079 	smcvs	8713	; 0x2209
b2008928:	6d206573 	cfstr32vs	mvfx6, [r0, #-460]!	; 0xfffffe34
b200892c:	69746c75 	ldmdbvs	r4!, {r0, r2, r4, r5, r6, sl, fp, sp, lr}^
b2008930:	6b736174 	blvs	b3ce0f08 <_end+0x1cc3df4>
b2008934:	2e676e69 	cdpcs	14, 6, cr6, cr7, cr9, {3}
b2008938:	00000a0d 	andeq	r0, r0, sp, lsl #20

b200893c <.LC0>:
b200893c:	6e726157 	mrcvs	1, 3, r6, cr2, cr7, {2}
b2008940:	20676e69 	rsbcs	r6, r7, r9, ror #28
b2008944:	6143203a 	cmpvs	r3, sl, lsr r0
b2008948:	2074276e 	rsbscs	r2, r4, lr, ror #14
b200894c:	20746f6e 	rsbscs	r6, r4, lr, ror #30
b2008950:	20747570 	rsbscs	r7, r4, r0, ror r5
b2008954:	61746164 	cmnvs	r4, r4, ror #2
b2008958:	206f7420 	rsbcs	r7, pc, r0, lsr #8
b200895c:	75657571 	strbvc	r7, [r5, #-1393]!	; 0xfffffa8f
b2008960:	51202e65 			; <UNDEFINED> instruction: 0x51202e65
b2008964:	65756575 	ldrbvs	r6, [r5, #-1397]!	; 0xfffffa8b
b2008968:	20736920 	rsbscs	r6, r3, r0, lsr #18
b200896c:	6c6c7546 	cfstr64vs	mvdx7, [ip], #-280	; 0xfffffee8
b2008970:	6552202e 	ldrbvs	r2, [r2, #-46]	; 0xffffffd2
b2008974:	6e727574 	mrcvs	5, 3, r7, cr2, cr4, {3}
b2008978:	2e312d20 	cdpcs	13, 3, cr2, cr1, cr0, {1}
b200897c:	00000a0d 	andeq	r0, r0, sp, lsl #20

b2008980 <.LC1>:
b2008980:	6e726157 	mrcvs	1, 3, r6, cr2, cr7, {2}
b2008984:	20676e69 	rsbcs	r6, r7, r9, ror #28
b2008988:	6143203a 	cmpvs	r3, sl, lsr r0
b200898c:	2074276e 	rsbscs	r2, r4, lr, ror #14
b2008990:	20746f6e 	rsbscs	r6, r4, lr, ror #30
b2008994:	20746567 	rsbscs	r6, r4, r7, ror #10
b2008998:	61746164 	cmnvs	r4, r4, ror #2
b200899c:	6f726620 	svcvs	0x00726620
b20089a0:	7571206d 	ldrbvc	r2, [r1, #-109]!	; 0xffffff93
b20089a4:	2e657565 	cdpcs	5, 6, cr7, cr5, cr5, {3}
b20089a8:	65755120 	ldrbvs	r5, [r5, #-288]!	; 0xfffffee0
b20089ac:	69206575 	stmdbvs	r0!, {r0, r2, r4, r5, r6, r8, sl, sp, lr}
b20089b0:	6d452073 	stclvs	0, cr2, [r5, #-460]	; 0xfffffe34
b20089b4:	2e797470 	mrccs	4, 3, r7, cr9, cr0, {3}
b20089b8:	74655220 	strbtvc	r5, [r5], #-544	; 0xfffffde0
b20089bc:	206e7275 	rsbcs	r7, lr, r5, ror r2
b20089c0:	0d2e312d 	stfeqs	f3, [lr, #-180]!	; 0xffffff4c
b20089c4:	0000000a 	andeq	r0, r0, sl

b20089c8 <.LC2>:
b20089c8:	2b2b2b0a 	blcs	b2ad35f8 <_end+0xab64e4>
b20089cc:	2b2b2b2b 	blcs	b2ad3680 <_end+0xab656c>
b20089d0:	2b2b2b2b 	blcs	b2ad3684 <_end+0xab6570>
b20089d4:	2b2b2b2b 	blcs	b2ad3688 <_end+0xab6574>
b20089d8:	2b2b2b2b 	blcs	b2ad368c <_end+0xab6578>
b20089dc:	2b2b2b2b 	blcs	b2ad3690 <_end+0xab657c>
b20089e0:	2b2b2b2b 	blcs	b2ad3694 <_end+0xab6580>
b20089e4:	2b2b2b2b 	blcs	b2ad3698 <_end+0xab6584>
b20089e8:	0d2b2b2b 	fstmdbxeq	fp!, {d2-d22}	;@ Deprecated
b20089ec:	0000000a 	andeq	r0, r0, sl

b20089f0 <.LC3>:
b20089f0:	6e697250 	mcrvs	2, 3, r7, cr9, cr0, {2}
b20089f4:	61642074 	smcvs	16900	; 0x4204
b20089f8:	66206174 			; <UNDEFINED> instruction: 0x66206174
b20089fc:	206d6f72 	rsbcs	r6, sp, r2, ror pc
b2008a00:	64616568 	strbtvs	r6, [r1], #-1384	; 0xfffffa98
b2008a04:	000a0d2e 	andeq	r0, sl, lr, lsr #26

b2008a08 <.LC4>:
b2008a08:	64206f4e 	strtvs	r6, [r0], #-3918	; 0xfffff0b2
b2008a0c:	20617461 	rsbcs	r7, r1, r1, ror #8
b2008a10:	71206e69 			; <UNDEFINED> instruction: 0x71206e69
b2008a14:	65756575 	ldrbvs	r6, [r5, #-1397]!	; 0xfffffa8b
b2008a18:	000a0d2e 	andeq	r0, sl, lr, lsr #26

b2008a1c <.LC5>:
b2008a1c:	75657571 	strbvc	r7, [r5, #-1393]!	; 0xfffffa8f
b2008a20:	64255b65 	strtvs	r5, [r5], #-2917	; 0xfffff49b
b2008a24:	203a205d 	eorscs	r2, sl, sp, asr r0
b2008a28:	253d6469 	ldrcs	r6, [sp, #-1129]!	; 0xfffffb97
b2008a2c:	732c2064 			; <UNDEFINED> instruction: 0x732c2064
b2008a30:	75746174 	ldrbvc	r6, [r4, #-372]!	; 0xfffffe8c
b2008a34:	64253d73 	strtvs	r3, [r5], #-3443	; 0xfffff28d
b2008a38:	00000a0d 	andeq	r0, r0, sp, lsl #20

b2008a3c <.LC6>:
b2008a3c:	75657571 	strbvc	r7, [r5, #-1393]!	; 0xfffffa8f
b2008a40:	64255b65 	strtvs	r5, [r5], #-2917	; 0xfffff49b
b2008a44:	7369205d 	cmnvc	r9, #93	; 0x5d
b2008a48:	65687420 	strbvs	r7, [r8, #-1056]!	; 0xfffffbe0
b2008a4c:	63616220 	cmnvs	r1, #32, 4
b2008a50:	692c206b 	stmdbvs	ip!, {r0, r1, r3, r5, r6, sp}
b2008a54:	64253d64 	strtvs	r3, [r5], #-3428	; 0xfffff29c
b2008a58:	74732c20 	ldrbtvc	r2, [r3], #-3104	; 0xfffff3e0
b2008a5c:	73757461 	cmnvc	r5, #1627389952	; 0x61000000
b2008a60:	0d64253d 	cfstr64eq	mvdx2, [r4, #-244]!	; 0xffffff0c
b2008a64:	0000000a 	andeq	r0, r0, sl

b2008a68 <.LC7>:
b2008a68:	2b2b2b2b 	blcs	b2ad371c <_end+0xab6608>
b2008a6c:	2b2b2b2b 	blcs	b2ad3720 <_end+0xab660c>
b2008a70:	2b2b2b2b 	blcs	b2ad3724 <_end+0xab6610>
b2008a74:	2b2b2b2b 	blcs	b2ad3728 <_end+0xab6614>
b2008a78:	2b2b2b2b 	blcs	b2ad372c <_end+0xab6618>
b2008a7c:	2b2b2b2b 	blcs	b2ad3730 <_end+0xab661c>
b2008a80:	2b2b2b2b 	blcs	b2ad3734 <_end+0xab6620>
b2008a84:	2b2b2b2b 	blcs	b2ad3738 <_end+0xab6624>
b2008a88:	0a0d2b2b 	beq	b235373c <_end+0x336628>
b2008a8c:	00000a0d 	andeq	r0, r0, sp, lsl #20

b2008a90 <.LC0>:
b2008a90:	65570a0d 	ldrbvs	r0, [r7, #-2573]	; 0xfffff5f3
b2008a94:	6d6f636c 	stclvs	3, cr6, [pc, #-432]!	; b20088ec <.LC1+0x4>
b2008a98:	6f742065 	svcvs	0x00742065
b2008a9c:	61654220 	cmnvs	r5, r0, lsr #4
b2008aa0:	62656c67 	rsbvs	r6, r5, #26368	; 0x6700
b2008aa4:	20656e6f 	rsbcs	r6, r5, pc, ror #28
b2008aa8:	63616c62 	cmnvs	r1, #25088	; 0x6200
b2008aac:	534f206b 	movtpl	r2, #61547	; 0xf06b
b2008ab0:	000a0d21 	andeq	r0, sl, r1, lsr #26

b2008ab4 <.LC1>:
b2008ab4:	68540a0d 	ldmdavs	r4, {r0, r2, r3, r9, fp}^
b2008ab8:	6f632065 	svcvs	0x00632065
b2008abc:	6e616d6d 	cdpvs	13, 6, cr6, cr1, cr13, {3}
b2008ac0:	696c2064 	stmdbvs	ip!, {r2, r5, r6, sp}^
b2008ac4:	6920656e 	stmdbvs	r0!, {r1, r2, r3, r5, r6, r8, sl, sp, lr}
b2008ac8:	68742073 	ldmdavs	r4!, {r0, r1, r4, r5, r6, sp}^
b2008acc:	69662065 	stmdbvs	r6!, {r0, r2, r5, r6, sp}^
b2008ad0:	20747372 	rsbscs	r7, r4, r2, ror r3
b2008ad4:	636f7270 	cmnvs	pc, #112, 4
b2008ad8:	0d737365 	ldcleq	3, cr7, [r3, #-404]!	; 0xfffffe6c
b2008adc:	0000000a 	andeq	r0, r0, sl

b2008ae0 <.LC2>:
b2008ae0:	68540a0d 	ldmdavs	r4, {r0, r2, r3, r9, fp}^
b2008ae4:	61742065 	cmnvs	r4, r5, rrx
b2008ae8:	69206b73 	stmdbvs	r0!, {r0, r1, r4, r5, r6, r8, r9, fp, sp, lr}
b2008aec:	253a2064 	ldrcs	r2, [sl, #-100]!	; 0xffffff9c
b2008af0:	000a0d64 	andeq	r0, sl, r4, ror #26

b2008af4 <.LC3>:
b2008af4:	20656854 	rsbcs	r6, r5, r4, asr r8
b2008af8:	6b736174 	blvs	b3ce10d0 <_end+0x1cc3fbc>
b2008afc:	69727020 	ldmdbvs	r2!, {r5, ip, sp, lr}^
b2008b00:	7469726f 	strbtvc	r7, [r9], #-623	; 0xfffffd91
b2008b04:	253a2079 	ldrcs	r2, [sl, #-121]!	; 0xffffff87
b2008b08:	000a0d64 	andeq	r0, sl, r4, ror #26

b2008b0c <.LC4>:
b2008b0c:	72727543 	rsbsvc	r7, r2, #281018368	; 0x10c00000
b2008b10:	20746e65 	rsbscs	r6, r4, r5, ror #28
b2008b14:	20726964 	rsbscs	r6, r2, r4, ror #18
b2008b18:	0000003a 	andeq	r0, r0, sl, lsr r0

b2008b1c <.LC5>:
b2008b1c:	00000a0d 	andeq	r0, r0, sp, lsl #20

b2008b20 <.LC6>:
b2008b20:	637c0a0d 	cmnvs	ip, #53248	; 0xd000
b2008b24:	003e646d 	eorseq	r6, lr, sp, ror #8
b2008b28:	00000000 	andeq	r0, r0, r0

b2008b2c <.LC7>:
b2008b2c:	0000003e 	andeq	r0, r0, lr, lsr r0

b2008b30 <.LC8>:
b2008b30:	00000020 	andeq	r0, r0, r0, lsr #32

b2008b34 <.LC9>:
b2008b34:	00006325 	andeq	r6, r0, r5, lsr #6

b2008b38 <.LC10>:
b2008b38:	74736574 	ldrbtvc	r6, [r3], #-1396	; 0xfffffa8c
b2008b3c:	00000000 	andeq	r0, r0, r0

b2008b40 <.LC11>:
b2008b40:	00000a0d 	andeq	r0, r0, sp, lsl #20

b2008b44 <.LC12>:
b2008b44:	61656c50 	cmnvs	r5, r0, asr ip
b2008b48:	6b206573 	blvs	b282211c <_end+0x805008>
b2008b4c:	0a0d7965 	beq	b23670e8 <_end+0x349fd4>
b2008b50:	00000000 	andeq	r0, r0, r0

b2008b54 <.LC13>:
b2008b54:	27312709 	ldrcs	r2, [r1, -r9, lsl #14]!
b2008b58:	726f6620 	rsbvc	r6, pc, #32, 12	; 0x2000000
b2008b5c:	726f6620 	rsbvc	r6, pc, #32, 12	; 0x2000000
b2008b60:	7566206b 	strbvc	r2, [r6, #-107]!	; 0xffffff95
b2008b64:	6974636e 	ldmdbvs	r4!, {r1, r2, r3, r5, r6, r8, r9, sp, lr}^
b2008b68:	74206e6f 	strtvc	r6, [r0], #-3695	; 0xfffff191
b2008b6c:	2e747365 	cdpcs	3, 7, cr7, cr4, cr5, {3}
b2008b70:	00000a0d 	andeq	r0, r0, sp, lsl #20

b2008b74 <.LC14>:
b2008b74:	27322709 	ldrcs	r2, [r2, -r9, lsl #14]!
b2008b78:	726f6620 	rsbvc	r6, pc, #32, 12	; 0x2000000
b2008b7c:	6c756d20 	ldclvs	13, cr6, [r5], #-128	; 0xffffff80
b2008b80:	61746974 	cmnvs	r4, r4, ror r9
b2008b84:	6e696b73 	vmovvs.8	d9[7], r6
b2008b88:	65742067 	ldrbvs	r2, [r4, #-103]!	; 0xffffff99
b2008b8c:	0a0d7473 	beq	b2365d60 <_end+0x348c4c>
b2008b90:	00000000 	andeq	r0, r0, r0

b2008b94 <.LC15>:
b2008b94:	27332709 	ldrcs	r2, [r3, -r9, lsl #14]!
b2008b98:	726f6620 	rsbvc	r6, pc, #32, 12	; 0x2000000
b2008b9c:	69727020 	ldmdbvs	r2!, {r5, ip, sp, lr}^
b2008ba0:	7469726f 	strbtvc	r7, [r9], #-623	; 0xfffffd91
b2008ba4:	61622d79 	smcvs	8921	; 0x22d9
b2008ba8:	20646573 	rsbcs	r6, r4, r3, ror r5
b2008bac:	746c756d 	strbtvc	r7, [ip], #-1389	; 0xfffffa93
b2008bb0:	73617469 	cmnvc	r1, #1761607680	; 0x69000000
b2008bb4:	676e696b 	strbvs	r6, [lr, -fp, ror #18]!
b2008bb8:	73657420 	cmnvc	r5, #32, 8	; 0x20000000
b2008bbc:	0a0d2e74 	beq	b2354594 <_end+0x337480>
b2008bc0:	00000000 	andeq	r0, r0, r0

b2008bc4 <.LC16>:
b2008bc4:	27342709 	ldrcs	r2, [r4, -r9, lsl #14]!
b2008bc8:	726f6620 	rsbvc	r6, pc, #32, 12	; 0x2000000
b2008bcc:	79747420 	ldmdbvc	r4!, {r5, sl, ip, sp, lr}^
b2008bd0:	706f2030 	rsbvc	r2, pc, r0, lsr r0	; <UNPREDICTABLE>
b2008bd4:	74206e65 	strtvc	r6, [r0], #-3685	; 0xfffff19b
b2008bd8:	2e747365 	cdpcs	3, 7, cr7, cr4, cr5, {3}
b2008bdc:	00000a0d 	andeq	r0, r0, sp, lsl #20

b2008be0 <.LC17>:
b2008be0:	2720724f 	strcs	r7, [r0, -pc, asr #4]!
b2008be4:	62202730 	eorvs	r2, r0, #48, 14	; 0xc00000
b2008be8:	6b616572 	blvs	b38621b8 <_end+0x18450a4>
b2008bec:	000a0d2e 	andeq	r0, sl, lr, lsr #26

b2008bf0 <.LC18>:
b2008bf0:	6b636142 	blvs	b38e1100 <_end+0x18c3fec>
b2008bf4:	206f7420 	rsbcs	r7, pc, r0, lsr #8
b2008bf8:	6c656853 	stclvs	8, cr6, [r5], #-332	; 0xfffffeb4
b2008bfc:	0a0d2e6c 	beq	b23545b4 <_end+0x3374a0>
b2008c00:	00000000 	andeq	r0, r0, r0

b2008c04 <.LC19>:
b2008c04:	706c6568 	rsbvc	r6, ip, r8, ror #10
b2008c08:	00000000 	andeq	r0, r0, r0

b2008c0c <.LC20>:
b2008c0c:	706c6568 	rsbvc	r6, ip, r8, ror #10
b2008c10:	000a0d3a 	andeq	r0, sl, sl, lsr sp

b2008c14 <.LC21>:
b2008c14:	69617641 	stmdbvs	r1!, {r0, r6, r9, sl, ip, sp, lr}^
b2008c18:	6c62616c 	stfvse	f6, [r2], #-432	; 0xfffffe50
b2008c1c:	6f632065 	svcvs	0x00632065
b2008c20:	6e616d6d 	cdpvs	13, 6, cr6, cr1, cr13, {3}
b2008c24:	743a2064 	ldrtvc	r2, [sl], #-100	; 0xffffff9c
b2008c28:	20747365 	rsbscs	r7, r4, r5, ror #6
b2008c2c:	666e692c 	strbtvs	r6, [lr], -ip, lsr #18
b2008c30:	682c206f 	stmdavs	ip!, {r0, r1, r2, r3, r5, r6, sp}
b2008c34:	0d706c65 	ldcleq	12, cr6, [r0, #-404]!	; 0xfffffe6c
b2008c38:	0000000a 	andeq	r0, r0, sl

b2008c3c <.LC22>:
b2008c3c:	6f666e69 	svcvs	0x00666e69
b2008c40:	00000000 	andeq	r0, r0, r0

b2008c44 <.LC23>:
b2008c44:	69732041 	ldmdbvs	r3!, {r0, r6, sp}^
b2008c48:	656c706d 	strbvs	r7, [ip, #-109]!	; 0xffffff93
b2008c4c:	20736f20 	rsbscs	r6, r3, r0, lsr #30
b2008c50:	6e6e7572 	mcrvs	5, 3, r7, cr14, cr2, {3}
b2008c54:	20676e69 	rsbcs	r6, r7, r9, ror #28
b2008c58:	42206e6f 	eormi	r6, r0, #1776	; 0x6f0
b2008c5c:	6c676165 	stfvse	f6, [r7], #-404	; 0xfffffe6c
b2008c60:	6e6f6265 	cdpvs	2, 6, cr6, cr15, cr5, {3}
b2008c64:	6c622065 	stclvs	0, cr2, [r2], #-404	; 0xfffffe6c
b2008c68:	0d6b6361 	stcleq	3, cr6, [fp, #-388]!	; 0xfffffe7c
b2008c6c:	000a0d0a 	andeq	r0, sl, sl, lsl #26

b2008c70 <.LC24>:
b2008c70:	74616546 	strbtvc	r6, [r1], #-1350	; 0xfffffaba
b2008c74:	3a657275 	bcc	b3965650 <_end+0x194853c>
b2008c78:	00000a0d 	andeq	r0, r0, sp, lsl #20

b2008c7c <.LC25>:
b2008c7c:	69542020 	ldmdbvs	r4, {r5, sp}^
b2008c80:	7320656d 			; <UNDEFINED> instruction: 0x7320656d
b2008c84:	6563696c 	strbvs	r6, [r3, #-2412]!	; 0xfffff694
b2008c88:	73616220 	cmnvc	r1, #32, 4
b2008c8c:	72206465 	eorvc	r6, r0, #1694498816	; 0x65000000
b2008c90:	646e756f 	strbtvs	r7, [lr], #-1391	; 0xfffffa91
b2008c94:	626f722d 	rsbvs	r7, pc, #-805306366	; 0xd0000002
b2008c98:	6d206e69 	stcvs	14, cr6, [r0, #-420]!	; 0xfffffe5c
b2008c9c:	69746c75 	ldmdbvs	r4!, {r0, r2, r4, r5, r6, sl, fp, sp, lr}^
b2008ca0:	6b736174 	blvs	b3ce1278 <_end+0x1cc4164>
b2008ca4:	2e676e69 	cdpcs	14, 6, cr6, cr7, cr9, {3}
b2008ca8:	00000a0d 	andeq	r0, r0, sp, lsl #20

b2008cac <.LC26>:
b2008cac:	69532020 	ldmdbvs	r3, {r5, sp}^
b2008cb0:	656c706d 	strbvs	r7, [ip, #-109]!	; 0xffffff93
b2008cb4:	6d656d20 	stclvs	13, cr6, [r5, #-128]!	; 0xffffff80
b2008cb8:	2079726f 	rsbscs	r7, r9, pc, ror #4
b2008cbc:	616e616d 	cmnvs	lr, sp, ror #2
b2008cc0:	656d6567 	strbvs	r6, [sp, #-1383]!	; 0xfffffa99
b2008cc4:	0d2e746e 	cfstrseq	mvf7, [lr, #-440]!	; 0xfffffe48
b2008cc8:	0000000a 	andeq	r0, r0, sl

b2008ccc <.LC27>:
b2008ccc:	69532020 	ldmdbvs	r3, {r5, sp}^
b2008cd0:	656c706d 	strbvs	r7, [ip, #-109]!	; 0xffffff93
b2008cd4:	6d6f6320 	stclvs	3, cr6, [pc, #-128]!	; b2008c5c <.LC23+0x18>
b2008cd8:	646e616d 	strbtvs	r6, [lr], #-365	; 0xfffffe93
b2008cdc:	6e696c20 	cdpvs	12, 6, cr6, cr9, cr0, {1}
b2008ce0:	0a0d2e65 	beq	b235467c <_end+0x337568>
b2008ce4:	00000000 	andeq	r0, r0, r0

b2008ce8 <.LC28>:
b2008ce8:	0000736c 	andeq	r7, r0, ip, ror #6

b2008cec <.LC29>:
b2008cec:	00006463 	andeq	r6, r0, r3, ror #8

b2008cf0 <.LC30>:
b2008cf0:	64206f4e 	strtvs	r6, [r0], #-3918	; 0xfffff0b2
b2008cf4:	69207269 	stmdbvs	r0!, {r0, r3, r5, r6, r9, ip, sp, lr}
b2008cf8:	7475706e 	ldrbtvc	r7, [r5], #-110	; 0xffffff92
b2008cfc:	00000a0d 	andeq	r0, r0, sp, lsl #20

b2008d00 <.LC31>:
b2008d00:	69440a0d 	stmdbvs	r4, {r0, r2, r3, r9, fp}^
b2008d04:	6f6e2072 	svcvs	0x006e2072
b2008d08:	6f662074 	svcvs	0x00662074
b2008d0c:	00646e75 	rsbeq	r6, r4, r5, ror lr

b2008d10 <.LC32>:
b2008d10:	00647770 	rsbeq	r7, r4, r0, ror r7
b2008d14:	00000000 	andeq	r0, r0, r0

b2008d18 <.LC0>:
b2008d18:	33323130 	teqcc	r2, #48, 2
b2008d1c:	37363534 			; <UNDEFINED> instruction: 0x37363534
b2008d20:	62613938 	rsbvs	r3, r1, #56, 18	; 0xe0000
b2008d24:	66656463 	strbtvs	r6, [r5], -r3, ror #8
b2008d28:	00000000 	andeq	r0, r0, r0

b2008d2c <.LC0>:
b2008d2c:	6c6c6548 	cfstr64vs	mvdx6, [ip], #-288	; 0xfffffee0
b2008d30:	5420216f 	strtpl	r2, [r0], #-367	; 0xfffffe91
b2008d34:	20736968 	rsbscs	r6, r3, r8, ror #18
b2008d38:	6d207369 	stcvs	3, cr7, [r0, #-420]!	; 0xfffffe5c
b2008d3c:	69662079 	stmdbvs	r6!, {r0, r3, r4, r5, r6, sp}^
b2008d40:	20747372 	rsbscs	r7, r4, r2, ror r3
b2008d44:	74737973 	ldrbtvc	r7, [r3], #-2419	; 0xfffff68d
b2008d48:	63206d65 			; <UNDEFINED> instruction: 0x63206d65
b2008d4c:	2c6c6c61 	stclcs	12, cr6, [ip], #-388	; 0xfffffe7c
b2008d50:	75706e49 	ldrbvc	r6, [r0, #-3657]!	; 0xfffff1b7
b2008d54:	61762074 	cmnvs	r6, r4, ror r0
b2008d58:	2065756c 	rsbcs	r7, r5, ip, ror #10
b2008d5c:	0d64253d 	cfstr64eq	mvdx2, [r4, #-244]!	; 0xffffff0c
b2008d60:	0000000a 	andeq	r0, r0, sl

b2008d64 <.LC1>:
b2008d64:	6b736174 	blvs	b3ce133c <_end+0x1cc4228>
b2008d68:	3d646920 			; <UNDEFINED> instruction: 0x3d646920
b2008d6c:	65206425 	strvs	r6, [r0, #-1061]!	; 0xfffffbdb
b2008d70:	0d746978 			; <UNDEFINED> instruction: 0x0d746978
b2008d74:	0000000a 	andeq	r0, r0, sl

b2008d78 <.LC2>:
b2008d78:	206b6c62 	rsbcs	r6, fp, r2, ror #24
b2008d7c:	72646461 	rsbvc	r6, r4, #1627389952	; 0x61000000
b2008d80:	70253d20 	eorvc	r3, r5, r0, lsr #26
b2008d84:	6f632c20 	svcvs	0x00632c20
b2008d88:	6e65746e 	cdpvs	4, 6, cr7, cr5, cr14, {3}
b2008d8c:	253d2074 	ldrcs	r2, [sp, #-116]!	; 0xffffff8c
b2008d90:	000a0d78 	andeq	r0, sl, r8, ror sp

b2008d94 <.LC3>:
b2008d94:	6f727245 	svcvs	0x00727245
b2008d98:	433a2072 	teqmi	sl, #114	; 0x72
b2008d9c:	74276e61 	strtvc	r6, [r7], #-3681	; 0xfffff19f
b2008da0:	65706f20 	ldrbvs	r6, [r0, #-3872]!	; 0xfffff0e0
b2008da4:	6966206e 	stmdbvs	r6!, {r1, r2, r3, r5, r6, sp}^
b2008da8:	0d2e656c 	cfstr32eq	mvfx6, [lr, #-432]!	; 0xfffffe50
b2008dac:	0000000a 	andeq	r0, r0, sl

b2008db0 <.LC4>:
b2008db0:	00003b3b 	andeq	r3, r0, fp, lsr fp

b2008db4 <.LC5>:
b2008db4:	20667542 	rsbcs	r7, r6, r2, asr #10
b2008db8:	20746f6e 	rsbscs	r6, r4, lr, ror #30
b2008dbc:	756f6e65 	strbvc	r6, [pc, #-3685]!	; b2007f5f <.divsi3_skip_div0_test+0x9b>
b2008dc0:	0a0d6867 	beq	b2362f64 <_end+0x345e50>
b2008dc4:	00000000 	andeq	r0, r0, r0

b2008dc8 <.LC0>:
b2008dc8:	6e6f632f 	cdpvs	3, 6, cr6, cr15, cr15, {1}
b2008dcc:	656c6f73 	strbvs	r6, [ip, #-3955]!	; 0xfffff08d
b2008dd0:	006e695f 	rsbeq	r6, lr, pc, asr r9
b2008dd4:	00000000 	andeq	r0, r0, r0

b2008dd8 <.LC1>:
b2008dd8:	6c696146 	stfvse	f6, [r9], #-280	; 0xfffffee8
b2008ddc:	74206465 	strtvc	r6, [r0], #-1125	; 0xfffffb9b
b2008de0:	706f206f 	rsbvc	r2, pc, pc, rrx
b2008de4:	27206e65 	strcs	r6, [r0, -r5, ror #28]!
b2008de8:	736e6f63 	cmnvc	lr, #396	; 0x18c
b2008dec:	5f656c6f 	svcpl	0x00656c6f
b2008df0:	0d276e69 	stceq	14, cr6, [r7, #-420]!	; 0xfffffe5c
b2008df4:	0000000a 	andeq	r0, r0, sl

b2008df8 <.LC2>:
b2008df8:	6e6f632f 	cdpvs	3, 6, cr6, cr15, cr15, {1}
b2008dfc:	656c6f73 	strbvs	r6, [ip, #-3955]!	; 0xfffff08d
b2008e00:	74756f5f 	ldrbtvc	r6, [r5], #-3935	; 0xfffff0a1
b2008e04:	00000000 	andeq	r0, r0, r0

b2008e08 <.LC3>:
b2008e08:	6c696146 	stfvse	f6, [r9], #-280	; 0xfffffee8
b2008e0c:	74206465 	strtvc	r6, [r0], #-1125	; 0xfffffb9b
b2008e10:	706f206f 	rsbvc	r2, pc, pc, rrx
b2008e14:	27206e65 	strcs	r6, [r0, -r5, ror #28]!
b2008e18:	736e6f63 	cmnvc	lr, #396	; 0x18c
b2008e1c:	5f656c6f 	svcpl	0x00656c6f
b2008e20:	2774756f 	ldrbcs	r7, [r4, -pc, ror #10]!
b2008e24:	00000a0d 	andeq	r0, r0, sp, lsl #20

b2008e28 <.LC4>:
b2008e28:	6b736154 	blvs	b3ce1380 <_end+0x1cc426c>
b2008e2c:	65757120 	ldrbvs	r7, [r5, #-288]!	; 0xfffffee0
b2008e30:	69206575 	stmdbvs	r0!, {r0, r2, r4, r5, r6, r8, sl, sp, lr}
b2008e34:	6d652073 	stclvs	0, cr2, [r5, #-460]!	; 0xfffffe34
b2008e38:	0d797470 	cfldrdeq	mvd7, [r9, #-448]!	; 0xfffffe40
b2008e3c:	0000000a 	andeq	r0, r0, sl

b2008e40 <.LC5>:
b2008e40:	796c6e4f 	stmdbvc	ip!, {r0, r1, r2, r3, r6, r9, sl, fp, sp, lr}^
b2008e44:	73746920 	cmnvc	r4, #32, 18	; 0x80000
b2008e48:	0d666c65 	stcleq	12, cr6, [r6, #-404]!	; 0xfffffe6c
b2008e4c:	0000000a 	andeq	r0, r0, sl

b2008e50 <.LC6>:
b2008e50:	6b736174 	blvs	b3ce1428 <_end+0x1cc4314>
b2008e54:	20646920 	rsbcs	r6, r4, r0, lsr #18
b2008e58:	6425203d 	strtvs	r2, [r5], #-61	; 0xffffffc3
b2008e5c:	00000a0d 	andeq	r0, r0, sp, lsl #20

b2008e60 <.LC7>:
b2008e60:	6b736174 	blvs	b3ce1438 <_end+0x1cc4324>
b2008e64:	20646920 	rsbcs	r6, r4, r0, lsr #18
b2008e68:	6425203d 	strtvs	r2, [r5], #-61	; 0xffffffc3
b2008e6c:	0a0d0a0d 	beq	b234b6a8 <_end+0x32e594>
b2008e70:	00000000 	andeq	r0, r0, r0

b2008e74 <.LC8>:
b2008e74:	6b736174 	blvs	b3ce144c <_end+0x1cc4338>
b2008e78:	6165725f 	cmnvs	r5, pc, asr r2
b2008e7c:	6c5f7964 	mrrcvs	9, 6, r7, pc, cr4	; <UNPREDICTABLE>
b2008e80:	5b747369 	blpl	b3d25c2c <_end+0x1d08b18>
b2008e84:	6f697270 	svcvs	0x00697270
b2008e88:	65682e5d 	strbvs	r2, [r8, #-3677]!	; 0xfffff1a3
b2008e8c:	61206461 			; <UNDEFINED> instruction: 0x61206461
b2008e90:	20726464 	rsbscs	r6, r2, r4, ror #8
b2008e94:	0d70253d 	cfldr64eq	mvdx2, [r0, #-244]!	; 0xffffff0c
b2008e98:	0000000a 	andeq	r0, r0, sl

b2008e9c <.LC9>:
b2008e9c:	6b736174 	blvs	b3ce1474 <_end+0x1cc4360>
b2008ea0:	64646120 	strbtvs	r6, [r4], #-288	; 0xfffffee0
b2008ea4:	203d2072 	eorscs	r2, sp, r2, ror r0
b2008ea8:	0a0d7025 	beq	b2364f44 <_end+0x347e30>
b2008eac:	00000000 	andeq	r0, r0, r0

b2008eb0 <.LC10>:
b2008eb0:	6b736174 	blvs	b3ce1488 <_end+0x1cc4374>
b2008eb4:	64646120 	strbtvs	r6, [r4], #-288	; 0xfffffee0
b2008eb8:	203d2072 	eorscs	r2, sp, r2, ror r0
b2008ebc:	0a0d7025 	beq	b2364f58 <_end+0x347e44>
b2008ec0:	Address 0x00000000b2008ec0 is out of bounds.


Disassembly of section .data:

b2008ec4 <kernal_end>:
b2008ec4:	b201d114 	andlt	sp, r1, #20, 2

b2008ec8 <schedFuncContextSPtr>:
b2008ec8:	9df3ffc8 	ldclls	15, cr15, [r3, #800]!	; 0x320

b2008ecc <taskid>:
b2008ecc:	ffffffff 			; <UNDEFINED> instruction: 0xffffffff

b2008ed0 <prio>:
b2008ed0:	ffffffff 			; <UNDEFINED> instruction: 0xffffffff

Disassembly of section .bss:

b2008ed4 <root>:
b2008ed4:	00000000 	andeq	r0, r0, r0

b2008ed8 <file_list_head>:
b2008ed8:	00000000 	andeq	r0, r0, r0

b2008edc <irq_handler_array>:
	...

b20090dc <free_page_head>:
b20090dc:	00000000 	andeq	r0, r0, r0

b20090e0 <inuse_page_head>:
b20090e0:	00000000 	andeq	r0, r0, r0

b20090e4 <curr_running_task>:
b20090e4:	00000000 	andeq	r0, r0, r0

b20090e8 <path_tree>:
	...

b20090f8 <page_list>:
	...

b201d0f8 <task_ready_list>:
	...

b201d10c <read_val>:
b201d10c:	00000000 	andeq	r0, r0, r0

Disassembly of section .comment:

00000000 <.comment>:
   0:	3a434347 	bcc	10d0d24 <NON_KSTACK_SIZE+0x10cfd24>
   4:	4e472820 	cdpmi	8, 4, cr2, cr7, cr0, {1}
   8:	72412055 	subvc	r2, r1, #85	; 0x55
   c:	6d45206d 	stclvs	0, cr2, [r5, #-436]	; 0xfffffe4c
  10:	64646562 	strbtvs	r6, [r4], #-1378	; 0xfffffa9e
  14:	54206465 	strtpl	r6, [r0], #-1125	; 0xfffffb9b
  18:	636c6f6f 	cmnvs	ip, #444	; 0x1bc
  1c:	6e696168 	powvsez	f6, f1, #0.0
  20:	322d3920 	eorcc	r3, sp, #32, 18	; 0x80000
  24:	2d303230 	lfmcs	f3, 4, [r0, #-192]!	; 0xffffff40
  28:	752d3271 	strvc	r3, [sp, #-625]!	; 0xfffffd8f
  2c:	74616470 	strbtvc	r6, [r1], #-1136	; 0xfffffb90
  30:	39202965 	stmdbcc	r0!, {r0, r2, r5, r6, r8, fp, sp}
  34:	312e332e 			; <UNDEFINED> instruction: 0x312e332e
  38:	32303220 	eorscc	r3, r0, #32, 4
  3c:	30343030 	eorscc	r3, r4, r0, lsr r0
  40:	72282038 	eorvc	r2, r8, #56	; 0x38
  44:	61656c65 	cmnvs	r5, r5, ror #24
  48:	00296573 	eoreq	r6, r9, r3, ror r5

Disassembly of section .ARM.attributes:

00000000 <.ARM.attributes>:
   0:	00002c41 	andeq	r2, r0, r1, asr #24
   4:	61656100 	cmnvs	r5, r0, lsl #2
   8:	01006962 	tsteq	r0, r2, ror #18
   c:	00000022 	andeq	r0, r0, r2, lsr #32
  10:	412d3705 			; <UNDEFINED> instruction: 0x412d3705
  14:	070a0600 	streq	r0, [sl, -r0, lsl #12]
  18:	09010841 	stmdbeq	r1, {r0, r6, fp}
  1c:	14041202 	strne	r1, [r4], #-514	; 0xfffffdfe
  20:	17011501 	strne	r1, [r1, -r1, lsl #10]
  24:	1a011803 	bne	46038 <NON_KSTACK_SIZE+0x45038>
  28:	22061e01 	andcs	r1, r6, #1, 28
  2c:	Address 0x000000000000002c is out of bounds.


Disassembly of section .debug_frame:

00000000 <.debug_frame>:
   0:	0000000c 	andeq	r0, r0, ip
   4:	ffffffff 			; <UNDEFINED> instruction: 0xffffffff
   8:	7c010001 	stcvc	0, cr0, [r1], {1}
   c:	000d0c0e 	andeq	r0, sp, lr, lsl #24
  10:	0000000c 	andeq	r0, r0, ip
  14:	00000000 	andeq	r0, r0, r0
  18:	b2007da8 	andlt	r7, r0, #168, 26	; 0x2a00
  1c:	000000f4 	strdeq	r0, [r0], -r4
  20:	0000000c 	andeq	r0, r0, ip
  24:	ffffffff 			; <UNDEFINED> instruction: 0xffffffff
  28:	7c010001 	stcvc	0, cr0, [r1], {1}
  2c:	000d0c0e 	andeq	r0, sp, lr, lsl #24
  30:	0000000c 	andeq	r0, r0, ip
  34:	00000020 	andeq	r0, r0, r0, lsr #32
  38:	b2007ebc 	andlt	r7, r0, #188, 28	; 0xbc0
  3c:	00000128 	andeq	r0, r0, r8, lsr #2
